 site

 Timestamp is 6399947d (Wed Dec 14 02:16:45 2022)

 Preferred load address is 0000000140000000

 Start         Length     Name                   Class
 0001:00000000 00008d60H .text$di                CODE
 0001:00008d60 0006c0b0H .text$mn                CODE
 0001:00074e10 00001040H .text$mn$00             CODE
 0001:00075e50 00001c36H .text$x                 CODE
 0002:00000000 00000110H .CRT$XCA                DATA
 0002:00000110 00000110H .CRT$XCAA               DATA
 0002:00000220 00000120H .CRT$XCU                DATA
 0002:00000340 00000110H .CRT$XCZ                DATA
 0002:00000450 00000110H .CRT$XIA                DATA
 0002:00000560 00000110H .CRT$XIAA               DATA
 0002:00000670 00000110H .CRT$XIAC               DATA
 0002:00000780 00000140H .CRT$XIC                DATA
 0002:000008c0 00000110H .CRT$XIZ                DATA
 0002:000009d0 00000110H .CRT$XPA                DATA
 0002:00000ae0 00000120H .CRT$XPX                DATA
 0002:00000c00 00000110H .CRT$XPXA               DATA
 0002:00000d10 00000110H .CRT$XPZ                DATA
 0002:00000e20 00000110H .CRT$XTA                DATA
 0002:00000f30 00000110H .CRT$XTZ                DATA
 0002:00001040 0000d8c0H .rdata                  DATA
 0002:0000e900 00000200H .rdata$CastGuardVftablesA DATA
 0002:0000eb00 000001a0H .rdata$CastGuardVftablesC DATA
 0002:0000eca0 0000060cH .rdata$r                DATA
 0002:0000f2ac 00000164H .rdata$zzzdbg           DATA
 0002:0000f410 00000110H .rtc$IAA                DATA
 0002:0000f520 00000110H .rtc$IZZ                DATA
 0002:0000f630 00000110H .rtc$TAA                DATA
 0002:0000f740 00000110H .rtc$TZZ                DATA
 0002:0000f850 00006920H .xdata                  DATA
 0002:00016170 00000196H .xdata$x                DATA
 0002:00016306 00000000H .edata                  DATA
 0003:00000000 00000e78H .data                   DATA
 0003:00000e78 00000190H .data$r                 DATA
 0003:00001008 00000228H .data$rs                DATA
 0003:00001230 000020b9H .bss                    DATA
 0004:00000000 00005544H .pdata                  DATA
 0005:00000000 00000420H .idata$5                DATA
 0005:00000420 00000028H .idata$2                DATA
 0005:00000448 00000018H .idata$3                DATA
 0005:00000460 00000420H .idata$4                DATA
 0005:00000880 0000088dH .idata$6                DATA
 0006:00000000 00000175H .00cfg                  DATA
 0007:00000000 0000029fH _RDATA                  DATA

  Address         Publics by Value              Rva+Base               Lib:Object

 0000:00000000       __AbsoluteZero             0000000000000000     <absolute>
 0000:00000000       ___safe_se_handler_count   0000000000000000     <absolute>
 0000:00000000       ___safe_se_handler_table   0000000000000000     <absolute>
 0000:00000000       __arm64x_extra_rfe_table   0000000000000000     <absolute>
 0000:00000000       __arm64x_extra_rfe_table_size 0000000000000000     <absolute>
 0000:00000000       __arm64x_native_entrypoint 0000000000000000     <absolute>
 0000:00000000       __arm64x_redirection_metadata 0000000000000000     <absolute>
 0000:00000000       __arm64x_redirection_metadata_count 0000000000000000     <absolute>
 0000:00000000       __dynamic_value_reloc_table 0000000000000000     <absolute>
 0000:00000000       __enclave_config           0000000000000000     <absolute>
 0000:00000000       __guard_check_icall_a64n_fptr 0000000000000000     <absolute>
 0000:00000000       __guard_eh_cont_count      0000000000000000     <absolute>
 0000:00000000       __guard_eh_cont_table      0000000000000000     <absolute>
 0000:00000000       __guard_fids_count         0000000000000000     <absolute>
 0000:00000000       __guard_fids_table         0000000000000000     <absolute>
 0000:00000000       __guard_iat_count          0000000000000000     <absolute>
 0000:00000000       __guard_iat_table          0000000000000000     <absolute>
 0000:00000000       __guard_longjmp_count      0000000000000000     <absolute>
 0000:00000000       __guard_longjmp_table      0000000000000000     <absolute>
 0000:00000000       __hybrid_auxiliary_iat     0000000000000000     <absolute>
 0000:00000000       __hybrid_auxiliary_iat_copy 0000000000000000     <absolute>
 0000:00000000       __hybrid_code_map          0000000000000000     <absolute>
 0000:00000000       __hybrid_code_map_count    0000000000000000     <absolute>
 0000:00000000       __volatile_metadata        0000000000000000     <absolute>
 0000:00000000       __x64_code_ranges_to_entry_points 0000000000000000     <absolute>
 0000:00000000       __x64_code_ranges_to_entry_points_count 0000000000000000     <absolute>
 0000:00000100       __guard_flags              0000000000000100     <absolute>
 0000:00000000       __ImageBase                0000000140000000     <linker-defined>
 0001:00008d60       ?f32_pos_inf@@YAMXZ        0000000140009d60 f   site.obj
 0001:00008d80       ?f32_neg_inf@@YAMXZ        0000000140009d80 f   site.obj
 0001:00008da0       ?f32_abs@@YAMM@Z           0000000140009da0 f   site.obj
 0001:00008dd0       ?f32_sign@@YAMM@Z          0000000140009dd0 f   site.obj
 0001:00008e20       ?f64_pos_inf@@YANXZ        0000000140009e20 f   site.obj
 0001:00008e50       ?f64_neg_inf@@YANXZ        0000000140009e50 f   site.obj
 0001:00008e80       ?f64_abs@@YANN@Z           0000000140009e80 f   site.obj
 0001:00008ec0       ?f64_sign@@YANN@Z          0000000140009ec0 f   site.obj
 0001:00008f20       ?f32_lerp@@YAMMMM@Z        0000000140009f20 f   site.obj
 0001:00008f60       ?f64_lerp@@YANNNN@Z        0000000140009f60 f   site.obj
 0001:00008fa0       ?f32_angle_difference@@YAMMM@Z 0000000140009fa0 f   site.obj
 0001:00008ff0       ?f64_angle_difference@@YANNN@Z 0000000140009ff0 f   site.obj
 0001:00009040       ?f32_angle_lerp@@YAMMMM@Z  000000014000a040 f   site.obj
 0001:000090a0       ?f64_angle_lerp@@YANNNN@Z  000000014000a0a0 f   site.obj
 0001:00009100       ?f32_radian_difference@@YAMMM@Z 000000014000a100 f   site.obj
 0001:00009150       ?f64_radian_difference@@YANNN@Z 000000014000a150 f   site.obj
 0001:000091a0       ?f32_radian_lerp@@YAMMMM@Z 000000014000a1a0 f   site.obj
 0001:00009200       ?f64_radian_lerp@@YANNNN@Z 000000014000a200 f   site.obj
 0001:00009260       ?f32_approach@@YAMMMM@Z    000000014000a260 f   site.obj
 0001:00009310       ?f64_approach@@YANNNN@Z    000000014000a310 f   site.obj
 0001:000093c0       ?Arena_create_default@@YAPEAUlcf_Arena@@XZ 000000014000a3c0 f   site.obj
 0001:000093e0       ?Arena_create@@YAPEAUlcf_Arena@@_K@Z 000000014000a3e0 f   site.obj
 0001:00009460       ?Arena_destroy@@YAXPEAUlcf_Arena@@@Z 000000014000a460 f   site.obj
 0001:00009490       ?Arena_take@@YAPEAXPEAUlcf_Arena@@_K@Z 000000014000a490 f   site.obj
 0001:000094c0       ?Arena_take_custom@@YAPEAXPEAUlcf_Arena@@_K1@Z 000000014000a4c0 f   site.obj
 0001:00009610       ?Arena_take_zero@@YAPEAXPEAUlcf_Arena@@_K@Z 000000014000a610 f   site.obj
 0001:00009660       ?Arena_take_zero_custom@@YAPEAXPEAUlcf_Arena@@_K1@Z 000000014000a660 f   site.obj
 0001:000096b0       ?Arena_reset@@YAXPEAUlcf_Arena@@_K@Z 000000014000a6b0 f   site.obj
 0001:00009750       ?Arena_reset_all@@YAXPEAUlcf_Arena@@@Z 000000014000a750 f   site.obj
 0001:00009770       ?Arena_reset_decommit@@YAXPEAUlcf_Arena@@_K@Z 000000014000a770 f   site.obj
 0001:00009830       ?Arena_reset_all_decommit@@YAXPEAUlcf_Arena@@@Z 000000014000a830 f   site.obj
 0001:000098a0       ?Arena_resize@@YAPEAXPEAUlcf_Arena@@PEAX_K2@Z 000000014000a8a0 f   site.obj
 0001:000098f0       ?Arena_resize_custom@@YAPEAXPEAUlcf_Arena@@PEAX_K22@Z 000000014000a8f0 f   site.obj
 0001:00009a60       ?ArenaSession_begin@@YA?AUlcf_ArenaSession@@PEAUlcf_Arena@@@Z 000000014000aa60 f   site.obj
 0001:00009ab0       ?ArenaSession_end@@YAXUlcf_ArenaSession@@@Z 000000014000aab0 f   site.obj
 0001:00009ae0       ?str8_from@@YA?AUstr8@@PEAD_K@Z 000000014000aae0 f   site.obj
 0001:00009b30       ?str8_from_pointer_range@@YA?AUstr8@@PEAD0@Z 000000014000ab30 f   site.obj
 0001:00009b90       ?str8_from_cstring@@YA?AUstr8@@PEAD@Z 000000014000ab90 f   site.obj
 0001:00009c20       ?str8_empty@@YA?AUstr8@@XZ 000000014000ac20 f   site.obj
 0001:00009c60       ?str8_first@@YA?AUstr8@@U1@_K@Z 000000014000ac60 f   site.obj
 0001:00009cf0       ?str8_last@@YA?AUstr8@@U1@_K@Z 000000014000acf0 f   site.obj
 0001:00009d80       ?str8_cut_first@@YA?AUstr8@@U1@_K@Z 000000014000ad80 f   site.obj
 0001:00009e20       ?str8_cut_last@@YA?AUstr8@@U1@_K@Z 000000014000ae20 f   site.obj
 0001:00009eb0       ?str8_skip@@YA?AUstr8@@U1@_K@Z 000000014000aeb0 f   site.obj
 0001:00009f50       ?str8_substr_between@@YA?AUstr8@@U1@_K1@Z 000000014000af50 f   site.obj
 0001:00009ff0       ?str8_substr@@YA?AUstr8@@U1@_K1@Z 000000014000aff0 f   site.obj
 0001:0000a090       ?str8_create_size@@YA?AUstr8@@PEAUlcf_Arena@@_K@Z 000000014000b090 f   site.obj
 0001:0000a0f0       ?str8_copy@@YA?AUstr8@@PEAUlcf_Arena@@U1@@Z 000000014000b0f0 f   site.obj
 0001:0000a180       ?str8_copy_custom@@YA?AUstr8@@PEAXU1@@Z 000000014000b180 f   site.obj
 0001:0000a1f0       ?str8_concat@@YA?AUstr8@@PEAUlcf_Arena@@U1@1@Z 000000014000b1f0 f   site.obj
 0001:0000a2a0       ?str8_eq@@YAIUstr8@@0@Z    000000014000b2a0 f   site.obj
 0001:0000a330       ?str8_has_prefix@@YAIUstr8@@0@Z 000000014000b330 f   site.obj
 0001:0000a3c0       ?str8_has_postfix@@YAIUstr8@@0@Z 000000014000b3c0 f   site.obj
 0001:0000a460       ?chr8_is_whitespace@@YAID@Z 000000014000b460 f   site.obj
 0001:0000a4a0       ?str8_contains_char@@YAIUstr8@@D@Z 000000014000b4a0 f   site.obj
 0001:0000a510       ?str8_contains_substring@@YAIUstr8@@0@Z 000000014000b510 f   site.obj
 0001:0000a590       ?str8_contains_delimiter@@YAIUstr8@@0@Z 000000014000b590 f   site.obj
 0001:0000a610       ?str8_char_location@@YA_KUstr8@@D@Z 000000014000b610 f   site.obj
 0001:0000a6a0       ?str8_substring_location@@YA_KUstr8@@0@Z 000000014000b6a0 f   site.obj
 0001:0000a7d0       ?str8_delimiter_location@@YA_KUstr8@@0@Z 000000014000b7d0 f   site.obj
 0001:0000a910       ?str8_trim_prefix@@YA?AUstr8@@U1@0@Z 000000014000b910 f   site.obj
 0001:0000a9c0       ?str8_trim_postfix@@YA?AUstr8@@U1@0@Z 000000014000b9c0 f   site.obj
 0001:0000aa50       ?str8_trim_whitespace@@YA?AUstr8@@U1@@Z 000000014000ba50 f   site.obj
 0001:0000ab20       ?str8_trim_whitespace_front@@YA?AUstr8@@U1@@Z 000000014000bb20 f   site.obj
 0001:0000abb0       ?str8_trim_whitespace_back@@YA?AUstr8@@U1@@Z 000000014000bbb0 f   site.obj
 0001:0000ac60       ?str8_pop_at_first_substring@@YA?AUstr8@@PEAU1@U1@@Z 000000014000bc60 f   site.obj
 0001:0000adb0       ?str8_pop_at_first_delimiter@@YA?AUstr8@@PEAU1@U1@@Z 000000014000bdb0 f   site.obj
 0001:0000aef0       ?str8_pop_at_first_whitespace@@YA?AUstr8@@PEAU1@@Z 000000014000bef0 f   site.obj
 0001:0000b070       ?Str8List_add_node@@YAXPEAUStr8List@@PEAUStr8Node@@@Z 000000014000c070 f   site.obj
 0001:0000b120       ?Str8List_append@@YAXPEAUStr8List@@U1@@Z 000000014000c120 f   site.obj
 0001:0000b1c0       ?Str8List_add@@YAXPEAUlcf_Arena@@PEAUStr8List@@Ustr8@@@Z 000000014000c1c0 f   site.obj
 0001:0000b230       ?Str8List_join@@YA?AUstr8@@PEAUlcf_Arena@@UStr8List@@U1@22@Z 000000014000c230 f   site.obj
 0001:0000b430       ?Prn8_str8@@YAXPEAUlcf_str8PrintContext@@Ustr8@@@Z 000000014000c430 f   site.obj
 0001:0000b5f0       ?Prn8_newline@@YAXPEAUlcf_str8PrintContext@@@Z 000000014000c5f0 f   site.obj
 0001:0000b650       ?Prn8_s64@@YAXPEAUlcf_str8PrintContext@@_J@Z 000000014000c650 f   site.obj
 0001:0000b6a0       ?Prn8_s32@@YAXPEAUlcf_str8PrintContext@@H@Z 000000014000c6a0 f   site.obj
 0001:0000b6f0       ?Prn8_s16@@YAXPEAUlcf_str8PrintContext@@F@Z 000000014000c6f0 f   site.obj
 0001:0000b740       ?Prn8_s8@@YAXPEAUlcf_str8PrintContext@@C@Z 000000014000c740 f   site.obj
 0001:0000b790       ?Prn8_u64@@YAXPEAUlcf_str8PrintContext@@_K@Z 000000014000c790 f   site.obj
 0001:0000b7e0       ?Prn8_u32@@YAXPEAUlcf_str8PrintContext@@I@Z 000000014000c7e0 f   site.obj
 0001:0000b830       ?Prn8_u16@@YAXPEAUlcf_str8PrintContext@@G@Z 000000014000c830 f   site.obj
 0001:0000b880       ?Prn8_u8@@YAXPEAUlcf_str8PrintContext@@E@Z 000000014000c880 f   site.obj
 0001:0000b8d0       ?Prn8_s64_custom@@YAXPEAUlcf_str8PrintContext@@_JG@Z 000000014000c8d0 f   site.obj
 0001:0000b920       ?Prn8_s32_custom@@YAXPEAUlcf_str8PrintContext@@HG@Z 000000014000c920 f   site.obj
 0001:0000b970       ?Prn8_s16_custom@@YAXPEAUlcf_str8PrintContext@@FG@Z 000000014000c970 f   site.obj
 0001:0000b9c0       ?Prn8_s8_custom@@YAXPEAUlcf_str8PrintContext@@CG@Z 000000014000c9c0 f   site.obj
 0001:0000ba10       ?Prn8_u64_custom@@YAXPEAUlcf_str8PrintContext@@_KG@Z 000000014000ca10 f   site.obj
 0001:0000ba60       ?Prn8_u32_custom@@YAXPEAUlcf_str8PrintContext@@IG@Z 000000014000ca60 f   site.obj
 0001:0000bab0       ?Prn8_u16_custom@@YAXPEAUlcf_str8PrintContext@@GG@Z 000000014000cab0 f   site.obj
 0001:0000bb00       ?Prn8_u8_custom@@YAXPEAUlcf_str8PrintContext@@EG@Z 000000014000cb00 f   site.obj
 0001:0000bb50       ?Prn8_begin_same_line@@YAXPEAUlcf_str8PrintContext@@@Z 000000014000cb50 f   site.obj
 0001:0000bb70       ?Prn8_end_same_line@@YAXPEAUlcf_str8PrintContext@@@Z 000000014000cb70 f   site.obj
 0001:0000bba0       ?Prn8_end@@YAXPEAUlcf_str8PrintContext@@@Z 000000014000cba0 f   site.obj
 0001:0000bbc0       ?Prn8_add_tabs@@YAXPEAUlcf_str8PrintContext@@H@Z 000000014000cbc0 f   site.obj
 0001:0000bbf0       ?Prn8_del_tabs@@YAXPEAUlcf_str8PrintContext@@H@Z 000000014000cbf0 f   site.obj
 0001:0000bc40       ?Win32_GetPageSize@@YAIXZ  000000014000cc40 f   site.obj
 0001:0000bc80       ?Win32_Reserve@@YAPEAX_K@Z 000000014000cc80 f   site.obj
 0001:0000bcf0       ?Win32_Commit@@YAIPEAX_K@Z 000000014000ccf0 f   site.obj
 0001:0000bd90       ?Win32_Decommit@@YAXPEAX_K@Z 000000014000cd90 f   site.obj
 0001:0000bdc0       ?Win32_Free@@YAXPEAX_K@Z   000000014000cdc0 f   site.obj
 0001:0000bdf0       ?win32_load_entire_file@@YA?AUstr8@@PEAUlcf_Arena@@U1@@Z 000000014000cdf0 f   site.obj
 0001:0000bf70       ?win32_get_file_write_time@@YA_KUstr8@@@Z 000000014000cf70 f   site.obj
 0001:0000c000       ?win32_file_was_written@@YAIUstr8@@PEA_K@Z 000000014000d000 f   site.obj
 0001:0000c070       ?win32_init_timing@@YAXXZ  000000014000d070 f   site.obj
 0001:0000c090       ?win32_get_wall_clock@@YA_JXZ 000000014000d090 f   site.obj
 0001:0000c0b0       ?win32_get_seconds_elapsed@@YAM_J0@Z 000000014000d0b0 f   site.obj
 0001:0000c1e0       ?f32_to_radians@@YAMM@Z    000000014000d1e0 f   site.obj
 0001:0000c210       ?f64_to_radians@@YANN@Z    000000014000d210 f   site.obj
 0001:0000c240       ?f32_to_degrees@@YAMM@Z    000000014000d240 f   site.obj
 0001:0000c270       ?f64_to_degrees@@YANN@Z    000000014000d270 f   site.obj
 0001:0000c370       ?str8_first_whitespace_location@@YA_KUstr8@@@Z 000000014000d370 f   site.obj
 0001:0000c430       ?Prn8_create@@YA?AUlcf_str8PrintContext@@I@Z 000000014000d430 f   site.obj
 0001:0000c490       ?Prn8_create_size@@YA?AUlcf_str8PrintContext@@I_K@Z 000000014000d490 f   site.obj
 0001:0000c500       ?Prn8_set_output_file@@YA?AUlcf_str8PrintContext@@U1@PEAU_iobuf@@@Z 000000014000d500 f   site.obj
 0001:0000cd00       ?parse_text@@YAPEAUText@@PEAUlcf_Arena@@PEAU1@@Z 000000014000dd00 f   site.obj
 0001:0000e7f0       ?parse@@YAPEAUBlock@@PEAUlcf_Arena@@Ustr8@@@Z 000000014000f7f0 f   site.obj
 0001:0000f8e0       ?render_text@@YA?AUStr8List@@PEAUlcf_Arena@@PEAUText@@@Z 00000001400108e0 f   site.obj
 0001:00010410       ?render@@YA?AUStr8List@@PEAUlcf_Arena@@PEAUBlock@@@Z 0000000140011410 f   site.obj
 0001:00011140       ?md_to_html@@YA?AUStr8List@@PEAUlcf_Arena@@Ustr8@@@Z 0000000140012140 f   site.obj
 0001:000111e0       main                       00000001400121e0 f   site.obj
 0001:00013930       __local_stdio_printf_options 0000000140014930 f i site.obj
 0001:00013940       _vfprintf_l                0000000140014940 f i site.obj
 0001:000139a0       fprintf                    00000001400149a0 f i site.obj
 0001:00013a02       PathRenameExtensionA       0000000140014a02 f   Shlwapi:SHLWAPI.dll
 0001:00013a08       __GSHandlerCheck           0000000140014a08 f   LIBCMT:gshandler.obj
 0001:00013a2c       __GSHandlerCheckCommon     0000000140014a2c f   LIBCMT:gshandler.obj
 0001:00013ab0       __security_check_cookie    0000000140014ab0 f   LIBCMT:amdsecgs.obj
 0001:00013de8       ?configure_argv@__scrt_narrow_argv_policy@@SAHXZ 0000000140014de8 f i LIBCMT:exe_main.obj
 0001:00013e04       ?initialize_environment@__scrt_narrow_environment_policy@@SAHXZ 0000000140014e04 f i LIBCMT:exe_main.obj
 0001:00013e50       ?set_app_type@__scrt_main_policy@@SAXXZ 0000000140014e50 f i LIBCMT:exe_main.obj
 0001:00013e5c       ?set_commode@__scrt_file_policy@@SAXXZ 0000000140014e5c f i LIBCMT:exe_main.obj
 0001:00013e7c       ?set_fmode@__scrt_file_policy@@SAXXZ 0000000140014e7c f i LIBCMT:exe_main.obj
 0001:00013e98       mainCRTStartup             0000000140014e98 f   LIBCMT:exe_main.obj
 0001:00013eb0       __raise_securityfailure    0000000140014eb0 f   LIBCMT:gs_report.obj
 0001:00013ef4       __report_gsfailure         0000000140014ef4 f   LIBCMT:gs_report.obj
 0001:00013ffc       __report_rangecheckfailure 0000000140014ffc f   LIBCMT:gs_report.obj
 0001:00014014       __report_securityfailure   0000000140015014 f   LIBCMT:gs_report.obj
 0001:000140d8       __report_securityfailureEx 00000001400150d8 f   LIBCMT:gs_report.obj
 0001:000143dc       NtCurrentTeb               00000001400153dc f i LIBCMT:utility.obj
 0001:000143e8       __scrt_acquire_startup_lock 00000001400153e8 f   LIBCMT:utility.obj
 0001:00014430       __scrt_dllmain_after_initialize_c 0000000140015430 f   LIBCMT:utility.obj
 0001:00014474       __scrt_dllmain_before_initialize_c 0000000140015474 f   LIBCMT:utility.obj
 0001:00014490       __scrt_dllmain_crt_thread_attach 0000000140015490 f   LIBCMT:utility.obj
 0001:000144c4       __scrt_dllmain_crt_thread_detach 00000001400154c4 f   LIBCMT:utility.obj
 0001:000144e0       __scrt_dllmain_exception_filter 00000001400154e0 f   LIBCMT:utility.obj
 0001:00014558       __scrt_dllmain_uninitialize_c 0000000140015558 f   LIBCMT:utility.obj
 0001:00014594       __scrt_dllmain_uninitialize_critical 0000000140015594 f   LIBCMT:utility.obj
 0001:000145b0       __scrt_initialize_crt      00000001400155b0 f   LIBCMT:utility.obj
 0001:0001460c       __scrt_initialize_onexit_tables 000000014001560c f   LIBCMT:utility.obj
 0001:000146bc       __scrt_is_nonwritable_in_current_image 00000001400156bc f   LIBCMT:utility.obj
 0001:0001477c       __scrt_release_startup_lock 000000014001577c f   LIBCMT:utility.obj
 0001:000147ac       __scrt_uninitialize_crt    00000001400157ac f   LIBCMT:utility.obj
 0001:000147e0       _onexit                    00000001400157e0 f   LIBCMT:utility.obj
 0001:00014828       at_quick_exit              0000000140015828 f   LIBCMT:utility.obj
 0001:0001484c       atexit                     000000014001584c f   LIBCMT:utility.obj
 0001:000148f0       __security_init_cookie     00000001400158f0 f   LIBCMT:gs_support.obj
 0001:000149c8       _matherr                   00000001400159c8 f   LIBCMT:matherr.obj
 0001:000149cc       _get_startup_argv_mode     00000001400159cc f   LIBCMT:argv_mode.obj
 0001:000149d4       _get_startup_commit_mode   00000001400159d4 f   LIBCMT:commit_mode.obj
 0001:000149d8       _get_startup_file_mode     00000001400159d8 f   LIBCMT:file_mode.obj
 0001:000149e0       _get_startup_new_mode      00000001400159e0 f   LIBCMT:new_mode.obj
 0001:000149e4       _get_startup_thread_locale_mode 00000001400159e4 f   LIBCMT:thread_locale.obj
 0001:000149e8       ?__scrt_initialize_type_info@@YAXXZ 00000001400159e8 f   LIBCMT:tncleanup.obj
 0001:000149fc       ?__scrt_uninitialize_type_info@@YAXXZ 00000001400159fc f   LIBCMT:tncleanup.obj
 0001:00014a0c       _should_initialize_environment 0000000140015a0c f   LIBCMT:env_mode.obj
 0001:00014a10       _initialize_invalid_parameter_handler 0000000140015a10 f   LIBCMT:invalid_parameter_handler.obj
 0001:00014a14       _initialize_denormal_control 0000000140015a14 f   LIBCMT:denormal_control.obj
 0001:00014a18       __local_stdio_scanf_options 0000000140015a18 f i LIBCMT:default_local_stdio_options.obj
 0001:00014a24       __scrt_initialize_default_local_stdio_options 0000000140015a24 f   LIBCMT:default_local_stdio_options.obj
 0001:00014a48       __scrt_is_user_matherr_present 0000000140015a48 f   LIBCMT:matherr_detection.obj
 0001:00014a58       __scrt_get_dyn_tls_init_callback 0000000140015a58 f   LIBCMT:dyn_tls_init.obj
 0001:00014a64       __scrt_get_dyn_tls_dtor_callback 0000000140015a64 f   LIBCMT:dyn_tls_dtor.obj
 0001:00014a70       __crt_debugger_hook        0000000140015a70 f   LIBCMT:utility_desktop.obj
 0001:00014a7c       __scrt_fastfail            0000000140015a7c f   LIBCMT:utility_desktop.obj
 0001:00014c1c       __scrt_get_show_window_mode 0000000140015c1c f   LIBCMT:utility_desktop.obj
 0001:00014c64       __scrt_initialize_mta      0000000140015c64 f   LIBCMT:utility_desktop.obj
 0001:00014c6c       __scrt_initialize_winrt    0000000140015c6c f   LIBCMT:utility_desktop.obj
 0001:00014c70       __scrt_is_managed_app      0000000140015c70 f   LIBCMT:utility_desktop.obj
 0001:00014cd8       __scrt_set_unhandled_exception_filter 0000000140015cd8 f   LIBCMT:utility_desktop.obj
 0001:00014cec       __scrt_exe_initialize_mta  0000000140015cec f   LIBCMT:utility_desktop.obj
 0001:00014cec       __scrt_stub_for_initialize_mta 0000000140015cec f   LIBCMT:utility_desktop.obj
 0001:00014cf0       __scrt_unhandled_exception_filter 0000000140015cf0 f   LIBCMT:utility_desktop.obj
 0001:00014d64       _RTC_Initialize            0000000140015d64 f   LIBCMT:initsect.obj
 0001:00014db0       _RTC_Terminate             0000000140015db0 f   LIBCMT:initsect.obj
 0001:00014dfc       _guard_check_icall_nop     0000000140015dfc f i LIBCMT:guard_support.obj
 0001:00014e00       ReadNoFence64              0000000140015e00 f i LIBCMT:guard_support.obj
 0001:00014e04       ReadPointerNoFence         0000000140015e04 f i LIBCMT:guard_support.obj
 0001:00014e08       __castguard_check_failure_debugbreak 0000000140015e08 f i LIBCMT:guard_support.obj
 0001:00014e2c       __castguard_check_failure_fastfail 0000000140015e2c f i LIBCMT:guard_support.obj
 0001:00014e58       __castguard_check_failure_nop 0000000140015e58 f i LIBCMT:guard_support.obj
 0001:00014e5c       __castguard_check_failure_os_handled 0000000140015e5c f i LIBCMT:guard_support.obj
 0001:00014ef0       __castguard_slow_path_check_debugbreak 0000000140015ef0 f i LIBCMT:guard_support.obj
 0001:00014f34       __castguard_slow_path_check_fastfail 0000000140015f34 f i LIBCMT:guard_support.obj
 0001:00014f7c       __castguard_slow_path_check_nop 0000000140015f7c f i LIBCMT:guard_support.obj
 0001:00014f80       __castguard_slow_path_check_os_handled 0000000140015f80 f i LIBCMT:guard_support.obj
 0001:00015008       _guard_icall_checks_enforced 0000000140016008 f i LIBCMT:guard_support.obj
 0001:00015024       _guard_rf_checks_enforced  0000000140016024 f i LIBCMT:guard_support.obj
 0001:00015028       __isa_available_init       0000000140016028 f   LIBCMT:cpu_disp.obj
 0001:00015240       __scrt_is_ucrt_dll_in_use  0000000140016240 f   LIBCMT:ucrt_detection.obj
 0001:00015250       CreateFileA                0000000140016250 f   kernel32:KERNEL32.dll
 0001:00015256       FindClose                  0000000140016256 f   kernel32:KERNEL32.dll
 0001:0001525c       FindFirstFileA             000000014001625c f   kernel32:KERNEL32.dll
 0001:00015262       FindNextFileA              0000000140016262 f   kernel32:KERNEL32.dll
 0001:00015268       GetFileSizeEx              0000000140016268 f   kernel32:KERNEL32.dll
 0001:0001526e       ReadFile                   000000014001626e f   kernel32:KERNEL32.dll
 0001:00015274       WriteFile                  0000000140016274 f   kernel32:KERNEL32.dll
 0001:0001527a       CloseHandle                000000014001627a f   kernel32:KERNEL32.dll
 0001:00015280       QueryPerformanceCounter    0000000140016280 f   kernel32:KERNEL32.dll
 0001:00015286       QueryPerformanceFrequency  0000000140016286 f   kernel32:KERNEL32.dll
 0001:0001528c       GetSystemInfo              000000014001628c f   kernel32:KERNEL32.dll
 0001:00015292       VirtualAlloc               0000000140016292 f   kernel32:KERNEL32.dll
 0001:00015298       VirtualFree                0000000140016298 f   kernel32:KERNEL32.dll
 0001:0001529e       RtlCaptureContext          000000014001629e f   kernel32:KERNEL32.dll
 0001:000152a4       RtlLookupFunctionEntry     00000001400162a4 f   kernel32:KERNEL32.dll
 0001:000152aa       RtlVirtualUnwind           00000001400162aa f   kernel32:KERNEL32.dll
 0001:000152b0       UnhandledExceptionFilter   00000001400162b0 f   kernel32:KERNEL32.dll
 0001:000152b6       SetUnhandledExceptionFilter 00000001400162b6 f   kernel32:KERNEL32.dll
 0001:000152bc       GetCurrentProcess          00000001400162bc f   kernel32:KERNEL32.dll
 0001:000152c2       TerminateProcess           00000001400162c2 f   kernel32:KERNEL32.dll
 0001:000152c8       IsProcessorFeaturePresent  00000001400162c8 f   kernel32:KERNEL32.dll
 0001:000152ce       GetCurrentProcessId        00000001400162ce f   kernel32:KERNEL32.dll
 0001:000152d4       GetCurrentThreadId         00000001400162d4 f   kernel32:KERNEL32.dll
 0001:000152da       GetSystemTimeAsFileTime    00000001400162da f   kernel32:KERNEL32.dll
 0001:000152e0       InitializeSListHead        00000001400162e0 f   kernel32:KERNEL32.dll
 0001:000152e6       IsDebuggerPresent          00000001400162e6 f   kernel32:KERNEL32.dll
 0001:000152ec       GetStartupInfoW            00000001400162ec f   kernel32:KERNEL32.dll
 0001:000152f2       GetModuleHandleW           00000001400162f2 f   kernel32:KERNEL32.dll
 0001:00015310       memcmp                     0000000140016310 f   libvcruntime:memcmp.obj
 0001:0001540c       __C_specific_handler       000000014001640c f   libvcruntime:riscchandler.obj
 0001:00015680       __vcrt_initialize          0000000140016680 f   libvcruntime:initialization.obj
 0001:000156b4       __vcrt_thread_attach       00000001400166b4 f   libvcruntime:initialization.obj
 0001:000156d0       __vcrt_thread_detach       00000001400166d0 f   libvcruntime:initialization.obj
 0001:000156e8       __vcrt_uninitialize        00000001400166e8 f   libvcruntime:initialization.obj
 0001:00015708       __vcrt_uninitialize_critical 0000000140016708 f   libvcruntime:initialization.obj
 0001:00015730       ??$?RD@__crt_internal_free_policy@@QEBAXQEBD@Z 0000000140016730 f i libvcruntime:std_type_info.obj
 0001:0001573c       ??$?RX@__crt_internal_free_policy@@QEBAXQEBX@Z 000000014001673c f i libvcruntime:std_type_info.obj
 0001:00015748       ??$__crt_interlocked_compare_exchange_pointer@$$CBDPEAD$$T@@YAPEBDPEDSEBDQEAD$$T@Z 0000000140016748 f i libvcruntime:std_type_info.obj
 0001:00015754       ??$__crt_interlocked_read_pointer@$$CBD@@YAPEBDPEDSEBD@Z 0000000140016754 f i libvcruntime:std_type_info.obj
 0001:0001575c       ??0?$__crt_unique_heap_ptr@DU__crt_internal_free_policy@@@@QEAA@QEAD@Z 000000014001675c f i libvcruntime:std_type_info.obj
 0001:00015764       ??0?$__crt_unique_heap_ptr@XU__crt_internal_free_policy@@@@QEAA@QEAX@Z 0000000140016764 f i libvcruntime:std_type_info.obj
 0001:0001576c       ??1?$__crt_unique_heap_ptr@DU__crt_internal_free_policy@@@@QEAA@XZ 000000014001676c f i libvcruntime:std_type_info.obj
 0001:00015790       ??1?$__crt_unique_heap_ptr@XU__crt_internal_free_policy@@@@QEAA@XZ 0000000140016790 f i libvcruntime:std_type_info.obj
 0001:000157b4       ??B?$__crt_unique_heap_ptr@DU__crt_internal_free_policy@@@@QEBA_NXZ 00000001400167b4 f i libvcruntime:std_type_info.obj
 0001:000157c0       ??B?$__crt_unique_heap_ptr@XU__crt_internal_free_policy@@@@QEBA_NXZ 00000001400167c0 f i libvcruntime:std_type_info.obj
 0001:000157fc       ?__crt_interlocked_read_64@@YA_JPED_J@Z 00000001400167fc f i libvcruntime:std_type_info.obj
 0001:00015804       ?detach@?$__crt_unique_heap_ptr@XU__crt_internal_free_policy@@@@QEAAPEAXXZ 0000000140016804 f i libvcruntime:std_type_info.obj
 0001:00015810       ?get@?$__crt_unique_heap_ptr@DU__crt_internal_free_policy@@@@QEBAPEADXZ 0000000140016810 f i libvcruntime:std_type_info.obj
 0001:00015814       ?get@?$__crt_unique_heap_ptr@XU__crt_internal_free_policy@@@@QEBAPEAXXZ 0000000140016814 f i libvcruntime:std_type_info.obj
 0001:00015818       ?is_valid@?$__crt_unique_heap_ptr@DU__crt_internal_free_policy@@@@QEBA_NXZ 0000000140016818 f i libvcruntime:std_type_info.obj
 0001:00015824       ?is_valid@?$__crt_unique_heap_ptr@XU__crt_internal_free_policy@@@@QEBA_NXZ 0000000140016824 f i libvcruntime:std_type_info.obj
 0001:00015830       ?release@?$__crt_unique_heap_ptr@DU__crt_internal_free_policy@@@@QEAAXXZ 0000000140016830 f i libvcruntime:std_type_info.obj
 0001:00015854       ?release@?$__crt_unique_heap_ptr@XU__crt_internal_free_policy@@@@QEAAXXZ 0000000140016854 f i libvcruntime:std_type_info.obj
 0001:00015878       __std_type_info_compare    0000000140016878 f   libvcruntime:std_type_info.obj
 0001:000158a8       __std_type_info_destroy_list 00000001400168a8 f   libvcruntime:std_type_info.obj
 0001:000158dc       __std_type_info_hash       00000001400168dc f   libvcruntime:std_type_info.obj
 0001:00015924       __std_type_info_name       0000000140016924 f   libvcruntime:std_type_info.obj
 0001:00015a84       __DestructExceptionObject  0000000140016a84 f   libvcruntime:ehhelpers.obj
 0001:00015b0c       ?_CallMemberFunction0@@YAXQEAX0@Z 0000000140016b0c f i libvcruntime:ehhelpers.obj
 0001:00015b80       ?raw_name@type_info@@QEBAPEBDXZ 0000000140016b80 f i libvcruntime:ehhelpers.obj
 0001:00015b88       _IsExceptionObjectToBeDestroyed 0000000140016b88 f   libvcruntime:ehhelpers.obj
 0001:00015bc4       _SetWinRTOutOfMemoryExceptionCallback 0000000140016bc4 f   libvcruntime:ehhelpers.obj
 0001:00015bd0       __AdjustPointer            0000000140016bd0 f   libvcruntime:ehhelpers.obj
 0001:00015bfc       __FrameUnwindFilter        0000000140016bfc f   libvcruntime:ehhelpers.obj
 0001:00015c7c       __GetPlatformExceptionInfo 0000000140016c7c f   libvcruntime:ehhelpers.obj
 0001:00015cf0       __current_exception        0000000140016cf0 f   libvcruntime:ehhelpers.obj
 0001:00015d08       __current_exception_context 0000000140016d08 f   libvcruntime:ehhelpers.obj
 0001:00015d20       __processing_throw         0000000140016d20 f   libvcruntime:ehhelpers.obj
 0001:00015d38       __std_terminate            0000000140016d38 f   libvcruntime:ehhelpers.obj
 0001:00015d44       _is_exception_typeof       0000000140016d44 f   libvcruntime:ehhelpers.obj
 0001:00015e30       memset_repstos             0000000140016e30 f   libvcruntime:memset.obj
 0001:00015e50       memset                     0000000140016e50 f   libvcruntime:memset.obj
 0001:000162e0       _NLG_Notify                00000001400172e0 f   libvcruntime:notify.obj
 0001:00016300       __NLG_Dispatch2            0000000140017300 f   libvcruntime:notify.obj
 0001:00016310       __NLG_Return2              0000000140017310 f   libvcruntime:notify.obj
 0001:0001632c       __except_validate_context_record 000000014001732c f   libvcruntime:jbcxrval.obj
 0001:00016370       __except_validate_jump_buffer 0000000140017370 f   libvcruntime:jbcxrval.obj
 0001:000163c0       __except_validate_jump_buffer_common 00000001400173c0 f i libvcruntime:jbcxrval.obj
 0001:00016434       ??$?RU__vcrt_ptd@@@__crt_internal_free_policy@@QEBAXQEBU__vcrt_ptd@@@Z 0000000140017434 f i libvcruntime:per_thread_data.obj
 0001:00016440       ??0?$__crt_unique_heap_ptr@U__vcrt_ptd@@U__crt_internal_free_policy@@@@QEAA@QEAU__vcrt_ptd@@@Z 0000000140017440 f i libvcruntime:per_thread_data.obj
 0001:00016468       ??1?$__crt_unique_heap_ptr@U__vcrt_ptd@@U__crt_internal_free_policy@@@@QEAA@XZ 0000000140017468 f i libvcruntime:per_thread_data.obj
 0001:00016498       ??B?$__crt_unique_heap_ptr@U__vcrt_ptd@@U__crt_internal_free_policy@@@@QEBA_NXZ 0000000140017498 f i libvcruntime:per_thread_data.obj
 0001:000164a4       ?detach@?$__crt_unique_heap_ptr@U__vcrt_ptd@@U__crt_internal_free_policy@@@@QEAAPEAU__vcrt_ptd@@XZ 00000001400174a4 f i libvcruntime:per_thread_data.obj
 0001:000164b0       ?get@?$__crt_unique_heap_ptr@U__vcrt_ptd@@U__crt_internal_free_policy@@@@QEBAPEAU__vcrt_ptd@@XZ 00000001400174b0 f i libvcruntime:per_thread_data.obj
 0001:000164b4       ?is_valid@?$__crt_unique_heap_ptr@U__vcrt_ptd@@U__crt_internal_free_policy@@@@QEBA_NXZ 00000001400174b4 f i libvcruntime:per_thread_data.obj
 0001:000164c0       ?release@?$__crt_unique_heap_ptr@U__vcrt_ptd@@U__crt_internal_free_policy@@@@QEAAXXZ 00000001400174c0 f i libvcruntime:per_thread_data.obj
 0001:00016518       __vcrt_freefls             0000000140017518 f   libvcruntime:per_thread_data.obj
 0001:00016540       __vcrt_freeptd             0000000140017540 f   libvcruntime:per_thread_data.obj
 0001:000165a0       __vcrt_getptd              00000001400175a0 f   libvcruntime:per_thread_data.obj
 0001:000165c0       __vcrt_getptd_noexit       00000001400175c0 f   libvcruntime:per_thread_data.obj
 0001:000166b0       __vcrt_getptd_noinit       00000001400176b0 f   libvcruntime:per_thread_data.obj
 0001:00016710       __vcrt_initialize_ptd      0000000140017710 f   libvcruntime:per_thread_data.obj
 0001:00016768       __vcrt_uninitialize_ptd    0000000140017768 f   libvcruntime:per_thread_data.obj
 0001:00016794       __vcrt_initialize_locks    0000000140017794 f   libvcruntime:locks.obj
 0001:000167ec       __vcrt_lock                00000001400177ec f   libvcruntime:locks.obj
 0001:0001680c       __vcrt_uninitialize_locks  000000014001780c f   libvcruntime:locks.obj
 0001:00016850       __vcrt_unlock              0000000140017850 f   libvcruntime:locks.obj
 0001:00016870       ??$?0$00@DName@@QEAA@PEBDU?$StringLifeSelector@$00@@@Z 0000000140017870 f i libvcruntime:undname.obj
 0001:000168c0       ??$?0$00@pcharNode@@QEAA@PEBDHU?$StringLifeSelector@$00@@@Z 00000001400178c0 f i libvcruntime:undname.obj
 0001:000168dc       ??$?0$01@DName@@QEAA@PEBDU?$StringLifeSelector@$01@@@Z 00000001400178dc f i libvcruntime:undname.obj
 0001:0001692c       ??$?0$01@pcharNode@@QEAA@PEBDHU?$StringLifeSelector@$01@@@Z 000000014001792c f i libvcruntime:undname.obj
 0001:000169bc       ??$?0$0A@@DName@@QEAA@PEBDU?$StringLifeSelector@$0A@@@@Z 00000001400179bc f i libvcruntime:undname.obj
 0001:00016a0c       ??$?0$0A@@pcharNode@@QEAA@PEBDHU?$StringLifeSelector@$0A@@@@Z 0000000140017a0c f i libvcruntime:undname.obj
 0001:00016a9c       ??$?0_K$0A@@?$optional@_K@std@@QEAA@$$QEA_K@Z 0000000140017a9c f i libvcruntime:undname.obj
 0001:00016ab0       ??$?0_K@?$_Optional_construct_base@_K@std@@QEAA@Uin_place_t@1@$$QEA_K@Z 0000000140017ab0 f i libvcruntime:undname.obj
 0001:00016ac4       ??$?0_K@?$_Optional_destruct_base@_K$00@std@@QEAA@Uin_place_t@1@$$QEA_K@Z 0000000140017ac4 f i libvcruntime:undname.obj
 0001:00016ad8       ??$append@VDNameNode@@@DName@@AEAAXPEBVDNameNode@@@Z 0000000140017ad8 f i libvcruntime:undname.obj
 0001:00016b54       ??$append@VDNameStatusNode@@@DName@@AEAAXPEBVDNameStatusNode@@@Z 0000000140017b54 f i libvcruntime:undname.obj
 0001:00016bd0       ??$append@VcharNode@@@DName@@AEAAXPEBVcharNode@@@Z 0000000140017bd0 f i libvcruntime:undname.obj
 0001:00016c4c       ??$append@VpDNameNode@@@DName@@AEAAXPEBVpDNameNode@@@Z 0000000140017c4c f i libvcruntime:undname.obj
 0001:00016cc8       ??$append@VpcharNode@@@DName@@AEAAXPEBVpcharNode@@@Z 0000000140017cc8 f i libvcruntime:undname.obj
 0001:00016d44       ??$doPchar@$00@DName@@AEAAXPEBDH@Z 0000000140017d44 f i libvcruntime:undname.obj
 0001:00016e10       ??$doPchar@$01@DName@@AEAAXPEBDH@Z 0000000140017e10 f i libvcruntime:undname.obj
 0001:00016ecc       ??$doPchar@$0A@@DName@@AEAAXPEBDH@Z 0000000140017ecc f i libvcruntime:undname.obj
 0001:00016f88       ??$forward@_K@std@@YA$$QEA_KAEA_K@Z 0000000140017f88 f i libvcruntime:undname.obj
 0001:000170ec       ??$size@D$04@std@@YA_KAEAY04$$CBD@Z 00000001400180ec f i libvcruntime:undname.obj
 0001:000170f4       ??0?$_Optional_construct_base@_K@std@@QEAA@XZ 00000001400180f4 f i libvcruntime:undname.obj
 0001:00017100       ??0?$_Optional_destruct_base@_K$00@std@@QEAA@XZ 0000000140018100 f i libvcruntime:undname.obj
 0001:0001710c       ??0?$optional@_K@std@@QEAA@XZ 000000014001810c f i libvcruntime:undname.obj
 0001:00017118       ??0Block@_HeapManager@@QEAA@XZ 0000000140018118 f i libvcruntime:undname.obj
 0001:00017124       ??0DName@@QEAA@AEAPEBDD@Z  0000000140018124 f   libvcruntime:undname.obj
 0001:00017200       ??0DName@@QEAA@AEBUStringLiteral@@@Z 0000000140018200 f   libvcruntime:undname.obj
 0001:00017238       ??0DName@@QEAA@AEBV0@@Z    0000000140018238 f i libvcruntime:undname.obj
 0001:0001724c       ??0DName@@QEAA@D@Z         000000014001824c f   libvcruntime:undname.obj
 0001:00017274       ??0DName@@QEAA@PEAV0@@Z    0000000140018274 f   libvcruntime:undname.obj
 0001:00017318       ??0DName@@QEAA@W4DNameStatus@@@Z 0000000140018318 f   libvcruntime:undname.obj
 0001:00017350       ??0DName@@QEAA@XZ          0000000140018350 f i libvcruntime:undname.obj
 0001:00017360       ??0DName@@QEAA@_J@Z        0000000140018360 f   libvcruntime:undname.obj
 0001:00017430       ??0DName@@QEAA@_K@Z        0000000140018430 f   libvcruntime:undname.obj
 0001:000174dc       ??0DNameNode@@IEAA@XZ      00000001400184dc f i libvcruntime:undname.obj
 0001:000174f0       ??0Replicator@@QEAA@XZ     00000001400184f0 f i libvcruntime:undname.obj
 0001:00017504       ??0UnDecorator@@QEAA@PEBDP6APEADJ@ZK@Z 0000000140018504 f i libvcruntime:undname.obj
 0001:00017568       ??0_Nontrivial_dummy_type@std@@QEAA@XZ 0000000140018568 f i libvcruntime:undname.obj
 0001:0001756c       ??0charNode@@QEAA@D@Z      000000014001856c f i libvcruntime:undname.obj
 0001:00017584       ??0pDNameNode@@QEAA@PEAVDName@@@Z 0000000140018584 f   libvcruntime:undname.obj
 0001:000175b4       ??0pairNode@@QEAA@PEBVDNameNode@@0@Z 00000001400185b4 f i libvcruntime:undname.obj
 0001:000175dc       ??2@YAPEAX_KAEAV_HeapManager@@H@Z 00000001400185dc f   libvcruntime:undname.obj
 0001:00017610       ??4DName@@QEAAAEAV0@AEBUStringLiteral@@@Z 0000000140018610 f   libvcruntime:undname.obj
 0001:00017640       ??4DName@@QEAAAEAV0@AEBV0@@Z 0000000140018640 f   libvcruntime:undname.obj
 0001:00017654       ??4DName@@QEAAAEAV0@D@Z    0000000140018654 f i libvcruntime:undname.obj
 0001:0001767c       ??4DName@@QEAAAEAV0@PEAV0@@Z 000000014001867c f   libvcruntime:undname.obj
 0001:00017710       ??4DName@@QEAAAEAV0@W4DNameStatus@@@Z 0000000140018710 f   libvcruntime:undname.obj
 0001:0001774c       ??AReplicator@@QEBA?AVDName@@H@Z 000000014001874c f   libvcruntime:undname.obj
 0001:0001779c       ??B?$optional@_K@std@@QEBA_NXZ 000000014001879c f i libvcruntime:undname.obj
 0001:000177a0       ??D?$_Optional_construct_base@_K@std@@QEGAAAEA_KXZ 00000001400187a0 f i libvcruntime:undname.obj
 0001:000177a4       ??H@YA?AVDName@@AEBUStringLiteral@@AEBV0@@Z 00000001400187a4 f i libvcruntime:undname.obj
 0001:000177e8       ??H@YA?AVDName@@DAEBV0@@Z  00000001400187e8 f i libvcruntime:undname.obj
 0001:0001783c       ??H@YA?AVDName@@W4DNameStatus@@AEBV0@@Z 000000014001883c f i libvcruntime:undname.obj
 0001:00017898       ??HDName@@QEBA?AV0@AEBUStringLiteral@@@Z 0000000140018898 f   libvcruntime:undname.obj
 0001:000178cc       ??HDName@@QEBA?AV0@AEBV0@@Z 00000001400188cc f   libvcruntime:undname.obj
 0001:00017900       ??HDName@@QEBA?AV0@D@Z     0000000140018900 f   libvcruntime:undname.obj
 0001:00017934       ??HDName@@QEBA?AV0@PEAV0@@Z 0000000140018934 f   libvcruntime:undname.obj
 0001:00017968       ??HDName@@QEBA?AV0@W4DNameStatus@@@Z 0000000140018968 f   libvcruntime:undname.obj
 0001:0001799c       ??HStringLiteral@@QEBA?AU0@H@Z 000000014001899c f i libvcruntime:undname.obj
 0001:000179b8       ??YDName@@QEAAAEAV0@AEBUStringLiteral@@@Z 00000001400189b8 f   libvcruntime:undname.obj
 0001:00017a58       ??YDName@@QEAAAEAV0@AEBV0@@Z 0000000140018a58 f   libvcruntime:undname.obj
 0001:00017ac8       ??YDName@@QEAAAEAV0@D@Z    0000000140018ac8 f   libvcruntime:undname.obj
 0001:00017b50       ??YDName@@QEAAAEAV0@PEAV0@@Z 0000000140018b50 f   libvcruntime:undname.obj
 0001:00017c08       ??YDName@@QEAAAEAV0@W4DNameStatus@@@Z 0000000140018c08 f   libvcruntime:undname.obj
 0001:00017c74       ??YReplicator@@QEAAAEAV0@AEBVDName@@@Z 0000000140018c74 f   libvcruntime:undname.obj
 0001:00017ce4       ??_5DName@@QEAAAEAV0@AEBV0@@Z 0000000140018ce4 f   libvcruntime:undname.obj
 0001:00017d00       ??__K_l@@YA?AUStringLiteral@@PEBD_K@Z 0000000140018d00 f i libvcruntime:undname.obj
 0001:00017d10       ?Constructor@_HeapManager@@QEAAXP6APEAX_K@ZP6AXPEAX@Z@Z 0000000140018d10 f i libvcruntime:undname.obj
 0001:00017d2c       ?Destructor@_HeapManager@@QEAAXXZ 0000000140018d2c f i libvcruntime:undname.obj
 0001:00017d88       ?UScore@UnDecorator@@SA?AUStringLiteral@@W4Tokens@@@Z 0000000140018d88 f   libvcruntime:undname.obj
 0001:00017de8       ?composeDeclaration@UnDecorator@@CA?AVDName@@AEBV2@@Z 0000000140018de8 f i libvcruntime:undname.obj
 0001:00019024       ?doAccessSpecifiers@UnDecorator@@SAHXZ 000000014001a024 f i libvcruntime:undname.obj
 0001:00019038       ?doAllocationLanguage@UnDecorator@@SAHXZ 000000014001a038 f i libvcruntime:undname.obj
 0001:0001904c       ?doAllocationModel@UnDecorator@@SAHXZ 000000014001a04c f i libvcruntime:undname.obj
 0001:00019060       ?doEcsu@UnDecorator@@SAHXZ 000000014001a060 f i libvcruntime:undname.obj
 0001:00019074       ?doEllipsis@UnDecorator@@SAHXZ 000000014001a074 f i libvcruntime:undname.obj
 0001:00019088       ?doFunctionReturns@UnDecorator@@SAHXZ 000000014001a088 f i libvcruntime:undname.obj
 0001:0001909c       ?doMSKeywords@UnDecorator@@SAHXZ 000000014001a09c f i libvcruntime:undname.obj
 0001:000190b0       ?doMemberTypes@UnDecorator@@SAHXZ 000000014001a0b0 f i libvcruntime:undname.obj
 0001:000190c4       ?doNameOnly@UnDecorator@@SAHXZ 000000014001a0c4 f i libvcruntime:undname.obj
 0001:000190d4       ?doNoIdentCharCheck@UnDecorator@@SAHXZ 000000014001a0d4 f i libvcruntime:undname.obj
 0001:000190e4       ?doPchar@DName@@AEAAXD@Z   000000014001a0e4 f   libvcruntime:undname.obj
 0001:00019148       ?doPtr64@UnDecorator@@SAHXZ 000000014001a148 f i libvcruntime:undname.obj
 0001:0001915c       ?doRestrictionSpec@UnDecorator@@SAHXZ 000000014001a15c f i libvcruntime:undname.obj
 0001:00019170       ?doThisTypes@UnDecorator@@SAHXZ 000000014001a170 f i libvcruntime:undname.obj
 0001:00019188       ?doThrowTypes@UnDecorator@@SAHXZ 000000014001a188 f i libvcruntime:undname.obj
 0001:0001919c       ?doTypeOnly@UnDecorator@@SAHXZ 000000014001a19c f i libvcruntime:undname.obj
 0001:000191ac       ?doUnderScore@UnDecorator@@SAHXZ 000000014001a1ac f i libvcruntime:undname.obj
 0001:000191bc       ?getAddressOf@UnDecorator@@CA?AVDName@@XZ 000000014001a1bc f   libvcruntime:undname.obj
 0001:00019270       ?getArgumentList@UnDecorator@@CA?AVDName@@XZ 000000014001a270 f   libvcruntime:undname.obj
 0001:00019494       ?getArgumentTypes@UnDecorator@@CA?AVDName@@XZ 000000014001a494 f   libvcruntime:undname.obj
 0001:00019634       ?getArrayAccess@UnDecorator@@CA?AVDName@@XZ 000000014001a634 f   libvcruntime:undname.obj
 0001:000196f4       ?getArrayObject@UnDecorator@@CA?AVDName@@XZ 000000014001a6f4 f   libvcruntime:undname.obj
 0001:000197dc       ?getArrayType@UnDecorator@@CA?AVDName@@AEBV2@@Z 000000014001a7dc f i libvcruntime:undname.obj
 0001:00019ab4       ?getBasedType@UnDecorator@@CA?AVDName@@XZ 000000014001aab4 f   libvcruntime:undname.obj
 0001:00019be8       ?getBasicDataType@UnDecorator@@CA?AVDName@@AEBV2@@Z 000000014001abe8 f   libvcruntime:undname.obj
 0001:0001a368       ?getCHPEName@UnDecorator@@QEAAPEADPEADH@Z 000000014001b368 f i libvcruntime:undname.obj
 0001:0001a4cc       ?getCallIndex@UnDecorator@@CA?AVDName@@XZ 000000014001b4cc f i libvcruntime:undname.obj
 0001:0001a4ec       ?getCallingConvention@UnDecorator@@CA?AVDName@@XZ 000000014001b4ec f   libvcruntime:undname.obj
 0001:0001a68c       ?getDataIndirectType@UnDecorator@@CA?AVDName@@AEBV2@W4IndirectionKind@@0H@Z 000000014001b68c f   libvcruntime:undname.obj
 0001:0001b184       ?getDataIndirectType@UnDecorator@@CA?AVDName@@XZ 000000014001c184 f i libvcruntime:undname.obj
 0001:0001b1cc       ?getDataType@UnDecorator@@CA?AVDName@@PEAV2@@Z 000000014001c1cc f   libvcruntime:undname.obj
 0001:0001b324       ?getDecoratedName@UnDecorator@@CA?AVDName@@XZ 000000014001c324 f   libvcruntime:undname.obj
 0001:0001b6c4       ?getDimension@UnDecorator@@CA?AVDName@@_N@Z 000000014001c6c4 f   libvcruntime:undname.obj
 0001:0001b860       ?getDispatchTarget@UnDecorator@@CA?AVDName@@XZ 000000014001c860 f   libvcruntime:undname.obj
 0001:0001b8c0       ?getDisplacement@UnDecorator@@CA?AVDName@@XZ 000000014001c8c0 f i libvcruntime:undname.obj
 0001:0001b8e0       ?getECSUDataType@UnDecorator@@CA?AVDName@@XZ 000000014001c8e0 f   libvcruntime:undname.obj
 0001:0001bb38       ?getECSUName@UnDecorator@@CA?AVDName@@XZ 000000014001cb38 f i libvcruntime:undname.obj
 0001:0001bb54       ?getEnumType@UnDecorator@@CA?AVDName@@XZ 000000014001cb54 f i libvcruntime:undname.obj
 0001:0001bcd0       ?getExtendedDataIndirectType@UnDecorator@@CA?AVDName@@AEAW4IndirectionKind@@AEA_NH@Z 000000014001ccd0 f   libvcruntime:undname.obj
 0001:0001bf54       ?getExternalDataType@UnDecorator@@CA?AVDName@@AEBV2@@Z 000000014001cf54 f i libvcruntime:undname.obj
 0001:0001c044       ?getFloatingPoint@UnDecorator@@CA?AVDName@@H@Z 000000014001d044 f   libvcruntime:undname.obj
 0001:0001c204       ?getFunctionIndirectType@UnDecorator@@CA?AVDName@@AEBV2@@Z 000000014001d204 f   libvcruntime:undname.obj
 0001:0001c874       ?getGuardNumber@UnDecorator@@CA?AVDName@@XZ 000000014001d874 f i libvcruntime:undname.obj
 0001:0001c894       ?getLastChar@DName@@QEBADXZ 000000014001d894 f i libvcruntime:undname.obj
 0001:0001c8b4       ?getLastChar@DNameStatusNode@@UEBADXZ 000000014001d8b4 f i libvcruntime:undname.obj
 0001:0001c8c4       ?getLastChar@charNode@@UEBADXZ 000000014001d8c4 f i libvcruntime:undname.obj
 0001:0001c8c8       ?getLastChar@pDNameNode@@UEBADXZ 000000014001d8c8 f i libvcruntime:undname.obj
 0001:0001c8fc       ?getLastChar@pairNode@@UEBADXZ 000000014001d8fc f i libvcruntime:undname.obj
 0001:0001c940       ?getLastChar@pcharNode@@UEBADXZ 000000014001d940 f i libvcruntime:undname.obj
 0001:0001c95c       ?getLexicalFrame@UnDecorator@@CA?AVDName@@XZ 000000014001d95c f i libvcruntime:undname.obj
 0001:0001c9d8       ?getMemberAccess@UnDecorator@@CA?AVDName@@XZ 000000014001d9d8 f   libvcruntime:undname.obj
 0001:0001ca90       ?getMemoryWithBuffer@_HeapManager@@QEAAPEAX_K@Z 000000014001da90 f   libvcruntime:undname.obj
 0001:0001cb44       ?getMemoryWithoutBuffer@_HeapManager@@QEAAPEAX_K@Z 000000014001db44 f   libvcruntime:undname.obj
 0001:0001cb5c       ?getNoexcept@UnDecorator@@CA?AVDName@@XZ 000000014001db5c f   libvcruntime:undname.obj
 0001:0001cbd8       ?getNumberOfDimensions@UnDecorator@@CAHXZ 000000014001dbd8 f   libvcruntime:undname.obj
 0001:0001cc5c       ?getOperatorName@UnDecorator@@CA?AVDName@@_NPEA_N@Z 000000014001dc5c f i libvcruntime:undname.obj
 0001:0001d8e8       ?getPointerToMember@UnDecorator@@CA?AVDName@@XZ 000000014001e8e8 f   libvcruntime:undname.obj
 0001:0001da1c       ?getPointerType@UnDecorator@@CA?AVDName@@AEBV2@0@Z 000000014001ea1c f i libvcruntime:undname.obj
 0001:0001da40       ?getPointerTypeArray@UnDecorator@@CA?AVDName@@AEBV2@0@Z 000000014001ea40 f i libvcruntime:undname.obj
 0001:0001da60       ?getPrimaryDataType@UnDecorator@@CA?AVDName@@AEBV2@@Z 000000014001ea60 f   libvcruntime:undname.obj
 0001:0001ddc8       ?getPtrRefDataType@UnDecorator@@CA?AVDName@@AEBV2@H@Z 000000014001edc8 f   libvcruntime:undname.obj
 0001:0001e008       ?getPtrRefType@UnDecorator@@CA?AVDName@@AEBV2@0W4IndirectionKind@@@Z 000000014001f008 f   libvcruntime:undname.obj
 0001:0001e254       ?getReferenceType@UnDecorator@@CA?AVDName@@AEBV2@0W4IndirectionKind@@@Z 000000014001f254 f i libvcruntime:undname.obj
 0001:0001e270       ?getRestrictionSpec@UnDecorator@@CA?AVDName@@XZ 000000014001f270 f   libvcruntime:undname.obj
 0001:0001e4c0       ?getReturnType@UnDecorator@@CA?AVDName@@PEAV2@@Z 000000014001f4c0 f   libvcruntime:undname.obj
 0001:0001e504       ?getScope@UnDecorator@@CA?AVDName@@XZ 000000014001f504 f   libvcruntime:undname.obj
 0001:0001eaec       ?getScopedName@UnDecorator@@CA?AVDName@@XZ 000000014001faec f   libvcruntime:undname.obj
 0001:0001ec78       ?getSignedDimension@UnDecorator@@CA?AVDName@@XZ 000000014001fc78 f   libvcruntime:undname.obj
 0001:0001ed20       ?getStorageConvention@UnDecorator@@CA?AVDName@@XZ 000000014001fd20 f i libvcruntime:undname.obj
 0001:0001ed68       ?getString@DName@@QEBAPEADPEAD0@Z 000000014001fd68 f i libvcruntime:undname.obj
 0001:0001ed88       ?getString@DName@@QEBAPEADPEADH@Z 000000014001fd88 f i libvcruntime:undname.obj
 0001:0001ee40       ?getString@DNameStatusNode@@UEBAPEADPEAD0@Z 000000014001fe40 f i libvcruntime:undname.obj
 0001:0001ee98       ?getString@charNode@@UEBAPEADPEAD0@Z 000000014001fe98 f i libvcruntime:undname.obj
 0001:0001eeb0       ?getString@pDNameNode@@UEBAPEADPEAD0@Z 000000014001feb0 f i libvcruntime:undname.obj
 0001:0001eee8       ?getString@pairNode@@UEBAPEADPEAD0@Z 000000014001fee8 f i libvcruntime:undname.obj
 0001:0001ef48       ?getString@pcharNode@@UEBAPEADPEAD0@Z 000000014001ff48 f i libvcruntime:undname.obj
 0001:0001ef8c       ?getStringEncoding@UnDecorator@@CA?AVDName@@W4PrefixKind@@H@Z 000000014001ff8c f   libvcruntime:undname.obj
 0001:0001f0b8       ?getStringHelper@@YAPEADPEADPEBD1H@Z 00000001400200b8 f i libvcruntime:undname.obj
 0001:0001f0f0       ?getStringObject@UnDecorator@@CA?AVDName@@XZ 00000001400200f0 f   libvcruntime:undname.obj
 0001:0001f174       ?getSymbolName@UnDecorator@@CA?AVDName@@XZ 0000000140020174 f i libvcruntime:undname.obj
 0001:0001f1d4       ?getTemplateArgumentList@UnDecorator@@CA?AVDName@@XZ 00000001400201d4 f   libvcruntime:undname.obj
 0001:0001f478       ?getTemplateName@UnDecorator@@CA?AVDName@@_N@Z 0000000140020478 f   libvcruntime:undname.obj
 0001:0001f7b0       ?getTemplateNonTypeArgument@UnDecorator@@CA?AVDName@@XZ 00000001400207b0 f   libvcruntime:undname.obj
 0001:0001fe54       ?getTemplateTypeArgument@UnDecorator@@CA?AVDName@@XZ 0000000140020e54 f   libvcruntime:undname.obj
 0001:00020018       ?getThisType@UnDecorator@@CA?AVDName@@XZ 0000000140021018 f i libvcruntime:undname.obj
 0001:00020068       ?getThrowTypes@UnDecorator@@CA?AVDName@@XZ 0000000140021068 f   libvcruntime:undname.obj
 0001:00020094       ?getTypeEncoding@UnDecorator@@CAHXZ 0000000140021094 f i libvcruntime:undname.obj
 0001:00020514       ?getUndecoratedName@UnDecorator@@QEAAPEADPEADH@Z 0000000140021514 f i libvcruntime:undname.obj
 0001:000206bc       ?getUnionObject@UnDecorator@@CA?AVDName@@XZ 00000001400216bc f   libvcruntime:undname.obj
 0001:000207c8       ?getVCallThunkType@UnDecorator@@CA?AVDName@@XZ 00000001400217c8 f i libvcruntime:undname.obj
 0001:0002085c       ?getValue@UnDecorator@@CA?AV?$optional@_K@std@@XZ 000000014002185c f   libvcruntime:undname.obj
 0001:000208ec       ?getValueObject@UnDecorator@@CA?AVDName@@XZ 00000001400218ec f   libvcruntime:undname.obj
 0001:00020a7c       ?getVbTableType@UnDecorator@@CA?AVDName@@AEBV2@@Z 0000000140021a7c f i libvcruntime:undname.obj
 0001:00020a98       ?getVdispMapType@UnDecorator@@CA?AVDName@@AEBV2@@Z 0000000140021a98 f i libvcruntime:undname.obj
 0001:00020b34       ?getVfTableType@UnDecorator@@CA?AVDName@@AEBV2@@Z 0000000140021b34 f i libvcruntime:undname.obj
 0001:00020dc0       ?getZName@UnDecorator@@CA?AVDName@@_N0@Z 0000000140021dc0 f   libvcruntime:undname.obj
 0001:00021158       ?haveTemplateParameters@UnDecorator@@SAHXZ 0000000140022158 f i libvcruntime:undname.obj
 0001:00021168       ?isArray@DName@@QEBAHXZ    0000000140022168 f i libvcruntime:undname.obj
 0001:00021174       ?isComArray@DName@@QEBAHXZ 0000000140022174 f i libvcruntime:undname.obj
 0001:00021180       ?isEmpty@DName@@QEBAHXZ    0000000140022180 f i libvcruntime:undname.obj
 0001:0002118c       ?isFull@Replicator@@QEBAHXZ 000000014002218c f i libvcruntime:undname.obj
 0001:00021198       ?isNoTE@DName@@QEBAHXZ     0000000140022198 f i libvcruntime:undname.obj
 0001:000211a4       ?isPinPtr@DName@@QEBAHXZ   00000001400221a4 f i libvcruntime:undname.obj
 0001:000211b0       ?isPtrRef@DName@@QEBAHXZ   00000001400221b0 f i libvcruntime:undname.obj
 0001:000211bc       ?isUDC@DName@@QEBAHXZ      00000001400221bc f i libvcruntime:undname.obj
 0001:000211d8       ?isUDTThunk@DName@@QEBAHXZ 00000001400221d8 f i libvcruntime:undname.obj
 0001:000211f4       ?isVCallThunk@DName@@QEBAHXZ 00000001400221f4 f i libvcruntime:undname.obj
 0001:00021200       ?isValid@DName@@QEBAHXZ    0000000140022200 f i libvcruntime:undname.obj
 0001:0002120c       ?length@DName@@QEBAHXZ     000000014002220c f i libvcruntime:undname.obj
 0001:0002122c       ?length@DNameStatusNode@@UEBAHXZ 000000014002222c f i libvcruntime:undname.obj
 0001:00021230       ?length@charNode@@UEBAHXZ  0000000140022230 f i libvcruntime:undname.obj
 0001:00021238       ?length@pDNameNode@@UEBAHXZ 0000000140022238 f i libvcruntime:undname.obj
 0001:0002126c       ?length@pairNode@@UEBAHXZ  000000014002226c f i libvcruntime:undname.obj
 0001:000212c4       ?length@pcharNode@@UEBAHXZ 00000001400222c4 f i libvcruntime:undname.obj
 0001:000212c8       ?make@DNameStatusNode@@SAPEBV1@W4DNameStatus@@@Z 00000001400222c8 f i libvcruntime:undname.obj
 0001:000212f0       ?parseDecoratedName@UnDecorator@@CA?AVDName@@XZ 00000001400222f0 f   libvcruntime:undname.obj
 0001:00021448       ?raw_length@DNameStatusNode@@UEBAHXZ 0000000140022448 f i libvcruntime:undname.obj
 0001:0002144c       ?raw_length@charNode@@UEBAHXZ 000000014002244c f i libvcruntime:undname.obj
 0001:00021454       ?raw_length@pDNameNode@@UEBAHXZ 0000000140022454 f i libvcruntime:undname.obj
 0001:00021458       ?raw_length@pairNode@@UEBAHXZ 0000000140022458 f i libvcruntime:undname.obj
 0001:0002145c       ?raw_length@pcharNode@@UEBAHXZ 000000014002245c f i libvcruntime:undname.obj
 0001:00021460       ?setIsArray@DName@@QEAAXXZ 0000000140022460 f i libvcruntime:undname.obj
 0001:00021468       ?setIsComArray@DName@@QEAAXXZ 0000000140022468 f i libvcruntime:undname.obj
 0001:00021470       ?setIsNoTE@DName@@QEAAXXZ  0000000140022470 f i libvcruntime:undname.obj
 0001:00021478       ?setIsPinPtr@DName@@QEAAXXZ 0000000140022478 f i libvcruntime:undname.obj
 0001:00021480       ?setIsUDC@DName@@QEAAXXZ   0000000140022480 f i libvcruntime:undname.obj
 0001:00021490       ?setIsVCallThunk@DName@@QEAAXXZ 0000000140022490 f i libvcruntime:undname.obj
 0001:00021498       ?setPtrRef@DName@@QEAAAEAV1@XZ 0000000140022498 f i libvcruntime:undname.obj
 0001:000214a4       ?status@DName@@QEBA?AW4DNameStatus@@XZ 00000001400224a4 f i libvcruntime:undname.obj
 0001:0002151c       __unDName                  000000014002251c f   libvcruntime:undname.obj
 0001:0002154c       __unDNameEx                000000014002254c f   libvcruntime:undname.obj
 0001:000216cc       _vsprintf_s_l              00000001400226cc f i libvcruntime:undname.obj
 0001:00021748       snprintf                   0000000140022748 f i libvcruntime:undname.obj
 0001:000217b4       sprintf_s                  00000001400227b4 f i libvcruntime:undname.obj
 0001:0002181c       unDNameGenerateCHPE        000000014002281c f   libvcruntime:undname.obj
 0001:00021964       vsnprintf                  0000000140022964 f i libvcruntime:undname.obj
 0001:000219e0       ??$__crt_interlocked_exchange_pointer@UHINSTANCE__@@PEAU1@@@YAPEAUHINSTANCE__@@PEDSEAU0@QEAU0@@Z 00000001400229e0 f i libvcruntime:winapi_downlevel.obj
 0001:000219e8       ??$__crt_interlocked_exchange_pointer@UHINSTANCE__@@PEAX@@YAPEAUHINSTANCE__@@PEDSEAU0@QEAX@Z 00000001400229e8 f i libvcruntime:winapi_downlevel.obj
 0001:000219f0       ??$__crt_interlocked_exchange_pointer@XPEAX@@YAPEAXPEDSEAXQEAX@Z 00000001400229f0 f i libvcruntime:winapi_downlevel.obj
 0001:000219f8       ??$__crt_interlocked_read_pointer@UHINSTANCE__@@@@YAPEAUHINSTANCE__@@PEDSEAU0@@Z 00000001400229f8 f i libvcruntime:winapi_downlevel.obj
 0001:00021a00       ??$__crt_interlocked_read_pointer@X@@YAPEAXPEDSEAX@Z 0000000140022a00 f i libvcruntime:winapi_downlevel.obj
 0001:00022088       __vcrt_FlsAlloc            0000000140023088 f   libvcruntime:winapi_downlevel.obj
 0001:000220e0       __vcrt_FlsFree             00000001400230e0 f   libvcruntime:winapi_downlevel.obj
 0001:00022138       __vcrt_FlsGetValue         0000000140023138 f   libvcruntime:winapi_downlevel.obj
 0001:00022190       __vcrt_FlsSetValue         0000000140023190 f   libvcruntime:winapi_downlevel.obj
 0001:000221f8       __vcrt_InitializeCriticalSectionEx 00000001400231f8 f   libvcruntime:winapi_downlevel.obj
 0001:00022274       ??$__crt_interlocked_exchange_pointer@$$A6AXXZP6AXXZ@@YAP6AXXZPEDS6AXXZQ6AXXZ@Z 0000000140023274 f i libvcruntime:purevirt.obj
 0001:0002227c       ??$__crt_interlocked_read_pointer@$$A6AXXZ@@YAP6AXXZPEDS6AXXZ@Z 000000014002327c f i libvcruntime:purevirt.obj
 0001:00022284       _get_purecall_handler      0000000140023284 f   libvcruntime:purevirt.obj
 0001:00022290       _purecall                  0000000140023290 f   libvcruntime:purevirt.obj
 0001:000222b0       _set_purecall_handler      00000001400232b0 f   libvcruntime:purevirt.obj
 0001:000222c0       ??$?0AEAViterator@TryBlockMap4@FH4@@AEAV012@$0A@@?$pair@Viterator@TryBlockMap4@FH4@@V123@@std@@QEAA@AEAViterator@TryBlockMap4@FH4@@0@Z 00000001400232c0 f i libvcruntime:risctrnsctrl.obj
 0001:000222dc       ??$?0AEAViterator@TryBlockMap@__FrameHandler3@@AEAV012@$0A@@?$pair@Viterator@TryBlockMap@__FrameHandler3@@V123@@std@@QEAA@AEAViterator@TryBlockMap@__FrameHandler3@@0@Z 00000001400232dc f i libvcruntime:risctrnsctrl.obj
 0001:00022484       ??$_CallSETranslator@V__FrameHandler3@@@@YAHPEAUEHExceptionRecord@@PEA_KPEAU_CONTEXT@@PEAU_xDISPATCHER_CONTEXT@@PEBU_s_FuncInfo@@K1H@Z 0000000140023484 f i libvcruntime:risctrnsctrl.obj
 0001:000224ec       ??$_CallSETranslator@V__FrameHandler4@@@@YAHPEAUEHExceptionRecord@@PEA_KPEAU_CONTEXT@@PEAU_xDISPATCHER_CONTEXT@@PEAUFuncInfo4@FH4@@K1H@Z 00000001400234ec f i libvcruntime:risctrnsctrl.obj
 0001:00022554       ??$forward@AEAViterator@TryBlockMap4@FH4@@@std@@YAAEAViterator@TryBlockMap4@FH4@@AEAV123@@Z 0000000140023554 f i libvcruntime:risctrnsctrl.obj
 0001:00022558       ??$forward@AEAViterator@TryBlockMap@__FrameHandler3@@@std@@YAAEAViterator@TryBlockMap@__FrameHandler3@@AEAV123@@Z 0000000140023558 f i libvcruntime:risctrnsctrl.obj
 0001:0002255c       ??0FuncInfo4@FH4@@QEAA@XZ  000000014002355c f i libvcruntime:risctrnsctrl.obj
 0001:00022574       ??0FuncInfoHeader@FH4@@QEAA@XZ 0000000140023574 f i libvcruntime:risctrnsctrl.obj
 0001:0002257c       ??0iterator@TryBlockMap4@FH4@@QEAA@AEAV12@I@Z 000000014002357c f i libvcruntime:risctrnsctrl.obj
 0001:0002258c       ??0iterator@TryBlockMap@__FrameHandler3@@QEAA@AEAV12@I@Z 000000014002358c f i libvcruntime:risctrnsctrl.obj
 0001:0002259c       ??4iterator@TryBlockMap4@FH4@@QEAAAEAV012@AEBV012@@Z 000000014002359c f i libvcruntime:risctrnsctrl.obj
 0001:000225a8       ??9iterator@TryBlockMap4@FH4@@QEBA_NAEBV012@@Z 00000001400235a8 f i libvcruntime:risctrnsctrl.obj
 0001:000225b4       ??Diterator@TryBlockMap4@FH4@@QEAA?AUTryBlockMapEntry4@2@XZ 00000001400235b4 f i libvcruntime:risctrnsctrl.obj
 0001:000225c8       ??Eiterator@TryBlockMap4@FH4@@QEAAAEAV012@XZ 00000001400235c8 f i libvcruntime:risctrnsctrl.obj
 0001:0002268c       ?CatchTryBlock@__FrameHandler3@@SAPEBU_s_TryBlockMapEntry@@PEBU_s_FuncInfo@@H@Z 000000014002368c f   libvcruntime:risctrnsctrl.obj
 0001:00022708       ?DecompFuncInfo@FH4@@YA_JPEAEAEAUFuncInfo4@1@_KH@Z 0000000140023708 f i libvcruntime:risctrnsctrl.obj
 0001:00022720       ?DecompFuncInfo@FH4@@YA_JPEAEAEAUFuncInfo4@1@_KH_N@Z 0000000140023720 f i libvcruntime:risctrnsctrl.obj
 0001:0002288c       ?DecompTryBlock@TryBlockMap4@FH4@@AEAAXXZ 000000014002388c f i libvcruntime:risctrnsctrl.obj
 0001:00022944       ?ExecutionInCatch@__FrameHandler3@@SA_NPEAU_xDISPATCHER_CONTEXT@@PEBU_s_FuncInfo@@@Z 0000000140023944 f   libvcruntime:risctrnsctrl.obj
 0001:00022978       ?ExecutionInCatch@__FrameHandler4@@SA_NPEAU_xDISPATCHER_CONTEXT@@PEAUFuncInfo4@FH4@@@Z 0000000140023978 f   libvcruntime:risctrnsctrl.obj
 0001:00022980       ?FrameUnwindToEmptyState@__FrameHandler3@@SAXPEA_KPEAU_xDISPATCHER_CONTEXT@@PEBU_s_FuncInfo@@@Z 0000000140023980 f   libvcruntime:risctrnsctrl.obj
 0001:00022a00       ?FrameUnwindToEmptyState@__FrameHandler4@@SAXPEA_KPEAU_xDISPATCHER_CONTEXT@@PEAUFuncInfo4@FH4@@@Z 0000000140023a00 f   libvcruntime:risctrnsctrl.obj
 0001:00022a40       ?GetEstablisherFrame@__FrameHandler3@@SAPEA_KPEA_KPEAU_xDISPATCHER_CONTEXT@@PEBU_s_FuncInfo@@0@Z 0000000140023a40 f   libvcruntime:risctrnsctrl.obj
 0001:00022b40       ?GetEstablisherFrame@__FrameHandler4@@SAPEA_KPEA_KPEAU_xDISPATCHER_CONTEXT@@PEAUFuncInfo4@FH4@@0@Z 0000000140023b40 f   libvcruntime:risctrnsctrl.obj
 0001:00022b6c       ?GetRangeOfTrysToCheck@__FrameHandler3@@SA?AU?$pair@Viterator@TryBlockMap@__FrameHandler3@@V123@@std@@AEAVTryBlockMap@1@HPEAU_xDISPATCHER_CONTEXT@@PEBU_s_FuncInfo@@H@Z 0000000140023b6c f   libvcruntime:risctrnsctrl.obj
 0001:00022cfc       ?GetRangeOfTrysToCheck@__FrameHandler4@@SA?AU?$pair@Viterator@TryBlockMap4@FH4@@V123@@std@@AEAVTryBlockMap4@FH4@@HPEAU_xDISPATCHER_CONTEXT@@PEAUFuncInfo4@5@H@Z 0000000140023cfc f   libvcruntime:risctrnsctrl.obj
 0001:00022ec0       ?ReadInt@FH4@@YAHPEAPEAE@Z 0000000140023ec0 f i libvcruntime:risctrnsctrl.obj
 0001:00022ed0       ?ReadUnsigned@FH4@@YAIPEAPEAE@Z 0000000140023ed0 f i libvcruntime:risctrnsctrl.obj
 0001:00022f0c       ?UnwindNestedFrames@__FrameHandler3@@SAXPEA_KPEAUEHExceptionRecord@@PEAU_CONTEXT@@0PEAXPEBU_s_FuncInfo@@HHPEBU_s_HandlerType@@PEAU_xDISPATCHER_CONTEXT@@E@Z 0000000140023f0c f   libvcruntime:risctrnsctrl.obj
 0001:00023050       ?UnwindNestedFrames@__FrameHandler4@@SAXPEA_KPEAUEHExceptionRecord@@PEAU_CONTEXT@@0PEAXPEAUFuncInfo4@FH4@@HHPEAUHandlerType4@5@PEAU_xDISPATCHER_CONTEXT@@E@Z 0000000140024050 f   libvcruntime:risctrnsctrl.obj
 0001:000231b8       ?begin@TryBlockMap4@FH4@@QEAA?AViterator@12@XZ 00000001400241b8 f i libvcruntime:risctrnsctrl.obj
 0001:000231c8       ?end@TryBlockMap4@FH4@@QEAA?AViterator@12@XZ 00000001400241c8 f i libvcruntime:risctrnsctrl.obj
 0001:000231d8       ?imageRelToByteBuffer@FH4@@YAPEAE_KH@Z 00000001400241d8 f i libvcruntime:risctrnsctrl.obj
 0001:000231e0       ?incrementToSentinel@iterator@TryBlockMap4@FH4@@QEAAXXZ 00000001400241e0 f i libvcruntime:risctrnsctrl.obj
 0001:000231e4       ?setBuffer@TryBlockMap4@FH4@@QEAAXViterator@12@@Z 00000001400241e4 f i libvcruntime:risctrnsctrl.obj
 0001:00023418       _CreateFrameInfo           0000000140024418 f   libvcruntime:risctrnsctrl.obj
 0001:00023460       _FindAndUnlinkFrame        0000000140024460 f   libvcruntime:risctrnsctrl.obj
 0001:000234c8       _GetImageBase              00000001400244c8 f   libvcruntime:risctrnsctrl.obj
 0001:000234e0       _GetThrowImageBase         00000001400244e0 f   libvcruntime:risctrnsctrl.obj
 0001:000234f8       _SetImageBase              00000001400244f8 f   libvcruntime:risctrnsctrl.obj
 0001:00023518       _SetThrowImageBase         0000000140024518 f   libvcruntime:risctrnsctrl.obj
 0001:00023538       __CxxFrameHandler          0000000140024538 f   libvcruntime:risctrnsctrl.obj
 0001:00023540       __CxxFrameHandler2         0000000140024540 f   libvcruntime:risctrnsctrl.obj
 0001:00023548       __CxxFrameHandler3         0000000140024548 f   libvcruntime:risctrnsctrl.obj
 0001:000235f0       __CxxFrameHandler4         00000001400245f0 f   libvcruntime:risctrnsctrl.obj
 0001:000236f0       memcpy_repmovs             00000001400246f0 f   libvcruntime:memcpy.obj
 0001:00023710       memcpy                     0000000140024710 f   libvcruntime:memcpy.obj
 0001:00023710       memmove                    0000000140024710 f   libvcruntime:memcpy.obj
 0001:00023f30       ?GetCurrentState@__FrameHandler3@@SAHPEA_KPEAU_xDISPATCHER_CONTEXT@@PEBU_s_FuncInfo@@@Z 0000000140024f30 f   libvcruntime:ehstate.obj
 0001:00023f60       ?GetUnwindTryBlock@__FrameHandler3@@SAHPEA_KPEAU_xDISPATCHER_CONTEXT@@PEBU_s_FuncInfo@@@Z 0000000140024f60 f   libvcruntime:ehstate.obj
 0001:00023f94       ?SetState@__FrameHandler3@@SAXPEA_KPEBU_s_FuncInfo@@H@Z 0000000140024f94 f   libvcruntime:ehstate.obj
 0001:00023fa4       ?SetUnwindTryBlock@__FrameHandler3@@SAXPEA_KPEAU_xDISPATCHER_CONTEXT@@PEBU_s_FuncInfo@@H@Z 0000000140024fa4 f   libvcruntime:ehstate.obj
 0001:00023ff0       ?StateFromControlPc@__FrameHandler3@@SAHPEBU_s_FuncInfo@@PEAU_xDISPATCHER_CONTEXT@@@Z 0000000140024ff0 f   libvcruntime:ehstate.obj
 0001:00023ffc       ?StateFromControlPc@__FrameHandler4@@SAHPEAUFuncInfo4@FH4@@PEAU_xDISPATCHER_CONTEXT@@@Z 0000000140024ffc f   libvcruntime:ehstate.obj
 0001:00024008       ?StateFromIp@__FrameHandler3@@SAHPEBU_s_FuncInfo@@PEAU_xDISPATCHER_CONTEXT@@_K@Z 0000000140025008 f   libvcruntime:ehstate.obj
 0001:00024088       ?StateFromIp@__FrameHandler4@@SAHPEAUFuncInfo4@FH4@@PEAU_xDISPATCHER_CONTEXT@@_K@Z 0000000140025088 f   libvcruntime:ehstate.obj
 0001:000241b0       ?__FuncRelToRealOffset@@YA_KPEAU_xDISPATCHER_CONTEXT@@I@Z 00000001400251b0 f i libvcruntime:ehstate.obj
 0001:000241c4       ?__RVAtoRealOffset@@YA_KPEAU_xDISPATCHER_CONTEXT@@H@Z 00000001400251c4 f i libvcruntime:ehstate.obj
 0001:00025d60       ??$TypeMatchHelper@V__FrameHandler3@@@@YAHPEBU_s_HandlerType@@PEBU_s_CatchableType@@PEBU_s_ThrowInfo@@@Z 0000000140026d60 f i libvcruntime:frame.obj
 0001:00025eec       ??$TypeMatchHelper@V__FrameHandler4@@@@YAHPEAUHandlerType4@FH4@@PEBU_s_CatchableType@@PEBU_s_ThrowInfo@@@Z 0000000140026eec f i libvcruntime:frame.obj
 0001:00026080       ??$__InternalCxxFrameHandler@V__FrameHandler3@@@@YA?AW4_EXCEPTION_DISPOSITION@@PEAUEHExceptionRecord@@PEA_KPEAU_CONTEXT@@PEAU_xDISPATCHER_CONTEXT@@PEBU_s_FuncInfo@@H1E@Z 0000000140027080 f i libvcruntime:frame.obj
 0001:00026344       ??$__InternalCxxFrameHandler@V__FrameHandler4@@@@YA?AW4_EXCEPTION_DISPOSITION@@PEAUEHExceptionRecord@@PEA_KPEAU_CONTEXT@@PEAU_xDISPATCHER_CONTEXT@@PEAUFuncInfo4@FH4@@H1E@Z 0000000140027344 f i libvcruntime:frame.obj
 0001:00026680       ??0HandlerMap4@FH4@@QEAA@PEBUTryBlockMapEntry4@1@_KH@Z 0000000140027680 f i libvcruntime:frame.obj
 0001:00026718       ??0HandlerMap@__FrameHandler3@@QEAA@PEBU_s_TryBlockMapEntry@@_KI@Z 0000000140027718 f i libvcruntime:frame.obj
 0001:00026734       ??0HandlerType4@FH4@@QEAA@XZ 0000000140027734 f i libvcruntime:frame.obj
 0001:00026750       ??0TryBlockMap4@FH4@@QEAA@PEBUFuncInfo4@1@_K@Z 0000000140027750 f i libvcruntime:frame.obj
 0001:0002685c       ??0TryBlockMap@__FrameHandler3@@QEAA@PEBU_s_FuncInfo@@_K@Z 000000014002785c f i libvcruntime:frame.obj
 0001:0002686c       ??0UWMap4@FH4@@QEAA@PEBUFuncInfo4@1@_K@Z 000000014002786c f i libvcruntime:frame.obj
 0001:000268c0       ??0bad_exception@std@@QEAA@AEBV01@@Z 00000001400278c0 f i libvcruntime:frame.obj
 0001:0002690c       ??0bad_exception@std@@QEAA@XZ 000000014002790c f i libvcruntime:frame.obj
 0001:00026934       ??0exception@std@@QEAA@AEBV01@@Z 0000000140027934 f i libvcruntime:frame.obj
 0001:00026974       ??0exception@std@@QEAA@QEBDH@Z 0000000140027974 f i libvcruntime:frame.obj
 0001:00026990       ??0iterator@HandlerMap4@FH4@@QEAA@AEAV12@I@Z 0000000140027990 f i libvcruntime:frame.obj
 0001:000269a0       ??0iterator@HandlerMap@__FrameHandler3@@QEAA@AEAV12@I@Z 00000001400279a0 f i libvcruntime:frame.obj
 0001:000269b0       ??0iterator@UWMap4@FH4@@QEAA@AEAV12@PEAE@Z 00000001400279b0 f i libvcruntime:frame.obj
 0001:000269c0       ??1bad_exception@std@@UEAA@XZ 00000001400279c0 f i libvcruntime:frame.obj
 0001:000269d8       ??1exception@std@@UEAA@XZ  00000001400279d8 f i libvcruntime:frame.obj
 0001:000269f0       ??4iterator@UWMap4@FH4@@QEAAAEAV012@AEBV012@@Z 00000001400279f0 f i libvcruntime:frame.obj
 0001:00026a18       ??8iterator@HandlerMap4@FH4@@QEBA_NAEBV012@@Z 0000000140027a18 f i libvcruntime:frame.obj
 0001:00026a24       ??8iterator@HandlerMap@__FrameHandler3@@QEBA_NAEBV012@@Z 0000000140027a24 f i libvcruntime:frame.obj
 0001:00026a30       ??8type_info@@QEBA_NAEBV0@@Z 0000000140027a30 f i libvcruntime:frame.obj
 0001:00026a54       ??9iterator@HandlerMap4@FH4@@QEBA_NAEBV012@@Z 0000000140027a54 f i libvcruntime:frame.obj
 0001:00026a60       ??9iterator@HandlerMap@__FrameHandler3@@QEBA_NAEBV012@@Z 0000000140027a60 f i libvcruntime:frame.obj
 0001:00026a6c       ??Diterator@HandlerMap4@FH4@@QEAA?AUHandlerType4@2@XZ 0000000140027a6c f i libvcruntime:frame.obj
 0001:00026a94       ??Diterator@HandlerMap@__FrameHandler3@@QEAA?BU_s_HandlerType@@XZ 0000000140027a94 f i libvcruntime:frame.obj
 0001:00026ac0       ??Diterator@TryBlockMap@__FrameHandler3@@QEAA?BU_s_TryBlockMapEntry@@XZ 0000000140027ac0 f i libvcruntime:frame.obj
 0001:00026af8       ??Diterator@UWMap4@FH4@@QEAA?AUUnwindMapEntry4@2@XZ 0000000140027af8 f i libvcruntime:frame.obj
 0001:00026b60       ??Eiterator@HandlerMap4@FH4@@QEAAAEAV012@XZ 0000000140027b60 f i libvcruntime:frame.obj
 0001:00026b84       ??Eiterator@HandlerMap@__FrameHandler3@@QEAAAEAV012@XZ 0000000140027b84 f i libvcruntime:frame.obj
 0001:00026b8c       ??Eiterator@TryBlockMap@__FrameHandler3@@QEAAAEAV012@XZ 0000000140027b8c f i libvcruntime:frame.obj
 0001:00026b94       ??Eiterator@UWMap4@FH4@@QEAAAEAV012@XZ 0000000140027b94 f i libvcruntime:frame.obj
 0001:00026bbc       ??Giterator@UWMap4@FH4@@QEBA_JAEBV012@@Z 0000000140027bbc f i libvcruntime:frame.obj
 0001:00026bc8       ??Miterator@TryBlockMap4@FH4@@QEBA_NAEBV012@@Z 0000000140027bc8 f i libvcruntime:frame.obj
 0001:00026bd4       ??Miterator@TryBlockMap@__FrameHandler3@@QEBA_NAEBV012@@Z 0000000140027bd4 f i libvcruntime:frame.obj
 0001:00026be0       ??Oiterator@UWMap4@FH4@@QEBA_NAEBV012@@Z 0000000140027be0 f i libvcruntime:frame.obj
 0001:00026bf0       ??Piterator@UWMap4@FH4@@QEBA_NAEBV012@@Z 0000000140027bf0 f i libvcruntime:frame.obj
 0001:00026c00       ??_Ebad_exception@std@@UEAAPEAXI@Z 0000000140027c00 f i libvcruntime:frame.obj
 0001:00026c00       ??_Gbad_exception@std@@UEAAPEAXI@Z 0000000140027c00 f i libvcruntime:frame.obj
 0001:00026c54       ??_Eexception@std@@UEAAPEAXI@Z 0000000140027c54 f i libvcruntime:frame.obj
 0001:00026c54       ??_Gexception@std@@UEAAPEAXI@Z 0000000140027c54 f i libvcruntime:frame.obj
 0001:00026ca8       ?BuildCatchObject@__FrameHandler3@@SAXPEAUEHExceptionRecord@@PEAXPEBU_s_HandlerType@@PEBU_s_CatchableType@@@Z 0000000140027ca8 f   libvcruntime:frame.obj
 0001:00026cb0       ?BuildCatchObject@__FrameHandler4@@SAXPEAUEHExceptionRecord@@PEAXPEAUHandlerType4@FH4@@PEBU_s_CatchableType@@@Z 0000000140027cb0 f   libvcruntime:frame.obj
 0001:00026cb8       ?BuildCatchObjectHelper@__FrameHandler3@@SAHPEAUEHExceptionRecord@@PEAXPEBU_s_HandlerType@@PEBU_s_CatchableType@@@Z 0000000140027cb8 f   libvcruntime:frame.obj
 0001:00026cc0       ?BuildCatchObjectHelper@__FrameHandler4@@SAHPEAUEHExceptionRecord@@PEAXPEAUHandlerType4@FH4@@PEBU_s_CatchableType@@@Z 0000000140027cc0 f   libvcruntime:frame.obj
 0001:00026cc8       ?CxxCallCatchBlock@__FrameHandler3@@SAPEAXPEAU_EXCEPTION_RECORD@@@Z 0000000140027cc8 f   libvcruntime:frame.obj
 0001:00026f2c       ?CxxCallCatchBlock@__FrameHandler4@@SAPEAXPEAU_EXCEPTION_RECORD@@@Z 0000000140027f2c f   libvcruntime:frame.obj
 0001:00027210       ?DecompHandler@HandlerMap4@FH4@@AEAAXXZ 0000000140028210 f i libvcruntime:frame.obj
 0001:000274f0       ?FrameUnwindToState@__FrameHandler3@@SAXPEA_KPEAU_xDISPATCHER_CONTEXT@@PEBU_s_FuncInfo@@H@Z 00000001400284f0 f   libvcruntime:frame.obj
 0001:000276dc       ?FrameUnwindToState@__FrameHandler4@@SAXPEA_KPEAU_xDISPATCHER_CONTEXT@@PEAUFuncInfo4@FH4@@H@Z 00000001400286dc f   libvcruntime:frame.obj
 0001:00027a94       ?GetHandlerSearchState@__FrameHandler3@@SAHPEA_KPEAU_xDISPATCHER_CONTEXT@@PEBU_s_FuncInfo@@@Z 0000000140028a94 f i libvcruntime:frame.obj
 0001:00027b50       ?GetHandlerSearchState@__FrameHandler4@@SAHPEA_KPEAU_xDISPATCHER_CONTEXT@@PEAUFuncInfo4@FH4@@@Z 0000000140028b50 f i libvcruntime:frame.obj
 0001:00027bcc       ?GetMaxState@__FrameHandler3@@SAHPEAU_xDISPATCHER_CONTEXT@@PEBU_s_FuncInfo@@@Z 0000000140028bcc f i libvcruntime:frame.obj
 0001:00027bd0       ?GetMaxState@__FrameHandler4@@SAHPEAU_xDISPATCHER_CONTEXT@@PEAUFuncInfo4@FH4@@@Z 0000000140028bd0 f i libvcruntime:frame.obj
 0001:00027dec       ?ReadEntry@UWMap4@FH4@@AEAAXPEAPEAE@Z 0000000140028dec f i libvcruntime:frame.obj
 0001:00027eb0       ?TypeMatch@__FrameHandler3@@SAHPEBU_s_HandlerType@@PEBU_s_CatchableType@@PEBU_s_ThrowInfo@@@Z 0000000140028eb0 f   libvcruntime:frame.obj
 0001:00027eb8       ?TypeMatch@__FrameHandler4@@SAHPEAUHandlerType4@FH4@@PEBU_s_CatchableType@@PEBU_s_ThrowInfo@@@Z 0000000140028eb8 f   libvcruntime:frame.obj
 0001:00027ec0       ?WalkBack@UWMap4@FH4@@AEAAXPEAPEAE@Z 0000000140028ec0 f i libvcruntime:frame.obj
 0001:00027f04       ?WalkBack@iterator@UWMap4@FH4@@QEAAXXZ 0000000140028f04 f i libvcruntime:frame.obj
 0001:00027f50       ?WalkForward@UWMap4@FH4@@AEAAXPEAPEAE@Z 0000000140028f50 f i libvcruntime:frame.obj
 0001:00027f58       ?_CallMemberFunction1@@YAXQEAX00@Z 0000000140028f58 f i libvcruntime:frame.obj
 0001:00027f64       ?_CallMemberFunction2@@YAXQEAX00H@Z 0000000140028f64 f i libvcruntime:frame.obj
 0001:00027f94       ?begin@HandlerMap4@FH4@@QEAA?AViterator@12@XZ 0000000140028f94 f i libvcruntime:frame.obj
 0001:00027fa4       ?begin@HandlerMap@__FrameHandler3@@QEAA?AViterator@12@XZ 0000000140028fa4 f i libvcruntime:frame.obj
 0001:00027fb4       ?begin@UWMap4@FH4@@QEAA?AViterator@12@XZ 0000000140028fb4 f i libvcruntime:frame.obj
 0001:00027fc8       ?end@HandlerMap4@FH4@@QEAA?AViterator@12@XZ 0000000140028fc8 f i libvcruntime:frame.obj
 0001:00027fd8       ?end@HandlerMap@__FrameHandler3@@QEAA?AViterator@12@XZ 0000000140028fd8 f i libvcruntime:frame.obj
 0001:00027fe8       ?getESTypes@__FrameHandler3@@SAPEBU_s_ESTypeList@@PEBU_s_FuncInfo@@@Z 0000000140028fe8 f i libvcruntime:frame.obj
 0001:0002801c       ?getESTypes@__FrameHandler4@@SAPEBU_s_ESTypeList@@PEAUFuncInfo4@FH4@@@Z 000000014002901c f i libvcruntime:frame.obj
 0001:00028020       ?getLastEntry@HandlerMap4@FH4@@QEAAPEAUHandlerType4@2@XZ 0000000140029020 f i libvcruntime:frame.obj
 0001:00028084       ?getLastEntry@HandlerMap@__FrameHandler3@@QEAAPEBU_s_HandlerType@@XZ 0000000140029084 f i libvcruntime:frame.obj
 0001:0002809c       ?getMagicNum@__FrameHandler3@@SAIPEBU_s_FuncInfo@@@Z 000000014002909c f i libvcruntime:frame.obj
 0001:000280a8       ?getMagicNum@__FrameHandler4@@SAIPEAUFuncInfo4@FH4@@@Z 00000001400290a8 f i libvcruntime:frame.obj
 0001:000280b0       ?getNumTryBlocks@TryBlockMap4@FH4@@QEAAIXZ 00000001400290b0 f i libvcruntime:frame.obj
 0001:000280b4       ?getNumTryBlocks@TryBlockMap@__FrameHandler3@@QEAAIXZ 00000001400290b4 f i libvcruntime:frame.obj
 0001:000280bc       ?getStartStop@UWMap4@FH4@@QEAAXHHAEAViterator@12@0@Z 00000001400290bc f i libvcruntime:frame.obj
 0001:000281c0       ?getStateFromIterators@UWMap4@FH4@@SAHAEBViterator@12@H0H0@Z 00000001400291c0 f i libvcruntime:frame.obj
 0001:000282c0       ?isEHs@__FrameHandler3@@SA_NPEBU_s_FuncInfo@@@Z 00000001400292c0 f i libvcruntime:frame.obj
 0001:000282c8       ?isEHs@__FrameHandler4@@SA_NPEAUFuncInfo4@FH4@@@Z 00000001400292c8 f i libvcruntime:frame.obj
 0001:000282d4       ?isNoExcept@__FrameHandler3@@SA_NPEBU_s_FuncInfo@@@Z 00000001400292d4 f i libvcruntime:frame.obj
 0001:000282e0       ?isNoExcept@__FrameHandler4@@SA_NPEAUFuncInfo4@FH4@@@Z 00000001400292e0 f i libvcruntime:frame.obj
 0001:000282ec       ?reset@HandlerType4@FH4@@QEAAXXZ 00000001400292ec f i libvcruntime:frame.obj
 0001:00028308       ?resetBuffer@HandlerMap4@FH4@@QEAAXXZ 0000000140029308 f i libvcruntime:frame.obj
 0001:00028318       ?setBuffer@HandlerMap4@FH4@@QEAAXI@Z 0000000140029318 f i libvcruntime:frame.obj
 0001:00028360       ?what@exception@std@@UEBAPEBDXZ 0000000140029360 f i libvcruntime:frame.obj
 0001:00028378       __BuildCatchObject         0000000140029378 f   libvcruntime:frame.obj
 0001:00028380       __BuildCatchObjectHelper   0000000140029380 f   libvcruntime:frame.obj
 0001:00028388       __TypeMatch                0000000140029388 f   libvcruntime:frame.obj
 0001:00028390       __vcrt_EncodePointer       0000000140029390 f i libvcruntime:frame.obj
 0001:000283b0       _CallSettingFrame          00000001400293b0 f   libvcruntime:handlers.obj
 0001:00028400       _CallSettingFrame_LookupContinuationIndex 0000000140029400 f   libvcruntime:handlers.obj
 0001:00028430       _CallSettingFrame_NotifyContinuationAddr 0000000140029430 f   libvcruntime:handlers.obj
 0001:00028460       _CallSettingFrameEncoded   0000000140029460 f   libvcruntime:handlers.obj
 0001:000284e8       ??$?RD@__crt_public_free_policy@@QEBAXQEBD@Z 00000001400294e8 f i libvcruntime:std_exception.obj
 0001:000284f4       ??0?$__crt_unique_heap_ptr@DU__crt_public_free_policy@@@@QEAA@QEAD@Z 00000001400294f4 f i libvcruntime:std_exception.obj
 0001:000284fc       ??1?$__crt_unique_heap_ptr@DU__crt_public_free_policy@@@@QEAA@XZ 00000001400294fc f i libvcruntime:std_exception.obj
 0001:00028520       ??B?$__crt_unique_heap_ptr@DU__crt_public_free_policy@@@@QEBA_NXZ 0000000140029520 f i libvcruntime:std_exception.obj
 0001:0002852c       ?detach@?$__crt_unique_heap_ptr@DU__crt_public_free_policy@@@@QEAAPEADXZ 000000014002952c f i libvcruntime:std_exception.obj
 0001:00028538       ?get@?$__crt_unique_heap_ptr@DU__crt_public_free_policy@@@@QEBAPEADXZ 0000000140029538 f i libvcruntime:std_exception.obj
 0001:0002853c       ?is_valid@?$__crt_unique_heap_ptr@DU__crt_public_free_policy@@@@QEBA_NXZ 000000014002953c f i libvcruntime:std_exception.obj
 0001:00028548       ?release@?$__crt_unique_heap_ptr@DU__crt_public_free_policy@@@@QEAAXXZ 0000000140029548 f i libvcruntime:std_exception.obj
 0001:0002856c       __std_exception_copy       000000014002956c f   libvcruntime:std_exception.obj
 0001:0002861c       __std_exception_destroy    000000014002961c f   libvcruntime:std_exception.obj
 0001:0002864c       _CxxThrowException         000000014002964c f   libvcruntime:throw.obj
 0001:00028714       ??$?0AEBV?$stream_output_adapter@D@__crt_stdio_output@@AEB_KAEBQEBDAEBQEAU__crt_locale_pointers@@AEBQEAD@?$format_validation_base@DV?$stream_output_adapter@D@__crt_stdio_output@@@__crt_stdio_output@@IEAA@AEBV?$stream_output_adapter@D@1@AEB_KAEBQEBDAEBQEAU__crt_locale_pointers@@AEBQEAD@Z 0000000140029714 f i libucrt:output.obj
 0001:000287b8       ??$?0AEBV?$stream_output_adapter@D@__crt_stdio_output@@AEB_KAEBQEBDAEBQEAU__crt_locale_pointers@@AEBQEAD@?$positional_parameter_base@DV?$stream_output_adapter@D@__crt_stdio_output@@@__crt_stdio_output@@IEAA@AEBV?$stream_output_adapter@D@1@AEB_KAEBQEBDAEBQEAU__crt_locale_pointers@@AEBQEAD@Z 00000001400297b8 f i libucrt:output.obj
 0001:00028880       ??$?0AEBV?$stream_output_adapter@D@__crt_stdio_output@@AEB_KAEBQEBDAEBQEAU__crt_locale_pointers@@AEBQEAD@?$standard_base@DV?$stream_output_adapter@D@__crt_stdio_output@@@__crt_stdio_output@@IEAA@AEBV?$stream_output_adapter@D@1@AEB_KAEBQEBDAEBQEAU__crt_locale_pointers@@AEBQEAD@Z 0000000140029880 f i libucrt:output.obj
 0001:00028924       ??$?0AEBV?$stream_output_adapter@_W@__crt_stdio_output@@AEB_KAEBQEB_WAEBQEAU__crt_locale_pointers@@AEBQEAD@?$format_validation_base@_WV?$stream_output_adapter@_W@__crt_stdio_output@@@__crt_stdio_output@@IEAA@AEBV?$stream_output_adapter@_W@1@AEB_KAEBQEB_WAEBQEAU__crt_locale_pointers@@AEBQEAD@Z 0000000140029924 f i libucrt:output.obj
 0001:000289cc       ??$?0AEBV?$stream_output_adapter@_W@__crt_stdio_output@@AEB_KAEBQEB_WAEBQEAU__crt_locale_pointers@@AEBQEAD@?$positional_parameter_base@_WV?$stream_output_adapter@_W@__crt_stdio_output@@@__crt_stdio_output@@IEAA@AEBV?$stream_output_adapter@_W@1@AEB_KAEBQEB_WAEBQEAU__crt_locale_pointers@@AEBQEAD@Z 00000001400299cc f i libucrt:output.obj
 0001:00028a98       ??$?0AEBV?$stream_output_adapter@_W@__crt_stdio_output@@AEB_KAEBQEB_WAEBQEAU__crt_locale_pointers@@AEBQEAD@?$standard_base@_WV?$stream_output_adapter@_W@__crt_stdio_output@@@__crt_stdio_output@@IEAA@AEBV?$stream_output_adapter@_W@1@AEB_KAEBQEB_WAEBQEAU__crt_locale_pointers@@AEBQEAD@Z 0000000140029a98 f i libucrt:output.obj
 0001:00028b40       ??$?0AEBV?$string_output_adapter@D@__crt_stdio_output@@AEB_KAEBQEBDAEBQEAU__crt_locale_pointers@@AEBQEAD@?$format_validation_base@DV?$string_output_adapter@D@__crt_stdio_output@@@__crt_stdio_output@@IEAA@AEBV?$string_output_adapter@D@1@AEB_KAEBQEBDAEBQEAU__crt_locale_pointers@@AEBQEAD@Z 0000000140029b40 f i libucrt:output.obj
 0001:00028be4       ??$?0AEBV?$string_output_adapter@D@__crt_stdio_output@@AEB_KAEBQEBDAEBQEAU__crt_locale_pointers@@AEBQEAD@?$positional_parameter_base@DV?$string_output_adapter@D@__crt_stdio_output@@@__crt_stdio_output@@IEAA@AEBV?$string_output_adapter@D@1@AEB_KAEBQEBDAEBQEAU__crt_locale_pointers@@AEBQEAD@Z 0000000140029be4 f i libucrt:output.obj
 0001:00028cac       ??$?0AEBV?$string_output_adapter@D@__crt_stdio_output@@AEB_KAEBQEBDAEBQEAU__crt_locale_pointers@@AEBQEAD@?$standard_base@DV?$string_output_adapter@D@__crt_stdio_output@@@__crt_stdio_output@@IEAA@AEBV?$string_output_adapter@D@1@AEB_KAEBQEBDAEBQEAU__crt_locale_pointers@@AEBQEAD@Z 0000000140029cac f i libucrt:output.obj
 0001:00028d50       ??$?0AEBV?$string_output_adapter@_W@__crt_stdio_output@@AEB_KAEBQEB_WAEBQEAU__crt_locale_pointers@@AEBQEAD@?$format_validation_base@_WV?$string_output_adapter@_W@__crt_stdio_output@@@__crt_stdio_output@@IEAA@AEBV?$string_output_adapter@_W@1@AEB_KAEBQEB_WAEBQEAU__crt_locale_pointers@@AEBQEAD@Z 0000000140029d50 f i libucrt:output.obj
 0001:00028df8       ??$?0AEBV?$string_output_adapter@_W@__crt_stdio_output@@AEB_KAEBQEB_WAEBQEAU__crt_locale_pointers@@AEBQEAD@?$positional_parameter_base@_WV?$string_output_adapter@_W@__crt_stdio_output@@@__crt_stdio_output@@IEAA@AEBV?$string_output_adapter@_W@1@AEB_KAEBQEB_WAEBQEAU__crt_locale_pointers@@AEBQEAD@Z 0000000140029df8 f i libucrt:output.obj
 0001:00028ec4       ??$?0AEBV?$string_output_adapter@_W@__crt_stdio_output@@AEB_KAEBQEB_WAEBQEAU__crt_locale_pointers@@AEBQEAD@?$standard_base@_WV?$string_output_adapter@_W@__crt_stdio_output@@@__crt_stdio_output@@IEAA@AEBV?$string_output_adapter@_W@1@AEB_KAEBQEB_WAEBQEAU__crt_locale_pointers@@AEBQEAD@Z 0000000140029ec4 f i libucrt:output.obj
 0001:0002926c       ??$__crt_interlocked_read@J@@YAJPEDJ@Z 000000014002a26c f i libucrt:output.obj
 0001:0002a850       ??$count@D@formatting_buffer@__crt_stdio_output@@QEBA_KXZ 000000014002b850 f i libucrt:output.obj
 0001:0002a874       ??$count@_W@formatting_buffer@__crt_stdio_output@@QEBA_KXZ 000000014002b874 f i libucrt:output.obj
 0001:0002a898       ??$data@D@formatting_buffer@__crt_stdio_output@@QEAAPEADXZ 000000014002b898 f i libucrt:output.obj
 0001:0002a8ac       ??$data@_W@formatting_buffer@__crt_stdio_output@@QEAAPEA_WXZ 000000014002b8ac f i libucrt:output.obj
 0001:0002a8c0       ??$ensure_buffer_is_big_enough@D@formatting_buffer@__crt_stdio_output@@QEAA_N_K@Z 000000014002b8c0 f i libucrt:output.obj
 0001:0002a990       ??$ensure_buffer_is_big_enough@_W@formatting_buffer@__crt_stdio_output@@QEAA_N_K@Z 000000014002b990 f i libucrt:output.obj
 0001:0002aa64       ??$extract_argument_from_va_list@C_J@?$positional_parameter_base@DV?$stream_output_adapter@D@__crt_stdio_output@@@__crt_stdio_output@@IEAA_NAEA_J@Z 000000014002ba64 f i libucrt:output.obj
 0001:0002ab50       ??$extract_argument_from_va_list@C_J@?$positional_parameter_base@DV?$string_output_adapter@D@__crt_stdio_output@@@__crt_stdio_output@@IEAA_NAEA_J@Z 000000014002bb50 f i libucrt:output.obj
 0001:0002ac3c       ??$extract_argument_from_va_list@C_J@?$positional_parameter_base@_WV?$stream_output_adapter@_W@__crt_stdio_output@@@__crt_stdio_output@@IEAA_NAEA_J@Z 000000014002bc3c f i libucrt:output.obj
 0001:0002ad2c       ??$extract_argument_from_va_list@C_J@?$positional_parameter_base@_WV?$string_output_adapter@_W@__crt_stdio_output@@@__crt_stdio_output@@IEAA_NAEA_J@Z 000000014002bd2c f i libucrt:output.obj
 0001:0002ae1c       ??$extract_argument_from_va_list@C_J@?$standard_base@DV?$stream_output_adapter@D@__crt_stdio_output@@@__crt_stdio_output@@IEAA_NAEA_J@Z 000000014002be1c f i libucrt:output.obj
 0001:0002ae38       ??$extract_argument_from_va_list@C_J@?$standard_base@DV?$string_output_adapter@D@__crt_stdio_output@@@__crt_stdio_output@@IEAA_NAEA_J@Z 000000014002be38 f i libucrt:output.obj
 0001:0002ae54       ??$extract_argument_from_va_list@C_J@?$standard_base@_WV?$stream_output_adapter@_W@__crt_stdio_output@@@__crt_stdio_output@@IEAA_NAEA_J@Z 000000014002be54 f i libucrt:output.obj
 0001:0002ae70       ??$extract_argument_from_va_list@C_J@?$standard_base@_WV?$string_output_adapter@_W@__crt_stdio_output@@@__crt_stdio_output@@IEAA_NAEA_J@Z 000000014002be70 f i libucrt:output.obj
 0001:0002ae8c       ??$extract_argument_from_va_list@E_J@?$positional_parameter_base@DV?$stream_output_adapter@D@__crt_stdio_output@@@__crt_stdio_output@@IEAA_NAEA_J@Z 000000014002be8c f i libucrt:output.obj
 0001:0002af78       ??$extract_argument_from_va_list@E_J@?$positional_parameter_base@DV?$string_output_adapter@D@__crt_stdio_output@@@__crt_stdio_output@@IEAA_NAEA_J@Z 000000014002bf78 f i libucrt:output.obj
 0001:0002b064       ??$extract_argument_from_va_list@E_J@?$positional_parameter_base@_WV?$stream_output_adapter@_W@__crt_stdio_output@@@__crt_stdio_output@@IEAA_NAEA_J@Z 000000014002c064 f i libucrt:output.obj
 0001:0002b150       ??$extract_argument_from_va_list@E_J@?$positional_parameter_base@_WV?$string_output_adapter@_W@__crt_stdio_output@@@__crt_stdio_output@@IEAA_NAEA_J@Z 000000014002c150 f i libucrt:output.obj
 0001:0002b23c       ??$extract_argument_from_va_list@E_J@?$standard_base@DV?$stream_output_adapter@D@__crt_stdio_output@@@__crt_stdio_output@@IEAA_NAEA_J@Z 000000014002c23c f i libucrt:output.obj
 0001:0002b254       ??$extract_argument_from_va_list@E_J@?$standard_base@DV?$string_output_adapter@D@__crt_stdio_output@@@__crt_stdio_output@@IEAA_NAEA_J@Z 000000014002c254 f i libucrt:output.obj
 0001:0002b26c       ??$extract_argument_from_va_list@E_J@?$standard_base@_WV?$stream_output_adapter@_W@__crt_stdio_output@@@__crt_stdio_output@@IEAA_NAEA_J@Z 000000014002c26c f i libucrt:output.obj
 0001:0002b284       ??$extract_argument_from_va_list@E_J@?$standard_base@_WV?$string_output_adapter@_W@__crt_stdio_output@@@__crt_stdio_output@@IEAA_NAEA_J@Z 000000014002c284 f i libucrt:output.obj
 0001:0002b29c       ??$extract_argument_from_va_list@F_J@?$positional_parameter_base@DV?$stream_output_adapter@D@__crt_stdio_output@@@__crt_stdio_output@@IEAA_NAEA_J@Z 000000014002c29c f i libucrt:output.obj
 0001:0002b388       ??$extract_argument_from_va_list@F_J@?$positional_parameter_base@DV?$string_output_adapter@D@__crt_stdio_output@@@__crt_stdio_output@@IEAA_NAEA_J@Z 000000014002c388 f i libucrt:output.obj
 0001:0002b474       ??$extract_argument_from_va_list@F_J@?$positional_parameter_base@_WV?$stream_output_adapter@_W@__crt_stdio_output@@@__crt_stdio_output@@IEAA_NAEA_J@Z 000000014002c474 f i libucrt:output.obj
 0001:0002b564       ??$extract_argument_from_va_list@F_J@?$positional_parameter_base@_WV?$string_output_adapter@_W@__crt_stdio_output@@@__crt_stdio_output@@IEAA_NAEA_J@Z 000000014002c564 f i libucrt:output.obj
 0001:0002b654       ??$extract_argument_from_va_list@F_J@?$standard_base@DV?$stream_output_adapter@D@__crt_stdio_output@@@__crt_stdio_output@@IEAA_NAEA_J@Z 000000014002c654 f i libucrt:output.obj
 0001:0002b670       ??$extract_argument_from_va_list@F_J@?$standard_base@DV?$string_output_adapter@D@__crt_stdio_output@@@__crt_stdio_output@@IEAA_NAEA_J@Z 000000014002c670 f i libucrt:output.obj
 0001:0002b68c       ??$extract_argument_from_va_list@F_J@?$standard_base@_WV?$stream_output_adapter@_W@__crt_stdio_output@@@__crt_stdio_output@@IEAA_NAEA_J@Z 000000014002c68c f i libucrt:output.obj
 0001:0002b6a8       ??$extract_argument_from_va_list@F_J@?$standard_base@_WV?$string_output_adapter@_W@__crt_stdio_output@@@__crt_stdio_output@@IEAA_NAEA_J@Z 000000014002c6a8 f i libucrt:output.obj
 0001:0002b6c4       ??$extract_argument_from_va_list@GD@?$positional_parameter_base@DV?$stream_output_adapter@D@__crt_stdio_output@@@__crt_stdio_output@@IEAA_NAEAD@Z 000000014002c6c4 f i libucrt:output.obj
 0001:0002b7ac       ??$extract_argument_from_va_list@GD@?$positional_parameter_base@DV?$string_output_adapter@D@__crt_stdio_output@@@__crt_stdio_output@@IEAA_NAEAD@Z 000000014002c7ac f i libucrt:output.obj
 0001:0002b894       ??$extract_argument_from_va_list@GD@?$standard_base@DV?$stream_output_adapter@D@__crt_stdio_output@@@__crt_stdio_output@@IEAA_NAEAD@Z 000000014002c894 f i libucrt:output.obj
 0001:0002b8ac       ??$extract_argument_from_va_list@GD@?$standard_base@DV?$string_output_adapter@D@__crt_stdio_output@@@__crt_stdio_output@@IEAA_NAEAD@Z 000000014002c8ac f i libucrt:output.obj
 0001:0002b8c4       ??$extract_argument_from_va_list@G_J@?$positional_parameter_base@DV?$stream_output_adapter@D@__crt_stdio_output@@@__crt_stdio_output@@IEAA_NAEA_J@Z 000000014002c8c4 f i libucrt:output.obj
 0001:0002b9b0       ??$extract_argument_from_va_list@G_J@?$positional_parameter_base@DV?$string_output_adapter@D@__crt_stdio_output@@@__crt_stdio_output@@IEAA_NAEA_J@Z 000000014002c9b0 f i libucrt:output.obj
 0001:0002ba9c       ??$extract_argument_from_va_list@G_J@?$positional_parameter_base@_WV?$stream_output_adapter@_W@__crt_stdio_output@@@__crt_stdio_output@@IEAA_NAEA_J@Z 000000014002ca9c f i libucrt:output.obj
 0001:0002bb88       ??$extract_argument_from_va_list@G_J@?$positional_parameter_base@_WV?$string_output_adapter@_W@__crt_stdio_output@@@__crt_stdio_output@@IEAA_NAEA_J@Z 000000014002cb88 f i libucrt:output.obj
 0001:0002bc74       ??$extract_argument_from_va_list@G_J@?$standard_base@DV?$stream_output_adapter@D@__crt_stdio_output@@@__crt_stdio_output@@IEAA_NAEA_J@Z 000000014002cc74 f i libucrt:output.obj
 0001:0002bc8c       ??$extract_argument_from_va_list@G_J@?$standard_base@DV?$string_output_adapter@D@__crt_stdio_output@@@__crt_stdio_output@@IEAA_NAEA_J@Z 000000014002cc8c f i libucrt:output.obj
 0001:0002bca4       ??$extract_argument_from_va_list@G_J@?$standard_base@_WV?$stream_output_adapter@_W@__crt_stdio_output@@@__crt_stdio_output@@IEAA_NAEA_J@Z 000000014002cca4 f i libucrt:output.obj
 0001:0002bcbc       ??$extract_argument_from_va_list@G_J@?$standard_base@_WV?$string_output_adapter@_W@__crt_stdio_output@@@__crt_stdio_output@@IEAA_NAEA_J@Z 000000014002ccbc f i libucrt:output.obj
 0001:0002bcd4       ??$extract_argument_from_va_list@H_J@?$positional_parameter_base@DV?$stream_output_adapter@D@__crt_stdio_output@@@__crt_stdio_output@@IEAA_NAEA_J@Z 000000014002ccd4 f i libucrt:output.obj
 0001:0002bdbc       ??$extract_argument_from_va_list@H_J@?$positional_parameter_base@DV?$string_output_adapter@D@__crt_stdio_output@@@__crt_stdio_output@@IEAA_NAEA_J@Z 000000014002cdbc f i libucrt:output.obj
 0001:0002bea4       ??$extract_argument_from_va_list@H_J@?$positional_parameter_base@_WV?$stream_output_adapter@_W@__crt_stdio_output@@@__crt_stdio_output@@IEAA_NAEA_J@Z 000000014002cea4 f i libucrt:output.obj
 0001:0002bf90       ??$extract_argument_from_va_list@H_J@?$positional_parameter_base@_WV?$string_output_adapter@_W@__crt_stdio_output@@@__crt_stdio_output@@IEAA_NAEA_J@Z 000000014002cf90 f i libucrt:output.obj
 0001:0002c07c       ??$extract_argument_from_va_list@H_J@?$standard_base@DV?$stream_output_adapter@D@__crt_stdio_output@@@__crt_stdio_output@@IEAA_NAEA_J@Z 000000014002d07c f i libucrt:output.obj
 0001:0002c094       ??$extract_argument_from_va_list@H_J@?$standard_base@DV?$string_output_adapter@D@__crt_stdio_output@@@__crt_stdio_output@@IEAA_NAEA_J@Z 000000014002d094 f i libucrt:output.obj
 0001:0002c0ac       ??$extract_argument_from_va_list@H_J@?$standard_base@_WV?$stream_output_adapter@_W@__crt_stdio_output@@@__crt_stdio_output@@IEAA_NAEA_J@Z 000000014002d0ac f i libucrt:output.obj
 0001:0002c0c4       ??$extract_argument_from_va_list@H_J@?$standard_base@_WV?$string_output_adapter@_W@__crt_stdio_output@@@__crt_stdio_output@@IEAA_NAEA_J@Z 000000014002d0c4 f i libucrt:output.obj
 0001:0002c0dc       ??$extract_argument_from_va_list@I_J@?$positional_parameter_base@DV?$stream_output_adapter@D@__crt_stdio_output@@@__crt_stdio_output@@IEAA_NAEA_J@Z 000000014002d0dc f i libucrt:output.obj
 0001:0002c1c4       ??$extract_argument_from_va_list@I_J@?$positional_parameter_base@DV?$string_output_adapter@D@__crt_stdio_output@@@__crt_stdio_output@@IEAA_NAEA_J@Z 000000014002d1c4 f i libucrt:output.obj
 0001:0002c2ac       ??$extract_argument_from_va_list@I_J@?$positional_parameter_base@_WV?$stream_output_adapter@_W@__crt_stdio_output@@@__crt_stdio_output@@IEAA_NAEA_J@Z 000000014002d2ac f i libucrt:output.obj
 0001:0002c398       ??$extract_argument_from_va_list@I_J@?$positional_parameter_base@_WV?$string_output_adapter@_W@__crt_stdio_output@@@__crt_stdio_output@@IEAA_NAEA_J@Z 000000014002d398 f i libucrt:output.obj
 0001:0002c484       ??$extract_argument_from_va_list@I_J@?$standard_base@DV?$stream_output_adapter@D@__crt_stdio_output@@@__crt_stdio_output@@IEAA_NAEA_J@Z 000000014002d484 f i libucrt:output.obj
 0001:0002c49c       ??$extract_argument_from_va_list@I_J@?$standard_base@DV?$string_output_adapter@D@__crt_stdio_output@@@__crt_stdio_output@@IEAA_NAEA_J@Z 000000014002d49c f i libucrt:output.obj
 0001:0002c4b4       ??$extract_argument_from_va_list@I_J@?$standard_base@_WV?$stream_output_adapter@_W@__crt_stdio_output@@@__crt_stdio_output@@IEAA_NAEA_J@Z 000000014002d4b4 f i libucrt:output.obj
 0001:0002c4cc       ??$extract_argument_from_va_list@I_J@?$standard_base@_WV?$string_output_adapter@_W@__crt_stdio_output@@@__crt_stdio_output@@IEAA_NAEA_J@Z 000000014002d4cc f i libucrt:output.obj
 0001:0002c4e4       ??$extract_argument_from_va_list@PEADPEAD@?$positional_parameter_base@DV?$stream_output_adapter@D@__crt_stdio_output@@@__crt_stdio_output@@IEAA_NAEAPEAD@Z 000000014002d4e4 f i libucrt:output.obj
 0001:0002c5cc       ??$extract_argument_from_va_list@PEADPEAD@?$positional_parameter_base@DV?$string_output_adapter@D@__crt_stdio_output@@@__crt_stdio_output@@IEAA_NAEAPEAD@Z 000000014002d5cc f i libucrt:output.obj
 0001:0002c6b4       ??$extract_argument_from_va_list@PEADPEAD@?$positional_parameter_base@_WV?$stream_output_adapter@_W@__crt_stdio_output@@@__crt_stdio_output@@IEAA_NAEAPEAD@Z 000000014002d6b4 f i libucrt:output.obj
 0001:0002c7a0       ??$extract_argument_from_va_list@PEADPEAD@?$positional_parameter_base@_WV?$string_output_adapter@_W@__crt_stdio_output@@@__crt_stdio_output@@IEAA_NAEAPEAD@Z 000000014002d7a0 f i libucrt:output.obj
 0001:0002c88c       ??$extract_argument_from_va_list@PEADPEAD@?$standard_base@DV?$stream_output_adapter@D@__crt_stdio_output@@@__crt_stdio_output@@IEAA_NAEAPEAD@Z 000000014002d88c f i libucrt:output.obj
 0001:0002c8a4       ??$extract_argument_from_va_list@PEADPEAD@?$standard_base@DV?$string_output_adapter@D@__crt_stdio_output@@@__crt_stdio_output@@IEAA_NAEAPEAD@Z 000000014002d8a4 f i libucrt:output.obj
 0001:0002c8bc       ??$extract_argument_from_va_list@PEADPEAD@?$standard_base@_WV?$stream_output_adapter@_W@__crt_stdio_output@@@__crt_stdio_output@@IEAA_NAEAPEAD@Z 000000014002d8bc f i libucrt:output.obj
 0001:0002c8d4       ??$extract_argument_from_va_list@PEADPEAD@?$standard_base@_WV?$string_output_adapter@_W@__crt_stdio_output@@@__crt_stdio_output@@IEAA_NAEAPEAD@Z 000000014002d8d4 f i libucrt:output.obj
 0001:0002c8ec       ??$extract_argument_from_va_list@PEAUansi_string@?1??type_case_Z@?$output_processor@DV?$stream_output_adapter@D@__crt_stdio_output@@V?$format_validation_base@DV?$stream_output_adapter@D@__crt_stdio_output@@@2@@__crt_stdio_output@@AEAA_NXZ@PEAU1?1??234@AEAA_NXZ@@?$standard_base@DV?$stream_output_adapter@D@__crt_stdio_output@@@__crt_stdio_output@@IEAA_NAEAPEAUansi_string@?1??type_case_Z@?$output_processor@DV?$stream_output_adapter@D@__crt_stdio_output@@V?$format_validation_base@DV?$stream_output_adapter@D@__crt_stdio_output@@@2@@1@AEAA_NXZ@@Z 000000014002d8ec f i libucrt:output.obj
 0001:0002c904       ??$extract_argument_from_va_list@PEAUansi_string@?1??type_case_Z@?$output_processor@DV?$stream_output_adapter@D@__crt_stdio_output@@V?$positional_parameter_base@DV?$stream_output_adapter@D@__crt_stdio_output@@@2@@__crt_stdio_output@@AEAA_NXZ@PEAU1?1??234@AEAA_NXZ@@?$positional_parameter_base@DV?$stream_output_adapter@D@__crt_stdio_output@@@__crt_stdio_output@@IEAA_NAEAPEAUansi_string@?1??type_case_Z@?$output_processor@DV?$stream_output_adapter@D@__crt_stdio_output@@V?$positional_parameter_base@DV?$stream_output_adapter@D@__crt_stdio_output@@@2@@1@AEAA_NXZ@@Z 000000014002d904 f i libucrt:output.obj
 0001:0002c9ec       ??$extract_argument_from_va_list@PEAUansi_string@?1??type_case_Z@?$output_processor@DV?$stream_output_adapter@D@__crt_stdio_output@@V?$positional_parameter_base@DV?$stream_output_adapter@D@__crt_stdio_output@@@2@@__crt_stdio_output@@AEAA_NXZ@PEAU1?1??234@AEAA_NXZ@@?$standard_base@DV?$stream_output_adapter@D@__crt_stdio_output@@@__crt_stdio_output@@IEAA_NAEAPEAUansi_string@?1??type_case_Z@?$output_processor@DV?$stream_output_adapter@D@__crt_stdio_output@@V?$positional_parameter_base@DV?$stream_output_adapter@D@__crt_stdio_output@@@2@@1@AEAA_NXZ@@Z 000000014002d9ec f i libucrt:output.obj
 0001:0002ca04       ??$extract_argument_from_va_list@PEAUansi_string@?1??type_case_Z@?$output_processor@DV?$stream_output_adapter@D@__crt_stdio_output@@V?$standard_base@DV?$stream_output_adapter@D@__crt_stdio_output@@@2@@__crt_stdio_output@@AEAA_NXZ@PEAU1?1??234@AEAA_NXZ@@?$standard_base@DV?$stream_output_adapter@D@__crt_stdio_output@@@__crt_stdio_output@@IEAA_NAEAPEAUansi_string@?1??type_case_Z@?$output_processor@DV?$stream_output_adapter@D@__crt_stdio_output@@V?$standard_base@DV?$stream_output_adapter@D@__crt_stdio_output@@@2@@1@AEAA_NXZ@@Z 000000014002da04 f i libucrt:output.obj
 0001:0002ca1c       ??$extract_argument_from_va_list@PEAUansi_string@?1??type_case_Z@?$output_processor@DV?$string_output_adapter@D@__crt_stdio_output@@V?$format_validation_base@DV?$string_output_adapter@D@__crt_stdio_output@@@2@@__crt_stdio_output@@AEAA_NXZ@PEAU1?1??234@AEAA_NXZ@@?$standard_base@DV?$string_output_adapter@D@__crt_stdio_output@@@__crt_stdio_output@@IEAA_NAEAPEAUansi_string@?1??type_case_Z@?$output_processor@DV?$string_output_adapter@D@__crt_stdio_output@@V?$format_validation_base@DV?$string_output_adapter@D@__crt_stdio_output@@@2@@1@AEAA_NXZ@@Z 000000014002da1c f i libucrt:output.obj
 0001:0002ca34       ??$extract_argument_from_va_list@PEAUansi_string@?1??type_case_Z@?$output_processor@DV?$string_output_adapter@D@__crt_stdio_output@@V?$positional_parameter_base@DV?$string_output_adapter@D@__crt_stdio_output@@@2@@__crt_stdio_output@@AEAA_NXZ@PEAU1?1??234@AEAA_NXZ@@?$positional_parameter_base@DV?$string_output_adapter@D@__crt_stdio_output@@@__crt_stdio_output@@IEAA_NAEAPEAUansi_string@?1??type_case_Z@?$output_processor@DV?$string_output_adapter@D@__crt_stdio_output@@V?$positional_parameter_base@DV?$string_output_adapter@D@__crt_stdio_output@@@2@@1@AEAA_NXZ@@Z 000000014002da34 f i libucrt:output.obj
 0001:0002cb1c       ??$extract_argument_from_va_list@PEAUansi_string@?1??type_case_Z@?$output_processor@DV?$string_output_adapter@D@__crt_stdio_output@@V?$positional_parameter_base@DV?$string_output_adapter@D@__crt_stdio_output@@@2@@__crt_stdio_output@@AEAA_NXZ@PEAU1?1??234@AEAA_NXZ@@?$standard_base@DV?$string_output_adapter@D@__crt_stdio_output@@@__crt_stdio_output@@IEAA_NAEAPEAUansi_string@?1??type_case_Z@?$output_processor@DV?$string_output_adapter@D@__crt_stdio_output@@V?$positional_parameter_base@DV?$string_output_adapter@D@__crt_stdio_output@@@2@@1@AEAA_NXZ@@Z 000000014002db1c f i libucrt:output.obj
 0001:0002cb34       ??$extract_argument_from_va_list@PEAUansi_string@?1??type_case_Z@?$output_processor@DV?$string_output_adapter@D@__crt_stdio_output@@V?$standard_base@DV?$string_output_adapter@D@__crt_stdio_output@@@2@@__crt_stdio_output@@AEAA_NXZ@PEAU1?1??234@AEAA_NXZ@@?$standard_base@DV?$string_output_adapter@D@__crt_stdio_output@@@__crt_stdio_output@@IEAA_NAEAPEAUansi_string@?1??type_case_Z@?$output_processor@DV?$string_output_adapter@D@__crt_stdio_output@@V?$standard_base@DV?$string_output_adapter@D@__crt_stdio_output@@@2@@1@AEAA_NXZ@@Z 000000014002db34 f i libucrt:output.obj
 0001:0002cb4c       ??$extract_argument_from_va_list@PEAUansi_string@?1??type_case_Z@?$output_processor@_WV?$stream_output_adapter@_W@__crt_stdio_output@@V?$format_validation_base@_WV?$stream_output_adapter@_W@__crt_stdio_output@@@2@@__crt_stdio_output@@AEAA_NXZ@PEAU1?1??234@AEAA_NXZ@@?$standard_base@_WV?$stream_output_adapter@_W@__crt_stdio_output@@@__crt_stdio_output@@IEAA_NAEAPEAUansi_string@?1??type_case_Z@?$output_processor@_WV?$stream_output_adapter@_W@__crt_stdio_output@@V?$format_validation_base@_WV?$stream_output_adapter@_W@__crt_stdio_output@@@2@@1@AEAA_NXZ@@Z 000000014002db4c f i libucrt:output.obj
 0001:0002cb64       ??$extract_argument_from_va_list@PEAUansi_string@?1??type_case_Z@?$output_processor@_WV?$stream_output_adapter@_W@__crt_stdio_output@@V?$positional_parameter_base@_WV?$stream_output_adapter@_W@__crt_stdio_output@@@2@@__crt_stdio_output@@AEAA_NXZ@PEAU1?1??234@AEAA_NXZ@@?$positional_parameter_base@_WV?$stream_output_adapter@_W@__crt_stdio_output@@@__crt_stdio_output@@IEAA_NAEAPEAUansi_string@?1??type_case_Z@?$output_processor@_WV?$stream_output_adapter@_W@__crt_stdio_output@@V?$positional_parameter_base@_WV?$stream_output_adapter@_W@__crt_stdio_output@@@2@@1@AEAA_NXZ@@Z 000000014002db64 f i libucrt:output.obj
 0001:0002cc50       ??$extract_argument_from_va_list@PEAUansi_string@?1??type_case_Z@?$output_processor@_WV?$stream_output_adapter@_W@__crt_stdio_output@@V?$positional_parameter_base@_WV?$stream_output_adapter@_W@__crt_stdio_output@@@2@@__crt_stdio_output@@AEAA_NXZ@PEAU1?1??234@AEAA_NXZ@@?$standard_base@_WV?$stream_output_adapter@_W@__crt_stdio_output@@@__crt_stdio_output@@IEAA_NAEAPEAUansi_string@?1??type_case_Z@?$output_processor@_WV?$stream_output_adapter@_W@__crt_stdio_output@@V?$positional_parameter_base@_WV?$stream_output_adapter@_W@__crt_stdio_output@@@2@@1@AEAA_NXZ@@Z 000000014002dc50 f i libucrt:output.obj
 0001:0002cc68       ??$extract_argument_from_va_list@PEAUansi_string@?1??type_case_Z@?$output_processor@_WV?$stream_output_adapter@_W@__crt_stdio_output@@V?$standard_base@_WV?$stream_output_adapter@_W@__crt_stdio_output@@@2@@__crt_stdio_output@@AEAA_NXZ@PEAU1?1??234@AEAA_NXZ@@?$standard_base@_WV?$stream_output_adapter@_W@__crt_stdio_output@@@__crt_stdio_output@@IEAA_NAEAPEAUansi_string@?1??type_case_Z@?$output_processor@_WV?$stream_output_adapter@_W@__crt_stdio_output@@V?$standard_base@_WV?$stream_output_adapter@_W@__crt_stdio_output@@@2@@1@AEAA_NXZ@@Z 000000014002dc68 f i libucrt:output.obj
 0001:0002cc80       ??$extract_argument_from_va_list@PEAUansi_string@?1??type_case_Z@?$output_processor@_WV?$string_output_adapter@_W@__crt_stdio_output@@V?$format_validation_base@_WV?$string_output_adapter@_W@__crt_stdio_output@@@2@@__crt_stdio_output@@AEAA_NXZ@PEAU1?1??234@AEAA_NXZ@@?$standard_base@_WV?$string_output_adapter@_W@__crt_stdio_output@@@__crt_stdio_output@@IEAA_NAEAPEAUansi_string@?1??type_case_Z@?$output_processor@_WV?$string_output_adapter@_W@__crt_stdio_output@@V?$format_validation_base@_WV?$string_output_adapter@_W@__crt_stdio_output@@@2@@1@AEAA_NXZ@@Z 000000014002dc80 f i libucrt:output.obj
 0001:0002cc98       ??$extract_argument_from_va_list@PEAUansi_string@?1??type_case_Z@?$output_processor@_WV?$string_output_adapter@_W@__crt_stdio_output@@V?$positional_parameter_base@_WV?$string_output_adapter@_W@__crt_stdio_output@@@2@@__crt_stdio_output@@AEAA_NXZ@PEAU1?1??234@AEAA_NXZ@@?$positional_parameter_base@_WV?$string_output_adapter@_W@__crt_stdio_output@@@__crt_stdio_output@@IEAA_NAEAPEAUansi_string@?1??type_case_Z@?$output_processor@_WV?$string_output_adapter@_W@__crt_stdio_output@@V?$positional_parameter_base@_WV?$string_output_adapter@_W@__crt_stdio_output@@@2@@1@AEAA_NXZ@@Z 000000014002dc98 f i libucrt:output.obj
 0001:0002cd84       ??$extract_argument_from_va_list@PEAUansi_string@?1??type_case_Z@?$output_processor@_WV?$string_output_adapter@_W@__crt_stdio_output@@V?$positional_parameter_base@_WV?$string_output_adapter@_W@__crt_stdio_output@@@2@@__crt_stdio_output@@AEAA_NXZ@PEAU1?1??234@AEAA_NXZ@@?$standard_base@_WV?$string_output_adapter@_W@__crt_stdio_output@@@__crt_stdio_output@@IEAA_NAEAPEAUansi_string@?1??type_case_Z@?$output_processor@_WV?$string_output_adapter@_W@__crt_stdio_output@@V?$positional_parameter_base@_WV?$string_output_adapter@_W@__crt_stdio_output@@@2@@1@AEAA_NXZ@@Z 000000014002dd84 f i libucrt:output.obj
 0001:0002cd9c       ??$extract_argument_from_va_list@PEAUansi_string@?1??type_case_Z@?$output_processor@_WV?$string_output_adapter@_W@__crt_stdio_output@@V?$standard_base@_WV?$string_output_adapter@_W@__crt_stdio_output@@@2@@__crt_stdio_output@@AEAA_NXZ@PEAU1?1??234@AEAA_NXZ@@?$standard_base@_WV?$string_output_adapter@_W@__crt_stdio_output@@@__crt_stdio_output@@IEAA_NAEAPEAUansi_string@?1??type_case_Z@?$output_processor@_WV?$string_output_adapter@_W@__crt_stdio_output@@V?$standard_base@_WV?$string_output_adapter@_W@__crt_stdio_output@@@2@@1@AEAA_NXZ@@Z 000000014002dd9c f i libucrt:output.obj
 0001:0002cdb4       ??$extract_argument_from_va_list@PEAXPEAX@?$positional_parameter_base@DV?$stream_output_adapter@D@__crt_stdio_output@@@__crt_stdio_output@@IEAA_NAEAPEAX@Z 000000014002ddb4 f i libucrt:output.obj
 0001:0002ce9c       ??$extract_argument_from_va_list@PEAXPEAX@?$positional_parameter_base@DV?$string_output_adapter@D@__crt_stdio_output@@@__crt_stdio_output@@IEAA_NAEAPEAX@Z 000000014002de9c f i libucrt:output.obj
 0001:0002cf84       ??$extract_argument_from_va_list@PEAXPEAX@?$positional_parameter_base@_WV?$stream_output_adapter@_W@__crt_stdio_output@@@__crt_stdio_output@@IEAA_NAEAPEAX@Z 000000014002df84 f i libucrt:output.obj
 0001:0002d070       ??$extract_argument_from_va_list@PEAXPEAX@?$positional_parameter_base@_WV?$string_output_adapter@_W@__crt_stdio_output@@@__crt_stdio_output@@IEAA_NAEAPEAX@Z 000000014002e070 f i libucrt:output.obj
 0001:0002d15c       ??$extract_argument_from_va_list@PEAXPEAX@?$standard_base@DV?$stream_output_adapter@D@__crt_stdio_output@@@__crt_stdio_output@@IEAA_NAEAPEAX@Z 000000014002e15c f i libucrt:output.obj
 0001:0002d174       ??$extract_argument_from_va_list@PEAXPEAX@?$standard_base@DV?$string_output_adapter@D@__crt_stdio_output@@@__crt_stdio_output@@IEAA_NAEAPEAX@Z 000000014002e174 f i libucrt:output.obj
 0001:0002d18c       ??$extract_argument_from_va_list@PEAXPEAX@?$standard_base@_WV?$stream_output_adapter@_W@__crt_stdio_output@@@__crt_stdio_output@@IEAA_NAEAPEAX@Z 000000014002e18c f i libucrt:output.obj
 0001:0002d1a4       ??$extract_argument_from_va_list@PEAXPEAX@?$standard_base@_WV?$string_output_adapter@_W@__crt_stdio_output@@@__crt_stdio_output@@IEAA_NAEAPEAX@Z 000000014002e1a4 f i libucrt:output.obj
 0001:0002d1bc       ??$extract_argument_from_va_list@U_CRT_DOUBLE@@U1@@?$positional_parameter_base@DV?$stream_output_adapter@D@__crt_stdio_output@@@__crt_stdio_output@@IEAA_NAEAU_CRT_DOUBLE@@@Z 000000014002e1bc f i libucrt:output.obj
 0001:0002d2a4       ??$extract_argument_from_va_list@U_CRT_DOUBLE@@U1@@?$positional_parameter_base@DV?$string_output_adapter@D@__crt_stdio_output@@@__crt_stdio_output@@IEAA_NAEAU_CRT_DOUBLE@@@Z 000000014002e2a4 f i libucrt:output.obj
 0001:0002d38c       ??$extract_argument_from_va_list@U_CRT_DOUBLE@@U1@@?$positional_parameter_base@_WV?$stream_output_adapter@_W@__crt_stdio_output@@@__crt_stdio_output@@IEAA_NAEAU_CRT_DOUBLE@@@Z 000000014002e38c f i libucrt:output.obj
 0001:0002d478       ??$extract_argument_from_va_list@U_CRT_DOUBLE@@U1@@?$positional_parameter_base@_WV?$string_output_adapter@_W@__crt_stdio_output@@@__crt_stdio_output@@IEAA_NAEAU_CRT_DOUBLE@@@Z 000000014002e478 f i libucrt:output.obj
 0001:0002d564       ??$extract_argument_from_va_list@U_CRT_DOUBLE@@U1@@?$standard_base@DV?$stream_output_adapter@D@__crt_stdio_output@@@__crt_stdio_output@@IEAA_NAEAU_CRT_DOUBLE@@@Z 000000014002e564 f i libucrt:output.obj
 0001:0002d580       ??$extract_argument_from_va_list@U_CRT_DOUBLE@@U1@@?$standard_base@DV?$string_output_adapter@D@__crt_stdio_output@@@__crt_stdio_output@@IEAA_NAEAU_CRT_DOUBLE@@@Z 000000014002e580 f i libucrt:output.obj
 0001:0002d59c       ??$extract_argument_from_va_list@U_CRT_DOUBLE@@U1@@?$standard_base@_WV?$stream_output_adapter@_W@__crt_stdio_output@@@__crt_stdio_output@@IEAA_NAEAU_CRT_DOUBLE@@@Z 000000014002e59c f i libucrt:output.obj
 0001:0002d5b8       ??$extract_argument_from_va_list@U_CRT_DOUBLE@@U1@@?$standard_base@_WV?$string_output_adapter@_W@__crt_stdio_output@@@__crt_stdio_output@@IEAA_NAEAU_CRT_DOUBLE@@@Z 000000014002e5b8 f i libucrt:output.obj
 0001:0002d5d4       ??$extract_argument_from_va_list@_J_J@?$positional_parameter_base@DV?$stream_output_adapter@D@__crt_stdio_output@@@__crt_stdio_output@@IEAA_NAEA_J@Z 000000014002e5d4 f i libucrt:output.obj
 0001:0002d6bc       ??$extract_argument_from_va_list@_J_J@?$positional_parameter_base@DV?$string_output_adapter@D@__crt_stdio_output@@@__crt_stdio_output@@IEAA_NAEA_J@Z 000000014002e6bc f i libucrt:output.obj
 0001:0002d7a4       ??$extract_argument_from_va_list@_J_J@?$positional_parameter_base@_WV?$stream_output_adapter@_W@__crt_stdio_output@@@__crt_stdio_output@@IEAA_NAEA_J@Z 000000014002e7a4 f i libucrt:output.obj
 0001:0002d890       ??$extract_argument_from_va_list@_J_J@?$positional_parameter_base@_WV?$string_output_adapter@_W@__crt_stdio_output@@@__crt_stdio_output@@IEAA_NAEA_J@Z 000000014002e890 f i libucrt:output.obj
 0001:0002d97c       ??$extract_argument_from_va_list@_J_J@?$standard_base@DV?$stream_output_adapter@D@__crt_stdio_output@@@__crt_stdio_output@@IEAA_NAEA_J@Z 000000014002e97c f i libucrt:output.obj
 0001:0002d994       ??$extract_argument_from_va_list@_J_J@?$standard_base@DV?$string_output_adapter@D@__crt_stdio_output@@@__crt_stdio_output@@IEAA_NAEA_J@Z 000000014002e994 f i libucrt:output.obj
 0001:0002d9ac       ??$extract_argument_from_va_list@_J_J@?$standard_base@_WV?$stream_output_adapter@_W@__crt_stdio_output@@@__crt_stdio_output@@IEAA_NAEA_J@Z 000000014002e9ac f i libucrt:output.obj
 0001:0002d9c4       ??$extract_argument_from_va_list@_J_J@?$standard_base@_WV?$string_output_adapter@_W@__crt_stdio_output@@@__crt_stdio_output@@IEAA_NAEA_J@Z 000000014002e9c4 f i libucrt:output.obj
 0001:0002d9dc       ??$extract_argument_from_va_list@_K_J@?$positional_parameter_base@DV?$stream_output_adapter@D@__crt_stdio_output@@@__crt_stdio_output@@IEAA_NAEA_J@Z 000000014002e9dc f i libucrt:output.obj
 0001:0002dac4       ??$extract_argument_from_va_list@_K_J@?$positional_parameter_base@DV?$string_output_adapter@D@__crt_stdio_output@@@__crt_stdio_output@@IEAA_NAEA_J@Z 000000014002eac4 f i libucrt:output.obj
 0001:0002dbac       ??$extract_argument_from_va_list@_K_J@?$positional_parameter_base@_WV?$stream_output_adapter@_W@__crt_stdio_output@@@__crt_stdio_output@@IEAA_NAEA_J@Z 000000014002ebac f i libucrt:output.obj
 0001:0002dc98       ??$extract_argument_from_va_list@_K_J@?$positional_parameter_base@_WV?$string_output_adapter@_W@__crt_stdio_output@@@__crt_stdio_output@@IEAA_NAEA_J@Z 000000014002ec98 f i libucrt:output.obj
 0001:0002dd84       ??$extract_argument_from_va_list@_K_J@?$standard_base@DV?$stream_output_adapter@D@__crt_stdio_output@@@__crt_stdio_output@@IEAA_NAEA_J@Z 000000014002ed84 f i libucrt:output.obj
 0001:0002dd9c       ??$extract_argument_from_va_list@_K_J@?$standard_base@DV?$string_output_adapter@D@__crt_stdio_output@@@__crt_stdio_output@@IEAA_NAEA_J@Z 000000014002ed9c f i libucrt:output.obj
 0001:0002ddb4       ??$extract_argument_from_va_list@_K_J@?$standard_base@_WV?$stream_output_adapter@_W@__crt_stdio_output@@@__crt_stdio_output@@IEAA_NAEA_J@Z 000000014002edb4 f i libucrt:output.obj
 0001:0002ddcc       ??$extract_argument_from_va_list@_K_J@?$standard_base@_WV?$string_output_adapter@_W@__crt_stdio_output@@@__crt_stdio_output@@IEAA_NAEA_J@Z 000000014002edcc f i libucrt:output.obj
 0001:0002dde4       ??$extract_argument_from_va_list@_W_W@?$positional_parameter_base@DV?$stream_output_adapter@D@__crt_stdio_output@@@__crt_stdio_output@@IEAA_NAEA_W@Z 000000014002ede4 f i libucrt:output.obj
 0001:0002ded0       ??$extract_argument_from_va_list@_W_W@?$positional_parameter_base@DV?$string_output_adapter@D@__crt_stdio_output@@@__crt_stdio_output@@IEAA_NAEA_W@Z 000000014002eed0 f i libucrt:output.obj
 0001:0002dfbc       ??$extract_argument_from_va_list@_W_W@?$positional_parameter_base@_WV?$stream_output_adapter@_W@__crt_stdio_output@@@__crt_stdio_output@@IEAA_NAEA_W@Z 000000014002efbc f i libucrt:output.obj
 0001:0002e0ac       ??$extract_argument_from_va_list@_W_W@?$positional_parameter_base@_WV?$string_output_adapter@_W@__crt_stdio_output@@@__crt_stdio_output@@IEAA_NAEA_W@Z 000000014002f0ac f i libucrt:output.obj
 0001:0002e19c       ??$extract_argument_from_va_list@_W_W@?$standard_base@DV?$stream_output_adapter@D@__crt_stdio_output@@@__crt_stdio_output@@IEAA_NAEA_W@Z 000000014002f19c f i libucrt:output.obj
 0001:0002e1b4       ??$extract_argument_from_va_list@_W_W@?$standard_base@DV?$string_output_adapter@D@__crt_stdio_output@@@__crt_stdio_output@@IEAA_NAEA_W@Z 000000014002f1b4 f i libucrt:output.obj
 0001:0002e1cc       ??$extract_argument_from_va_list@_W_W@?$standard_base@_WV?$stream_output_adapter@_W@__crt_stdio_output@@@__crt_stdio_output@@IEAA_NAEA_W@Z 000000014002f1cc f i libucrt:output.obj
 0001:0002e1e4       ??$extract_argument_from_va_list@_W_W@?$standard_base@_WV?$string_output_adapter@_W@__crt_stdio_output@@@__crt_stdio_output@@IEAA_NAEA_W@Z 000000014002f1e4 f i libucrt:output.obj
 0001:0002e1fc       ??$get_parameter_type@D@?$positional_parameter_base@DV?$stream_output_adapter@D@__crt_stdio_output@@@__crt_stdio_output@@CA?AW4parameter_type@01@PEAD@Z 000000014002f1fc f i libucrt:output.obj
 0001:0002e204       ??$get_parameter_type@D@?$positional_parameter_base@DV?$string_output_adapter@D@__crt_stdio_output@@@__crt_stdio_output@@CA?AW4parameter_type@01@PEAD@Z 000000014002f204 f i libucrt:output.obj
 0001:0002e20c       ??$get_parameter_type@D@?$positional_parameter_base@_WV?$stream_output_adapter@_W@__crt_stdio_output@@@__crt_stdio_output@@CA?AW4parameter_type@01@PEAD@Z 000000014002f20c f i libucrt:output.obj
 0001:0002e214       ??$get_parameter_type@D@?$positional_parameter_base@_WV?$string_output_adapter@_W@__crt_stdio_output@@@__crt_stdio_output@@CA?AW4parameter_type@01@PEAD@Z 000000014002f214 f i libucrt:output.obj
 0001:0002e21c       ??$get_parameter_type@Uansi_string@?1??type_case_Z@?$output_processor@DV?$stream_output_adapter@D@__crt_stdio_output@@V?$positional_parameter_base@DV?$stream_output_adapter@D@__crt_stdio_output@@@2@@__crt_stdio_output@@AEAA_NXZ@@?$positional_parameter_base@DV?$stream_output_adapter@D@__crt_stdio_output@@@__crt_stdio_output@@CA?AW4parameter_type@01@PEAUansi_string@?1??type_case_Z@?$output_processor@DV?$stream_output_adapter@D@__crt_stdio_output@@V?$positional_parameter_base@DV?$stream_output_adapter@D@__crt_stdio_output@@@2@@1@AEAA_NXZ@@Z 000000014002f21c f i libucrt:output.obj
 0001:0002e224       ??$get_parameter_type@Uansi_string@?1??type_case_Z@?$output_processor@DV?$string_output_adapter@D@__crt_stdio_output@@V?$positional_parameter_base@DV?$string_output_adapter@D@__crt_stdio_output@@@2@@__crt_stdio_output@@AEAA_NXZ@@?$positional_parameter_base@DV?$string_output_adapter@D@__crt_stdio_output@@@__crt_stdio_output@@CA?AW4parameter_type@01@PEAUansi_string@?1??type_case_Z@?$output_processor@DV?$string_output_adapter@D@__crt_stdio_output@@V?$positional_parameter_base@DV?$string_output_adapter@D@__crt_stdio_output@@@2@@1@AEAA_NXZ@@Z 000000014002f224 f i libucrt:output.obj
 0001:0002e22c       ??$get_parameter_type@Uansi_string@?1??type_case_Z@?$output_processor@_WV?$stream_output_adapter@_W@__crt_stdio_output@@V?$positional_parameter_base@_WV?$stream_output_adapter@_W@__crt_stdio_output@@@2@@__crt_stdio_output@@AEAA_NXZ@@?$positional_parameter_base@_WV?$stream_output_adapter@_W@__crt_stdio_output@@@__crt_stdio_output@@CA?AW4parameter_type@01@PEAUansi_string@?1??type_case_Z@?$output_processor@_WV?$stream_output_adapter@_W@__crt_stdio_output@@V?$positional_parameter_base@_WV?$stream_output_adapter@_W@__crt_stdio_output@@@2@@1@AEAA_NXZ@@Z 000000014002f22c f i libucrt:output.obj
 0001:0002e234       ??$get_parameter_type@Uansi_string@?1??type_case_Z@?$output_processor@_WV?$string_output_adapter@_W@__crt_stdio_output@@V?$positional_parameter_base@_WV?$string_output_adapter@_W@__crt_stdio_output@@@2@@__crt_stdio_output@@AEAA_NXZ@@?$positional_parameter_base@_WV?$string_output_adapter@_W@__crt_stdio_output@@@__crt_stdio_output@@CA?AW4parameter_type@01@PEAUansi_string@?1??type_case_Z@?$output_processor@_WV?$string_output_adapter@_W@__crt_stdio_output@@V?$positional_parameter_base@_WV?$string_output_adapter@_W@__crt_stdio_output@@@2@@1@AEAA_NXZ@@Z 000000014002f234 f i libucrt:output.obj
 0001:0002e23c       ??$get_parameter_type@X@?$positional_parameter_base@DV?$stream_output_adapter@D@__crt_stdio_output@@@__crt_stdio_output@@CA?AW4parameter_type@01@PEAX@Z 000000014002f23c f i libucrt:output.obj
 0001:0002e244       ??$get_parameter_type@X@?$positional_parameter_base@DV?$string_output_adapter@D@__crt_stdio_output@@@__crt_stdio_output@@CA?AW4parameter_type@01@PEAX@Z 000000014002f244 f i libucrt:output.obj
 0001:0002e24c       ??$get_parameter_type@X@?$positional_parameter_base@_WV?$stream_output_adapter@_W@__crt_stdio_output@@@__crt_stdio_output@@CA?AW4parameter_type@01@PEAX@Z 000000014002f24c f i libucrt:output.obj
 0001:0002e254       ??$get_parameter_type@X@?$positional_parameter_base@_WV?$string_output_adapter@_W@__crt_stdio_output@@@__crt_stdio_output@@CA?AW4parameter_type@01@PEAX@Z 000000014002f254 f i libucrt:output.obj
 0001:0002e25c       ??$is_character_specifier@D@?$positional_parameter_base@DV?$stream_output_adapter@D@__crt_stdio_output@@@__crt_stdio_output@@CA_ND@Z 000000014002f25c f i libucrt:output.obj
 0001:0002e268       ??$is_character_specifier@D@?$positional_parameter_base@DV?$string_output_adapter@D@__crt_stdio_output@@@__crt_stdio_output@@CA_ND@Z 000000014002f268 f i libucrt:output.obj
 0001:0002e274       ??$is_character_specifier@_W@?$positional_parameter_base@_WV?$stream_output_adapter@_W@__crt_stdio_output@@@__crt_stdio_output@@CA_N_W@Z 000000014002f274 f i libucrt:output.obj
 0001:0002e288       ??$is_character_specifier@_W@?$positional_parameter_base@_WV?$string_output_adapter@_W@__crt_stdio_output@@@__crt_stdio_output@@CA_N_W@Z 000000014002f288 f i libucrt:output.obj
 0001:0002e29c       ??$is_integral_specifier@D@?$positional_parameter_base@DV?$stream_output_adapter@D@__crt_stdio_output@@@__crt_stdio_output@@CA_ND@Z 000000014002f29c f i libucrt:output.obj
 0001:0002e2c8       ??$is_integral_specifier@D@?$positional_parameter_base@DV?$string_output_adapter@D@__crt_stdio_output@@@__crt_stdio_output@@CA_ND@Z 000000014002f2c8 f i libucrt:output.obj
 0001:0002e2f4       ??$is_integral_specifier@_W@?$positional_parameter_base@_WV?$stream_output_adapter@_W@__crt_stdio_output@@@__crt_stdio_output@@CA_N_W@Z 000000014002f2f4 f i libucrt:output.obj
 0001:0002e324       ??$is_integral_specifier@_W@?$positional_parameter_base@_WV?$string_output_adapter@_W@__crt_stdio_output@@@__crt_stdio_output@@CA_N_W@Z 000000014002f324 f i libucrt:output.obj
 0001:0002e354       ??$is_pointer_specifier@D@?$positional_parameter_base@DV?$stream_output_adapter@D@__crt_stdio_output@@@__crt_stdio_output@@CA_ND@Z 000000014002f354 f i libucrt:output.obj
 0001:0002e35c       ??$is_pointer_specifier@D@?$positional_parameter_base@DV?$string_output_adapter@D@__crt_stdio_output@@@__crt_stdio_output@@CA_ND@Z 000000014002f35c f i libucrt:output.obj
 0001:0002e364       ??$is_pointer_specifier@_W@?$positional_parameter_base@_WV?$stream_output_adapter@_W@__crt_stdio_output@@@__crt_stdio_output@@CA_N_W@Z 000000014002f364 f i libucrt:output.obj
 0001:0002e370       ??$is_pointer_specifier@_W@?$positional_parameter_base@_WV?$string_output_adapter@_W@__crt_stdio_output@@@__crt_stdio_output@@CA_N_W@Z 000000014002f370 f i libucrt:output.obj
 0001:0002e37c       ??$is_string_specifier@D@?$positional_parameter_base@DV?$stream_output_adapter@D@__crt_stdio_output@@@__crt_stdio_output@@CA_ND@Z 000000014002f37c f i libucrt:output.obj
 0001:0002e388       ??$is_string_specifier@D@?$positional_parameter_base@DV?$string_output_adapter@D@__crt_stdio_output@@@__crt_stdio_output@@CA_ND@Z 000000014002f388 f i libucrt:output.obj
 0001:0002e394       ??$is_string_specifier@_W@?$positional_parameter_base@_WV?$stream_output_adapter@_W@__crt_stdio_output@@@__crt_stdio_output@@CA_N_W@Z 000000014002f394 f i libucrt:output.obj
 0001:0002e3a8       ??$is_string_specifier@_W@?$positional_parameter_base@_WV?$string_output_adapter@_W@__crt_stdio_output@@@__crt_stdio_output@@CA_N_W@Z 000000014002f3a8 f i libucrt:output.obj
 0001:0002e3bc       ??$is_wide_character_specifier@D@__crt_stdio_output@@YA_N_KDW4length_modifier@0@@Z 000000014002f3bc f i libucrt:output.obj
 0001:0002e3f0       ??$is_wide_character_specifier@_W@__crt_stdio_output@@YA_N_K_WW4length_modifier@0@@Z 000000014002f3f0 f i libucrt:output.obj
 0001:0002e440       ??$peek_va_arg@C@__crt_stdio_output@@YACPEAD@Z 000000014002f440 f i libucrt:output.obj
 0001:0002e444       ??$peek_va_arg@E@__crt_stdio_output@@YAEPEAD@Z 000000014002f444 f i libucrt:output.obj
 0001:0002e448       ??$peek_va_arg@F@__crt_stdio_output@@YAFPEAD@Z 000000014002f448 f i libucrt:output.obj
 0001:0002e44c       ??$peek_va_arg@G@__crt_stdio_output@@YAGPEAD@Z 000000014002f44c f i libucrt:output.obj
 0001:0002e450       ??$peek_va_arg@H@__crt_stdio_output@@YAHPEAD@Z 000000014002f450 f i libucrt:output.obj
 0001:0002e454       ??$peek_va_arg@I@__crt_stdio_output@@YAIPEAD@Z 000000014002f454 f i libucrt:output.obj
 0001:0002e458       ??$peek_va_arg@PEAD@__crt_stdio_output@@YAPEADPEAD@Z 000000014002f458 f i libucrt:output.obj
 0001:0002e45c       ??$peek_va_arg@PEAUansi_string@?1??type_case_Z@?$output_processor@DV?$stream_output_adapter@D@__crt_stdio_output@@V?$positional_parameter_base@DV?$stream_output_adapter@D@__crt_stdio_output@@@2@@__crt_stdio_output@@AEAA_NXZ@@__crt_stdio_output@@YAPEAUansi_string@?1??type_case_Z@?$output_processor@DV?$stream_output_adapter@D@__crt_stdio_output@@V?$positional_parameter_base@DV?$stream_output_adapter@D@__crt_stdio_output@@@2@@0@AEAA_NXZ@PEAD@Z 000000014002f45c f i libucrt:output.obj
 0001:0002e460       ??$peek_va_arg@PEAUansi_string@?1??type_case_Z@?$output_processor@DV?$string_output_adapter@D@__crt_stdio_output@@V?$positional_parameter_base@DV?$string_output_adapter@D@__crt_stdio_output@@@2@@__crt_stdio_output@@AEAA_NXZ@@__crt_stdio_output@@YAPEAUansi_string@?1??type_case_Z@?$output_processor@DV?$string_output_adapter@D@__crt_stdio_output@@V?$positional_parameter_base@DV?$string_output_adapter@D@__crt_stdio_output@@@2@@0@AEAA_NXZ@PEAD@Z 000000014002f460 f i libucrt:output.obj
 0001:0002e464       ??$peek_va_arg@PEAUansi_string@?1??type_case_Z@?$output_processor@_WV?$stream_output_adapter@_W@__crt_stdio_output@@V?$positional_parameter_base@_WV?$stream_output_adapter@_W@__crt_stdio_output@@@2@@__crt_stdio_output@@AEAA_NXZ@@__crt_stdio_output@@YAPEAUansi_string@?1??type_case_Z@?$output_processor@_WV?$stream_output_adapter@_W@__crt_stdio_output@@V?$positional_parameter_base@_WV?$stream_output_adapter@_W@__crt_stdio_output@@@2@@0@AEAA_NXZ@PEAD@Z 000000014002f464 f i libucrt:output.obj
 0001:0002e468       ??$peek_va_arg@PEAUansi_string@?1??type_case_Z@?$output_processor@_WV?$string_output_adapter@_W@__crt_stdio_output@@V?$positional_parameter_base@_WV?$string_output_adapter@_W@__crt_stdio_output@@@2@@__crt_stdio_output@@AEAA_NXZ@@__crt_stdio_output@@YAPEAUansi_string@?1??type_case_Z@?$output_processor@_WV?$string_output_adapter@_W@__crt_stdio_output@@V?$positional_parameter_base@_WV?$string_output_adapter@_W@__crt_stdio_output@@@2@@0@AEAA_NXZ@PEAD@Z 000000014002f468 f i libucrt:output.obj
 0001:0002e46c       ??$peek_va_arg@PEAX@__crt_stdio_output@@YAPEAXPEAD@Z 000000014002f46c f i libucrt:output.obj
 0001:0002e470       ??$peek_va_arg@U_CRT_DOUBLE@@@__crt_stdio_output@@YA?AU_CRT_DOUBLE@@PEAD@Z 000000014002f470 f i libucrt:output.obj
 0001:0002e474       ??$peek_va_arg@_J@__crt_stdio_output@@YA_JPEAD@Z 000000014002f474 f i libucrt:output.obj
 0001:0002e478       ??$peek_va_arg@_K@__crt_stdio_output@@YA_KPEAD@Z 000000014002f478 f i libucrt:output.obj
 0001:0002e47c       ??$peek_va_arg@_W@__crt_stdio_output@@YA_WPEAD@Z 000000014002f47c f i libucrt:output.obj
 0001:0002e480       ??$puttc_nolock@AEBDPEAU_iobuf@@@?$__crt_char_traits@D@@SAHAEBD$$QEAPEAU_iobuf@@@Z 000000014002f480 f i libucrt:output.obj
 0001:0002e490       ??$puttc_nolock@AEB_WPEAU_iobuf@@@?$__crt_char_traits@_W@@SAGAEB_W$$QEAPEAU_iobuf@@@Z 000000014002f490 f i libucrt:output.obj
 0001:0002e4a0       ??$read_va_arg@C@__crt_stdio_output@@YACAEAPEAD@Z 000000014002f4a0 f i libucrt:output.obj
 0001:0002e4b0       ??$read_va_arg@E@__crt_stdio_output@@YAEAEAPEAD@Z 000000014002f4b0 f i libucrt:output.obj
 0001:0002e4c0       ??$read_va_arg@F@__crt_stdio_output@@YAFAEAPEAD@Z 000000014002f4c0 f i libucrt:output.obj
 0001:0002e4d0       ??$read_va_arg@G@__crt_stdio_output@@YAGAEAPEAD@Z 000000014002f4d0 f i libucrt:output.obj
 0001:0002e4e0       ??$read_va_arg@H@__crt_stdio_output@@YAHAEAPEAD@Z 000000014002f4e0 f i libucrt:output.obj
 0001:0002e4f0       ??$read_va_arg@I@__crt_stdio_output@@YAIAEAPEAD@Z 000000014002f4f0 f i libucrt:output.obj
 0001:0002e500       ??$read_va_arg@PEAD@__crt_stdio_output@@YAPEADAEAPEAD@Z 000000014002f500 f i libucrt:output.obj
 0001:0002e510       ??$read_va_arg@PEAUansi_string@?1??type_case_Z@?$output_processor@DV?$stream_output_adapter@D@__crt_stdio_output@@V?$format_validation_base@DV?$stream_output_adapter@D@__crt_stdio_output@@@2@@__crt_stdio_output@@AEAA_NXZ@@__crt_stdio_output@@YAPEAUansi_string@?1??type_case_Z@?$output_processor@DV?$stream_output_adapter@D@__crt_stdio_output@@V?$format_validation_base@DV?$stream_output_adapter@D@__crt_stdio_output@@@2@@0@AEAA_NXZ@AEAPEAD@Z 000000014002f510 f i libucrt:output.obj
 0001:0002e520       ??$read_va_arg@PEAUansi_string@?1??type_case_Z@?$output_processor@DV?$stream_output_adapter@D@__crt_stdio_output@@V?$positional_parameter_base@DV?$stream_output_adapter@D@__crt_stdio_output@@@2@@__crt_stdio_output@@AEAA_NXZ@@__crt_stdio_output@@YAPEAUansi_string@?1??type_case_Z@?$output_processor@DV?$stream_output_adapter@D@__crt_stdio_output@@V?$positional_parameter_base@DV?$stream_output_adapter@D@__crt_stdio_output@@@2@@0@AEAA_NXZ@AEAPEAD@Z 000000014002f520 f i libucrt:output.obj
 0001:0002e530       ??$read_va_arg@PEAUansi_string@?1??type_case_Z@?$output_processor@DV?$stream_output_adapter@D@__crt_stdio_output@@V?$standard_base@DV?$stream_output_adapter@D@__crt_stdio_output@@@2@@__crt_stdio_output@@AEAA_NXZ@@__crt_stdio_output@@YAPEAUansi_string@?1??type_case_Z@?$output_processor@DV?$stream_output_adapter@D@__crt_stdio_output@@V?$standard_base@DV?$stream_output_adapter@D@__crt_stdio_output@@@2@@0@AEAA_NXZ@AEAPEAD@Z 000000014002f530 f i libucrt:output.obj
 0001:0002e540       ??$read_va_arg@PEAUansi_string@?1??type_case_Z@?$output_processor@DV?$string_output_adapter@D@__crt_stdio_output@@V?$format_validation_base@DV?$string_output_adapter@D@__crt_stdio_output@@@2@@__crt_stdio_output@@AEAA_NXZ@@__crt_stdio_output@@YAPEAUansi_string@?1??type_case_Z@?$output_processor@DV?$string_output_adapter@D@__crt_stdio_output@@V?$format_validation_base@DV?$string_output_adapter@D@__crt_stdio_output@@@2@@0@AEAA_NXZ@AEAPEAD@Z 000000014002f540 f i libucrt:output.obj
 0001:0002e550       ??$read_va_arg@PEAUansi_string@?1??type_case_Z@?$output_processor@DV?$string_output_adapter@D@__crt_stdio_output@@V?$positional_parameter_base@DV?$string_output_adapter@D@__crt_stdio_output@@@2@@__crt_stdio_output@@AEAA_NXZ@@__crt_stdio_output@@YAPEAUansi_string@?1??type_case_Z@?$output_processor@DV?$string_output_adapter@D@__crt_stdio_output@@V?$positional_parameter_base@DV?$string_output_adapter@D@__crt_stdio_output@@@2@@0@AEAA_NXZ@AEAPEAD@Z 000000014002f550 f i libucrt:output.obj
 0001:0002e560       ??$read_va_arg@PEAUansi_string@?1??type_case_Z@?$output_processor@DV?$string_output_adapter@D@__crt_stdio_output@@V?$standard_base@DV?$string_output_adapter@D@__crt_stdio_output@@@2@@__crt_stdio_output@@AEAA_NXZ@@__crt_stdio_output@@YAPEAUansi_string@?1??type_case_Z@?$output_processor@DV?$string_output_adapter@D@__crt_stdio_output@@V?$standard_base@DV?$string_output_adapter@D@__crt_stdio_output@@@2@@0@AEAA_NXZ@AEAPEAD@Z 000000014002f560 f i libucrt:output.obj
 0001:0002e570       ??$read_va_arg@PEAUansi_string@?1??type_case_Z@?$output_processor@_WV?$stream_output_adapter@_W@__crt_stdio_output@@V?$format_validation_base@_WV?$stream_output_adapter@_W@__crt_stdio_output@@@2@@__crt_stdio_output@@AEAA_NXZ@@__crt_stdio_output@@YAPEAUansi_string@?1??type_case_Z@?$output_processor@_WV?$stream_output_adapter@_W@__crt_stdio_output@@V?$format_validation_base@_WV?$stream_output_adapter@_W@__crt_stdio_output@@@2@@0@AEAA_NXZ@AEAPEAD@Z 000000014002f570 f i libucrt:output.obj
 0001:0002e580       ??$read_va_arg@PEAUansi_string@?1??type_case_Z@?$output_processor@_WV?$stream_output_adapter@_W@__crt_stdio_output@@V?$positional_parameter_base@_WV?$stream_output_adapter@_W@__crt_stdio_output@@@2@@__crt_stdio_output@@AEAA_NXZ@@__crt_stdio_output@@YAPEAUansi_string@?1??type_case_Z@?$output_processor@_WV?$stream_output_adapter@_W@__crt_stdio_output@@V?$positional_parameter_base@_WV?$stream_output_adapter@_W@__crt_stdio_output@@@2@@0@AEAA_NXZ@AEAPEAD@Z 000000014002f580 f i libucrt:output.obj
 0001:0002e590       ??$read_va_arg@PEAUansi_string@?1??type_case_Z@?$output_processor@_WV?$stream_output_adapter@_W@__crt_stdio_output@@V?$standard_base@_WV?$stream_output_adapter@_W@__crt_stdio_output@@@2@@__crt_stdio_output@@AEAA_NXZ@@__crt_stdio_output@@YAPEAUansi_string@?1??type_case_Z@?$output_processor@_WV?$stream_output_adapter@_W@__crt_stdio_output@@V?$standard_base@_WV?$stream_output_adapter@_W@__crt_stdio_output@@@2@@0@AEAA_NXZ@AEAPEAD@Z 000000014002f590 f i libucrt:output.obj
 0001:0002e5a0       ??$read_va_arg@PEAUansi_string@?1??type_case_Z@?$output_processor@_WV?$string_output_adapter@_W@__crt_stdio_output@@V?$format_validation_base@_WV?$string_output_adapter@_W@__crt_stdio_output@@@2@@__crt_stdio_output@@AEAA_NXZ@@__crt_stdio_output@@YAPEAUansi_string@?1??type_case_Z@?$output_processor@_WV?$string_output_adapter@_W@__crt_stdio_output@@V?$format_validation_base@_WV?$string_output_adapter@_W@__crt_stdio_output@@@2@@0@AEAA_NXZ@AEAPEAD@Z 000000014002f5a0 f i libucrt:output.obj
 0001:0002e5b0       ??$read_va_arg@PEAUansi_string@?1??type_case_Z@?$output_processor@_WV?$string_output_adapter@_W@__crt_stdio_output@@V?$positional_parameter_base@_WV?$string_output_adapter@_W@__crt_stdio_output@@@2@@__crt_stdio_output@@AEAA_NXZ@@__crt_stdio_output@@YAPEAUansi_string@?1??type_case_Z@?$output_processor@_WV?$string_output_adapter@_W@__crt_stdio_output@@V?$positional_parameter_base@_WV?$string_output_adapter@_W@__crt_stdio_output@@@2@@0@AEAA_NXZ@AEAPEAD@Z 000000014002f5b0 f i libucrt:output.obj
 0001:0002e5c0       ??$read_va_arg@PEAUansi_string@?1??type_case_Z@?$output_processor@_WV?$string_output_adapter@_W@__crt_stdio_output@@V?$standard_base@_WV?$string_output_adapter@_W@__crt_stdio_output@@@2@@__crt_stdio_output@@AEAA_NXZ@@__crt_stdio_output@@YAPEAUansi_string@?1??type_case_Z@?$output_processor@_WV?$string_output_adapter@_W@__crt_stdio_output@@V?$standard_base@_WV?$string_output_adapter@_W@__crt_stdio_output@@@2@@0@AEAA_NXZ@AEAPEAD@Z 000000014002f5c0 f i libucrt:output.obj
 0001:0002e5d0       ??$read_va_arg@PEAX@__crt_stdio_output@@YAPEAXAEAPEAD@Z 000000014002f5d0 f i libucrt:output.obj
 0001:0002e5e0       ??$read_va_arg@U_CRT_DOUBLE@@@__crt_stdio_output@@YA?AU_CRT_DOUBLE@@AEAPEAD@Z 000000014002f5e0 f i libucrt:output.obj
 0001:0002e5f0       ??$read_va_arg@_J@__crt_stdio_output@@YA_JAEAPEAD@Z 000000014002f5f0 f i libucrt:output.obj
 0001:0002e600       ??$read_va_arg@_K@__crt_stdio_output@@YA_KAEAPEAD@Z 000000014002f600 f i libucrt:output.obj
 0001:0002e610       ??$read_va_arg@_W@__crt_stdio_output@@YA_WAEAPEAD@Z 000000014002f610 f i libucrt:output.obj
 0001:0002e620       ??$scratch_count@D@formatting_buffer@__crt_stdio_output@@QEBA_KXZ 000000014002f620 f i libucrt:output.obj
 0001:0002e644       ??$scratch_data@D@formatting_buffer@__crt_stdio_output@@QEAAPEADXZ 000000014002f644 f i libucrt:output.obj
 0001:0002e670       ??$tcstol@AEAPEBDPEAPEADH@?$__crt_char_traits@D@@SAJAEAPEBD$$QEAPEAPEAD$$QEAH@Z 000000014002f670 f i libucrt:output.obj
 0001:0002e684       ??$tcstol@AEAPEB_WPEAPEA_WH@?$__crt_char_traits@_W@@SAJAEAPEB_W$$QEAPEAPEA_W$$QEAH@Z 000000014002f684 f i libucrt:output.obj
 0001:0002e698       ??$tcstol@PEBDPEAPEADH@?$__crt_char_traits@D@@SAJ$$QEAPEBD$$QEAPEAPEAD$$QEAH@Z 000000014002f698 f i libucrt:output.obj
 0001:0002e6ac       ??$tcstol@PEB_WPEAPEA_WH@?$__crt_char_traits@_W@@SAJ$$QEAPEB_W$$QEAPEAPEA_W$$QEAH@Z 000000014002f6ac f i libucrt:output.obj
 0001:0002e6c0       ??$type_case_integer_parse_into_buffer@I@?$output_processor@DV?$stream_output_adapter@D@__crt_stdio_output@@V?$format_validation_base@DV?$stream_output_adapter@D@__crt_stdio_output@@@2@@__crt_stdio_output@@AEAAXII_N@Z 000000014002f6c0 f i libucrt:output.obj
 0001:0002e768       ??$type_case_integer_parse_into_buffer@I@?$output_processor@DV?$stream_output_adapter@D@__crt_stdio_output@@V?$positional_parameter_base@DV?$stream_output_adapter@D@__crt_stdio_output@@@2@@__crt_stdio_output@@AEAAXII_N@Z 000000014002f768 f i libucrt:output.obj
 0001:0002e810       ??$type_case_integer_parse_into_buffer@I@?$output_processor@DV?$stream_output_adapter@D@__crt_stdio_output@@V?$standard_base@DV?$stream_output_adapter@D@__crt_stdio_output@@@2@@__crt_stdio_output@@AEAAXII_N@Z 000000014002f810 f i libucrt:output.obj
 0001:0002e8b8       ??$type_case_integer_parse_into_buffer@I@?$output_processor@DV?$string_output_adapter@D@__crt_stdio_output@@V?$format_validation_base@DV?$string_output_adapter@D@__crt_stdio_output@@@2@@__crt_stdio_output@@AEAAXII_N@Z 000000014002f8b8 f i libucrt:output.obj
 0001:0002e960       ??$type_case_integer_parse_into_buffer@I@?$output_processor@DV?$string_output_adapter@D@__crt_stdio_output@@V?$positional_parameter_base@DV?$string_output_adapter@D@__crt_stdio_output@@@2@@__crt_stdio_output@@AEAAXII_N@Z 000000014002f960 f i libucrt:output.obj
 0001:0002ea08       ??$type_case_integer_parse_into_buffer@I@?$output_processor@DV?$string_output_adapter@D@__crt_stdio_output@@V?$standard_base@DV?$string_output_adapter@D@__crt_stdio_output@@@2@@__crt_stdio_output@@AEAAXII_N@Z 000000014002fa08 f i libucrt:output.obj
 0001:0002eab0       ??$type_case_integer_parse_into_buffer@I@?$output_processor@_WV?$stream_output_adapter@_W@__crt_stdio_output@@V?$format_validation_base@_WV?$stream_output_adapter@_W@__crt_stdio_output@@@2@@__crt_stdio_output@@AEAAXII_N@Z 000000014002fab0 f i libucrt:output.obj
 0001:0002eb7c       ??$type_case_integer_parse_into_buffer@I@?$output_processor@_WV?$stream_output_adapter@_W@__crt_stdio_output@@V?$positional_parameter_base@_WV?$stream_output_adapter@_W@__crt_stdio_output@@@2@@__crt_stdio_output@@AEAAXII_N@Z 000000014002fb7c f i libucrt:output.obj
 0001:0002ec48       ??$type_case_integer_parse_into_buffer@I@?$output_processor@_WV?$stream_output_adapter@_W@__crt_stdio_output@@V?$standard_base@_WV?$stream_output_adapter@_W@__crt_stdio_output@@@2@@__crt_stdio_output@@AEAAXII_N@Z 000000014002fc48 f i libucrt:output.obj
 0001:0002ed14       ??$type_case_integer_parse_into_buffer@I@?$output_processor@_WV?$string_output_adapter@_W@__crt_stdio_output@@V?$format_validation_base@_WV?$string_output_adapter@_W@__crt_stdio_output@@@2@@__crt_stdio_output@@AEAAXII_N@Z 000000014002fd14 f i libucrt:output.obj
 0001:0002ede0       ??$type_case_integer_parse_into_buffer@I@?$output_processor@_WV?$string_output_adapter@_W@__crt_stdio_output@@V?$positional_parameter_base@_WV?$string_output_adapter@_W@__crt_stdio_output@@@2@@__crt_stdio_output@@AEAAXII_N@Z 000000014002fde0 f i libucrt:output.obj
 0001:0002eeac       ??$type_case_integer_parse_into_buffer@I@?$output_processor@_WV?$string_output_adapter@_W@__crt_stdio_output@@V?$standard_base@_WV?$string_output_adapter@_W@__crt_stdio_output@@@2@@__crt_stdio_output@@AEAAXII_N@Z 000000014002feac f i libucrt:output.obj
 0001:0002ef78       ??$type_case_integer_parse_into_buffer@_K@?$output_processor@DV?$stream_output_adapter@D@__crt_stdio_output@@V?$format_validation_base@DV?$stream_output_adapter@D@__crt_stdio_output@@@2@@__crt_stdio_output@@AEAAX_KI_N@Z 000000014002ff78 f i libucrt:output.obj
 0001:0002f028       ??$type_case_integer_parse_into_buffer@_K@?$output_processor@DV?$stream_output_adapter@D@__crt_stdio_output@@V?$positional_parameter_base@DV?$stream_output_adapter@D@__crt_stdio_output@@@2@@__crt_stdio_output@@AEAAX_KI_N@Z 0000000140030028 f i libucrt:output.obj
 0001:0002f0d8       ??$type_case_integer_parse_into_buffer@_K@?$output_processor@DV?$stream_output_adapter@D@__crt_stdio_output@@V?$standard_base@DV?$stream_output_adapter@D@__crt_stdio_output@@@2@@__crt_stdio_output@@AEAAX_KI_N@Z 00000001400300d8 f i libucrt:output.obj
 0001:0002f188       ??$type_case_integer_parse_into_buffer@_K@?$output_processor@DV?$string_output_adapter@D@__crt_stdio_output@@V?$format_validation_base@DV?$string_output_adapter@D@__crt_stdio_output@@@2@@__crt_stdio_output@@AEAAX_KI_N@Z 0000000140030188 f i libucrt:output.obj
 0001:0002f238       ??$type_case_integer_parse_into_buffer@_K@?$output_processor@DV?$string_output_adapter@D@__crt_stdio_output@@V?$positional_parameter_base@DV?$string_output_adapter@D@__crt_stdio_output@@@2@@__crt_stdio_output@@AEAAX_KI_N@Z 0000000140030238 f i libucrt:output.obj
 0001:0002f2e8       ??$type_case_integer_parse_into_buffer@_K@?$output_processor@DV?$string_output_adapter@D@__crt_stdio_output@@V?$standard_base@DV?$string_output_adapter@D@__crt_stdio_output@@@2@@__crt_stdio_output@@AEAAX_KI_N@Z 00000001400302e8 f i libucrt:output.obj
 0001:0002f398       ??$type_case_integer_parse_into_buffer@_K@?$output_processor@_WV?$stream_output_adapter@_W@__crt_stdio_output@@V?$format_validation_base@_WV?$stream_output_adapter@_W@__crt_stdio_output@@@2@@__crt_stdio_output@@AEAAX_KI_N@Z 0000000140030398 f i libucrt:output.obj
 0001:0002f468       ??$type_case_integer_parse_into_buffer@_K@?$output_processor@_WV?$stream_output_adapter@_W@__crt_stdio_output@@V?$positional_parameter_base@_WV?$stream_output_adapter@_W@__crt_stdio_output@@@2@@__crt_stdio_output@@AEAAX_KI_N@Z 0000000140030468 f i libucrt:output.obj
 0001:0002f538       ??$type_case_integer_parse_into_buffer@_K@?$output_processor@_WV?$stream_output_adapter@_W@__crt_stdio_output@@V?$standard_base@_WV?$stream_output_adapter@_W@__crt_stdio_output@@@2@@__crt_stdio_output@@AEAAX_KI_N@Z 0000000140030538 f i libucrt:output.obj
 0001:0002f608       ??$type_case_integer_parse_into_buffer@_K@?$output_processor@_WV?$string_output_adapter@_W@__crt_stdio_output@@V?$format_validation_base@_WV?$string_output_adapter@_W@__crt_stdio_output@@@2@@__crt_stdio_output@@AEAAX_KI_N@Z 0000000140030608 f i libucrt:output.obj
 0001:0002f6d8       ??$type_case_integer_parse_into_buffer@_K@?$output_processor@_WV?$string_output_adapter@_W@__crt_stdio_output@@V?$positional_parameter_base@_WV?$string_output_adapter@_W@__crt_stdio_output@@@2@@__crt_stdio_output@@AEAAX_KI_N@Z 00000001400306d8 f i libucrt:output.obj
 0001:0002f7a8       ??$type_case_integer_parse_into_buffer@_K@?$output_processor@_WV?$string_output_adapter@_W@__crt_stdio_output@@V?$standard_base@_WV?$string_output_adapter@_W@__crt_stdio_output@@@2@@__crt_stdio_output@@AEAAX_KI_N@Z 00000001400307a8 f i libucrt:output.obj
 0001:0002f878       ??$write_multiple_characters@V?$stream_output_adapter@D@__crt_stdio_output@@D@__crt_stdio_output@@YAXAEBV?$stream_output_adapter@D@0@DHQEAH@Z 0000000140030878 f i libucrt:output.obj
 0001:0002f928       ??$write_multiple_characters@V?$stream_output_adapter@_W@__crt_stdio_output@@D@__crt_stdio_output@@YAXAEBV?$stream_output_adapter@_W@0@DHQEAH@Z 0000000140030928 f i libucrt:output.obj
 0001:0002f9e0       ??$write_multiple_characters@V?$string_output_adapter@D@__crt_stdio_output@@D@__crt_stdio_output@@YAXAEBV?$string_output_adapter@D@0@DHQEAH@Z 00000001400309e0 f i libucrt:output.obj
 0001:0002fa74       ??$write_multiple_characters@V?$string_output_adapter@_W@__crt_stdio_output@@D@__crt_stdio_output@@YAXAEBV?$string_output_adapter@_W@0@DHQEAH@Z 0000000140030a74 f i libucrt:output.obj
 0001:0002fca0       ??0?$common_data@D@__crt_stdio_output@@IEAA@XZ 0000000140030ca0 f i libucrt:output.obj
 0001:0002fcec       ??0?$common_data@_W@__crt_stdio_output@@IEAA@XZ 0000000140030cec f i libucrt:output.obj
 0001:0002fd3c       ??0?$output_adapter_data@DV?$stream_output_adapter@D@__crt_stdio_output@@@__crt_stdio_output@@IEAA@AEBV?$stream_output_adapter@D@1@_KQEBDQEAU__crt_locale_pointers@@QEAD@Z 0000000140030d3c f i libucrt:output.obj
 0001:0002fdb4       ??0?$output_adapter_data@DV?$string_output_adapter@D@__crt_stdio_output@@@__crt_stdio_output@@IEAA@AEBV?$string_output_adapter@D@1@_KQEBDQEAU__crt_locale_pointers@@QEAD@Z 0000000140030db4 f i libucrt:output.obj
 0001:0002fe2c       ??0?$output_adapter_data@_WV?$stream_output_adapter@_W@__crt_stdio_output@@@__crt_stdio_output@@IEAA@AEBV?$stream_output_adapter@_W@1@_KQEB_WQEAU__crt_locale_pointers@@QEAD@Z 0000000140030e2c f i libucrt:output.obj
 0001:0002fea8       ??0?$output_adapter_data@_WV?$string_output_adapter@_W@__crt_stdio_output@@@__crt_stdio_output@@IEAA@AEBV?$string_output_adapter@_W@1@_KQEB_WQEAU__crt_locale_pointers@@QEAD@Z 0000000140030ea8 f i libucrt:output.obj
 0001:0002ff24       ??0?$output_processor@DV?$stream_output_adapter@D@__crt_stdio_output@@V?$format_validation_base@DV?$stream_output_adapter@D@__crt_stdio_output@@@2@@__crt_stdio_output@@QEAA@AEBV?$stream_output_adapter@D@1@_KQEBDQEAU__crt_locale_pointers@@QEAD@Z 0000000140030f24 f i libucrt:output.obj
 0001:0002ffac       ??0?$output_processor@DV?$stream_output_adapter@D@__crt_stdio_output@@V?$positional_parameter_base@DV?$stream_output_adapter@D@__crt_stdio_output@@@2@@__crt_stdio_output@@QEAA@AEBV?$stream_output_adapter@D@1@_KQEBDQEAU__crt_locale_pointers@@QEAD@Z 0000000140030fac f i libucrt:output.obj
 0001:00030058       ??0?$output_processor@DV?$stream_output_adapter@D@__crt_stdio_output@@V?$standard_base@DV?$stream_output_adapter@D@__crt_stdio_output@@@2@@__crt_stdio_output@@QEAA@AEBV?$stream_output_adapter@D@1@_KQEBDQEAU__crt_locale_pointers@@QEAD@Z 0000000140031058 f i libucrt:output.obj
 0001:000300e0       ??0?$output_processor@DV?$string_output_adapter@D@__crt_stdio_output@@V?$format_validation_base@DV?$string_output_adapter@D@__crt_stdio_output@@@2@@__crt_stdio_output@@QEAA@AEBV?$string_output_adapter@D@1@_KQEBDQEAU__crt_locale_pointers@@QEAD@Z 00000001400310e0 f i libucrt:output.obj
 0001:00030168       ??0?$output_processor@DV?$string_output_adapter@D@__crt_stdio_output@@V?$positional_parameter_base@DV?$string_output_adapter@D@__crt_stdio_output@@@2@@__crt_stdio_output@@QEAA@AEBV?$string_output_adapter@D@1@_KQEBDQEAU__crt_locale_pointers@@QEAD@Z 0000000140031168 f i libucrt:output.obj
 0001:00030214       ??0?$output_processor@DV?$string_output_adapter@D@__crt_stdio_output@@V?$standard_base@DV?$string_output_adapter@D@__crt_stdio_output@@@2@@__crt_stdio_output@@QEAA@AEBV?$string_output_adapter@D@1@_KQEBDQEAU__crt_locale_pointers@@QEAD@Z 0000000140031214 f i libucrt:output.obj
 0001:0003029c       ??0?$output_processor@_WV?$stream_output_adapter@_W@__crt_stdio_output@@V?$format_validation_base@_WV?$stream_output_adapter@_W@__crt_stdio_output@@@2@@__crt_stdio_output@@QEAA@AEBV?$stream_output_adapter@_W@1@_KQEB_WQEAU__crt_locale_pointers@@QEAD@Z 000000014003129c f i libucrt:output.obj
 0001:00030328       ??0?$output_processor@_WV?$stream_output_adapter@_W@__crt_stdio_output@@V?$positional_parameter_base@_WV?$stream_output_adapter@_W@__crt_stdio_output@@@2@@__crt_stdio_output@@QEAA@AEBV?$stream_output_adapter@_W@1@_KQEB_WQEAU__crt_locale_pointers@@QEAD@Z 0000000140031328 f i libucrt:output.obj
 0001:000303d8       ??0?$output_processor@_WV?$stream_output_adapter@_W@__crt_stdio_output@@V?$standard_base@_WV?$stream_output_adapter@_W@__crt_stdio_output@@@2@@__crt_stdio_output@@QEAA@AEBV?$stream_output_adapter@_W@1@_KQEB_WQEAU__crt_locale_pointers@@QEAD@Z 00000001400313d8 f i libucrt:output.obj
 0001:00030464       ??0?$output_processor@_WV?$string_output_adapter@_W@__crt_stdio_output@@V?$format_validation_base@_WV?$string_output_adapter@_W@__crt_stdio_output@@@2@@__crt_stdio_output@@QEAA@AEBV?$string_output_adapter@_W@1@_KQEB_WQEAU__crt_locale_pointers@@QEAD@Z 0000000140031464 f i libucrt:output.obj
 0001:000304f0       ??0?$output_processor@_WV?$string_output_adapter@_W@__crt_stdio_output@@V?$positional_parameter_base@_WV?$string_output_adapter@_W@__crt_stdio_output@@@2@@__crt_stdio_output@@QEAA@AEBV?$string_output_adapter@_W@1@_KQEB_WQEAU__crt_locale_pointers@@QEAD@Z 00000001400314f0 f i libucrt:output.obj
 0001:000305a0       ??0?$output_processor@_WV?$string_output_adapter@_W@__crt_stdio_output@@V?$standard_base@_WV?$string_output_adapter@_W@__crt_stdio_output@@@2@@__crt_stdio_output@@QEAA@AEBV?$string_output_adapter@_W@1@_KQEB_WQEAU__crt_locale_pointers@@QEAD@Z 00000001400315a0 f i libucrt:output.obj
 0001:0003062c       ??0?$stream_output_adapter@D@__crt_stdio_output@@QEAA@QEAU_iobuf@@@Z 000000014003162c f i libucrt:output.obj
 0001:00030634       ??0?$stream_output_adapter@_W@__crt_stdio_output@@QEAA@QEAU_iobuf@@@Z 0000000140031634 f i libucrt:output.obj
 0001:0003063c       ??0?$string_output_adapter@D@__crt_stdio_output@@QEAA@QEAU?$string_output_adapter_context@D@1@@Z 000000014003163c f i libucrt:output.obj
 0001:00030644       ??0?$string_output_adapter@_W@__crt_stdio_output@@QEAA@QEAU?$string_output_adapter_context@_W@1@@Z 0000000140031644 f i libucrt:output.obj
 0001:0003064c       ??0_LocaleUpdate@@QEAA@QEAU__crt_locale_pointers@@@Z 000000014003164c f i libucrt:output.obj
 0001:00030710       ??0__acrt_stdio_temporary_buffering_guard@@QEAA@QEAU_iobuf@@@Z 0000000140031710 f i libucrt:output.obj
 0001:00030738       ??0__crt_deferred_errno_cache@@QEAA@XZ 0000000140031738 f i libucrt:output.obj
 0001:00030744       ??0__crt_errno_guard@@QEAA@QEAH@Z 0000000140031744 f i libucrt:output.obj
 0001:00030758       ??0__crt_stdio_stream@@QEAA@QEAU_iobuf@@@Z 0000000140031758 f i libucrt:output.obj
 0001:00030760       ??0formatting_buffer@__crt_stdio_output@@QEAA@XZ 0000000140031760 f i libucrt:output.obj
 0001:0003077c       ??1?$common_data@D@__crt_stdio_output@@QEAA@XZ 000000014003177c f i libucrt:output.obj
 0001:000307a8       ??1?$common_data@_W@__crt_stdio_output@@QEAA@XZ 00000001400317a8 f i libucrt:output.obj
 0001:000307d4       ??1?$format_validation_base@DV?$stream_output_adapter@D@__crt_stdio_output@@@__crt_stdio_output@@QEAA@XZ 00000001400317d4 f i libucrt:output.obj
 0001:00030800       ??1?$format_validation_base@DV?$string_output_adapter@D@__crt_stdio_output@@@__crt_stdio_output@@QEAA@XZ 0000000140031800 f i libucrt:output.obj
 0001:0003082c       ??1?$format_validation_base@_WV?$stream_output_adapter@_W@__crt_stdio_output@@@__crt_stdio_output@@QEAA@XZ 000000014003182c f i libucrt:output.obj
 0001:00030858       ??1?$format_validation_base@_WV?$string_output_adapter@_W@__crt_stdio_output@@@__crt_stdio_output@@QEAA@XZ 0000000140031858 f i libucrt:output.obj
 0001:00030884       ??1?$output_adapter_data@DV?$stream_output_adapter@D@__crt_stdio_output@@@__crt_stdio_output@@QEAA@XZ 0000000140031884 f i libucrt:output.obj
 0001:000308b0       ??1?$output_adapter_data@DV?$string_output_adapter@D@__crt_stdio_output@@@__crt_stdio_output@@QEAA@XZ 00000001400318b0 f i libucrt:output.obj
 0001:000308dc       ??1?$output_adapter_data@_WV?$stream_output_adapter@_W@__crt_stdio_output@@@__crt_stdio_output@@QEAA@XZ 00000001400318dc f i libucrt:output.obj
 0001:00030908       ??1?$output_adapter_data@_WV?$string_output_adapter@_W@__crt_stdio_output@@@__crt_stdio_output@@QEAA@XZ 0000000140031908 f i libucrt:output.obj
 0001:00030934       ??1?$output_processor@DV?$stream_output_adapter@D@__crt_stdio_output@@V?$format_validation_base@DV?$stream_output_adapter@D@__crt_stdio_output@@@2@@__crt_stdio_output@@QEAA@XZ 0000000140031934 f i libucrt:output.obj
 0001:00030960       ??1?$output_processor@DV?$stream_output_adapter@D@__crt_stdio_output@@V?$positional_parameter_base@DV?$stream_output_adapter@D@__crt_stdio_output@@@2@@__crt_stdio_output@@QEAA@XZ 0000000140031960 f i libucrt:output.obj
 0001:0003098c       ??1?$output_processor@DV?$stream_output_adapter@D@__crt_stdio_output@@V?$standard_base@DV?$stream_output_adapter@D@__crt_stdio_output@@@2@@__crt_stdio_output@@QEAA@XZ 000000014003198c f i libucrt:output.obj
 0001:000309b8       ??1?$output_processor@DV?$string_output_adapter@D@__crt_stdio_output@@V?$format_validation_base@DV?$string_output_adapter@D@__crt_stdio_output@@@2@@__crt_stdio_output@@QEAA@XZ 00000001400319b8 f i libucrt:output.obj
 0001:000309e4       ??1?$output_processor@DV?$string_output_adapter@D@__crt_stdio_output@@V?$positional_parameter_base@DV?$string_output_adapter@D@__crt_stdio_output@@@2@@__crt_stdio_output@@QEAA@XZ 00000001400319e4 f i libucrt:output.obj
 0001:00030a10       ??1?$output_processor@DV?$string_output_adapter@D@__crt_stdio_output@@V?$standard_base@DV?$string_output_adapter@D@__crt_stdio_output@@@2@@__crt_stdio_output@@QEAA@XZ 0000000140031a10 f i libucrt:output.obj
 0001:00030a3c       ??1?$output_processor@_WV?$stream_output_adapter@_W@__crt_stdio_output@@V?$format_validation_base@_WV?$stream_output_adapter@_W@__crt_stdio_output@@@2@@__crt_stdio_output@@QEAA@XZ 0000000140031a3c f i libucrt:output.obj
 0001:00030a68       ??1?$output_processor@_WV?$stream_output_adapter@_W@__crt_stdio_output@@V?$positional_parameter_base@_WV?$stream_output_adapter@_W@__crt_stdio_output@@@2@@__crt_stdio_output@@QEAA@XZ 0000000140031a68 f i libucrt:output.obj
 0001:00030a94       ??1?$output_processor@_WV?$stream_output_adapter@_W@__crt_stdio_output@@V?$standard_base@_WV?$stream_output_adapter@_W@__crt_stdio_output@@@2@@__crt_stdio_output@@QEAA@XZ 0000000140031a94 f i libucrt:output.obj
 0001:00030ac0       ??1?$output_processor@_WV?$string_output_adapter@_W@__crt_stdio_output@@V?$format_validation_base@_WV?$string_output_adapter@_W@__crt_stdio_output@@@2@@__crt_stdio_output@@QEAA@XZ 0000000140031ac0 f i libucrt:output.obj
 0001:00030aec       ??1?$output_processor@_WV?$string_output_adapter@_W@__crt_stdio_output@@V?$positional_parameter_base@_WV?$string_output_adapter@_W@__crt_stdio_output@@@2@@__crt_stdio_output@@QEAA@XZ 0000000140031aec f i libucrt:output.obj
 0001:00030b18       ??1?$output_processor@_WV?$string_output_adapter@_W@__crt_stdio_output@@V?$standard_base@_WV?$string_output_adapter@_W@__crt_stdio_output@@@2@@__crt_stdio_output@@QEAA@XZ 0000000140031b18 f i libucrt:output.obj
 0001:00030b44       ??1?$positional_parameter_base@DV?$stream_output_adapter@D@__crt_stdio_output@@@__crt_stdio_output@@QEAA@XZ 0000000140031b44 f i libucrt:output.obj
 0001:00030b70       ??1?$positional_parameter_base@DV?$string_output_adapter@D@__crt_stdio_output@@@__crt_stdio_output@@QEAA@XZ 0000000140031b70 f i libucrt:output.obj
 0001:00030b9c       ??1?$positional_parameter_base@_WV?$stream_output_adapter@_W@__crt_stdio_output@@@__crt_stdio_output@@QEAA@XZ 0000000140031b9c f i libucrt:output.obj
 0001:00030bc8       ??1?$positional_parameter_base@_WV?$string_output_adapter@_W@__crt_stdio_output@@@__crt_stdio_output@@QEAA@XZ 0000000140031bc8 f i libucrt:output.obj
 0001:00030bf4       ??1?$standard_base@DV?$stream_output_adapter@D@__crt_stdio_output@@@__crt_stdio_output@@QEAA@XZ 0000000140031bf4 f i libucrt:output.obj
 0001:00030c20       ??1?$standard_base@DV?$string_output_adapter@D@__crt_stdio_output@@@__crt_stdio_output@@QEAA@XZ 0000000140031c20 f i libucrt:output.obj
 0001:00030c4c       ??1?$standard_base@_WV?$stream_output_adapter@_W@__crt_stdio_output@@@__crt_stdio_output@@QEAA@XZ 0000000140031c4c f i libucrt:output.obj
 0001:00030c78       ??1?$standard_base@_WV?$string_output_adapter@_W@__crt_stdio_output@@@__crt_stdio_output@@QEAA@XZ 0000000140031c78 f i libucrt:output.obj
 0001:00030ca4       ??1_LocaleUpdate@@QEAA@XZ  0000000140031ca4 f i libucrt:output.obj
 0001:00030cbc       ??1__acrt_stdio_temporary_buffering_guard@@QEAA@XZ 0000000140031cbc f i libucrt:output.obj
 0001:00030ccc       ??1__crt_errno_guard@@QEAA@XZ 0000000140031ccc f i libucrt:output.obj
 0001:00030ce4       ??1formatting_buffer@__crt_stdio_output@@QEAA@XZ 0000000140031ce4 f i libucrt:output.obj
 0001:00030d10       ??4?$__crt_unique_heap_ptr@DU__crt_internal_free_policy@@@@QEAAAEAV0@$$QEAV0@@Z 0000000140031d10 f i libucrt:output.obj
 0001:00030d54       ??A?$spectre_mitigated_lookup_table@Ustate_transition_pair@__crt_stdio_output@@$0IA@@__crt_stdio_output@@QEBAAEBUstate_transition_pair@1@_K@Z 0000000140031d54 f i libucrt:output.obj
 0001:00030d60       ??C__crt_stdio_stream@@QEBAPEAU__crt_stdio_stream_data@@XZ 0000000140031d60 f i libucrt:output.obj
 0001:00031724       ?GetLocaleT@_LocaleUpdate@@QEAAPEAU__crt_locale_pointers@@XZ 0000000140032724 f i libucrt:output.obj
 0001:0003172c       ?__crt_interlocked_read_32@@YAHPEDH@Z 000000014003272c f i libucrt:output.obj
 0001:00031730       ?adjust_hexit@?$output_processor@DV?$stream_output_adapter@D@__crt_stdio_output@@V?$format_validation_base@DV?$stream_output_adapter@D@__crt_stdio_output@@@2@@__crt_stdio_output@@CADH_N@Z 0000000140032730 f i libucrt:output.obj
 0001:00031740       ?adjust_hexit@?$output_processor@DV?$stream_output_adapter@D@__crt_stdio_output@@V?$positional_parameter_base@DV?$stream_output_adapter@D@__crt_stdio_output@@@2@@__crt_stdio_output@@CADH_N@Z 0000000140032740 f i libucrt:output.obj
 0001:00031750       ?adjust_hexit@?$output_processor@DV?$stream_output_adapter@D@__crt_stdio_output@@V?$standard_base@DV?$stream_output_adapter@D@__crt_stdio_output@@@2@@__crt_stdio_output@@CADH_N@Z 0000000140032750 f i libucrt:output.obj
 0001:00031760       ?adjust_hexit@?$output_processor@DV?$string_output_adapter@D@__crt_stdio_output@@V?$format_validation_base@DV?$string_output_adapter@D@__crt_stdio_output@@@2@@__crt_stdio_output@@CADH_N@Z 0000000140032760 f i libucrt:output.obj
 0001:00031770       ?adjust_hexit@?$output_processor@DV?$string_output_adapter@D@__crt_stdio_output@@V?$positional_parameter_base@DV?$string_output_adapter@D@__crt_stdio_output@@@2@@__crt_stdio_output@@CADH_N@Z 0000000140032770 f i libucrt:output.obj
 0001:00031780       ?adjust_hexit@?$output_processor@DV?$string_output_adapter@D@__crt_stdio_output@@V?$standard_base@DV?$string_output_adapter@D@__crt_stdio_output@@@2@@__crt_stdio_output@@CADH_N@Z 0000000140032780 f i libucrt:output.obj
 0001:00031790       ?adjust_hexit@?$output_processor@_WV?$stream_output_adapter@_W@__crt_stdio_output@@V?$format_validation_base@_WV?$stream_output_adapter@_W@__crt_stdio_output@@@2@@__crt_stdio_output@@CADH_N@Z 0000000140032790 f i libucrt:output.obj
 0001:000317a0       ?adjust_hexit@?$output_processor@_WV?$stream_output_adapter@_W@__crt_stdio_output@@V?$positional_parameter_base@_WV?$stream_output_adapter@_W@__crt_stdio_output@@@2@@__crt_stdio_output@@CADH_N@Z 00000001400327a0 f i libucrt:output.obj
 0001:000317b0       ?adjust_hexit@?$output_processor@_WV?$stream_output_adapter@_W@__crt_stdio_output@@V?$standard_base@_WV?$stream_output_adapter@_W@__crt_stdio_output@@@2@@__crt_stdio_output@@CADH_N@Z 00000001400327b0 f i libucrt:output.obj
 0001:000317c0       ?adjust_hexit@?$output_processor@_WV?$string_output_adapter@_W@__crt_stdio_output@@V?$format_validation_base@_WV?$string_output_adapter@_W@__crt_stdio_output@@@2@@__crt_stdio_output@@CADH_N@Z 00000001400327c0 f i libucrt:output.obj
 0001:000317d0       ?adjust_hexit@?$output_processor@_WV?$string_output_adapter@_W@__crt_stdio_output@@V?$positional_parameter_base@_WV?$string_output_adapter@_W@__crt_stdio_output@@@2@@__crt_stdio_output@@CADH_N@Z 00000001400327d0 f i libucrt:output.obj
 0001:000317e0       ?adjust_hexit@?$output_processor@_WV?$string_output_adapter@_W@__crt_stdio_output@@V?$standard_base@_WV?$string_output_adapter@_W@__crt_stdio_output@@@2@@__crt_stdio_output@@CADH_N@Z 00000001400327e0 f i libucrt:output.obj
 0001:000317f0       ?advance_to_next_pass@?$positional_parameter_base@DV?$stream_output_adapter@D@__crt_stdio_output@@@__crt_stdio_output@@IEAA_NXZ 00000001400327f0 f i libucrt:output.obj
 0001:00031854       ?advance_to_next_pass@?$positional_parameter_base@DV?$string_output_adapter@D@__crt_stdio_output@@@__crt_stdio_output@@IEAA_NXZ 0000000140032854 f i libucrt:output.obj
 0001:000318b8       ?advance_to_next_pass@?$positional_parameter_base@_WV?$stream_output_adapter@_W@__crt_stdio_output@@@__crt_stdio_output@@IEAA_NXZ 00000001400328b8 f i libucrt:output.obj
 0001:0003191c       ?advance_to_next_pass@?$positional_parameter_base@_WV?$string_output_adapter@_W@__crt_stdio_output@@@__crt_stdio_output@@IEAA_NXZ 000000014003291c f i libucrt:output.obj
 0001:00031980       ?advance_to_next_pass@?$standard_base@DV?$stream_output_adapter@D@__crt_stdio_output@@@__crt_stdio_output@@IEAA_NXZ 0000000140032980 f i libucrt:output.obj
 0001:00031998       ?advance_to_next_pass@?$standard_base@DV?$string_output_adapter@D@__crt_stdio_output@@@__crt_stdio_output@@IEAA_NXZ 0000000140032998 f i libucrt:output.obj
 0001:000319b0       ?advance_to_next_pass@?$standard_base@_WV?$stream_output_adapter@_W@__crt_stdio_output@@@__crt_stdio_output@@IEAA_NXZ 00000001400329b0 f i libucrt:output.obj
 0001:000319c8       ?advance_to_next_pass@?$standard_base@_WV?$string_output_adapter@_W@__crt_stdio_output@@@__crt_stdio_output@@IEAA_NXZ 00000001400329c8 f i libucrt:output.obj
 0001:000319e0       ?crop_zeroes@__crt_stdio_output@@YAXPEADQEAU__crt_locale_pointers@@@Z 00000001400329e0 f i libucrt:output.obj
 0001:00031a98       ?find_next_state@?$output_processor@DV?$stream_output_adapter@D@__crt_stdio_output@@V?$format_validation_base@DV?$stream_output_adapter@D@__crt_stdio_output@@@2@@__crt_stdio_output@@AEBA?AW4state@2@DW432@@Z 0000000140032a98 f i libucrt:output.obj
 0001:00031ad4       ?find_next_state@?$output_processor@DV?$stream_output_adapter@D@__crt_stdio_output@@V?$positional_parameter_base@DV?$stream_output_adapter@D@__crt_stdio_output@@@2@@__crt_stdio_output@@AEBA?AW4state@2@DW432@@Z 0000000140032ad4 f i libucrt:output.obj
 0001:00031b10       ?find_next_state@?$output_processor@DV?$stream_output_adapter@D@__crt_stdio_output@@V?$standard_base@DV?$stream_output_adapter@D@__crt_stdio_output@@@2@@__crt_stdio_output@@AEBA?AW4state@2@DW432@@Z 0000000140032b10 f i libucrt:output.obj
 0001:00031b4c       ?find_next_state@?$output_processor@DV?$string_output_adapter@D@__crt_stdio_output@@V?$format_validation_base@DV?$string_output_adapter@D@__crt_stdio_output@@@2@@__crt_stdio_output@@AEBA?AW4state@2@DW432@@Z 0000000140032b4c f i libucrt:output.obj
 0001:00031b88       ?find_next_state@?$output_processor@DV?$string_output_adapter@D@__crt_stdio_output@@V?$positional_parameter_base@DV?$string_output_adapter@D@__crt_stdio_output@@@2@@__crt_stdio_output@@AEBA?AW4state@2@DW432@@Z 0000000140032b88 f i libucrt:output.obj
 0001:00031bc4       ?find_next_state@?$output_processor@DV?$string_output_adapter@D@__crt_stdio_output@@V?$standard_base@DV?$string_output_adapter@D@__crt_stdio_output@@@2@@__crt_stdio_output@@AEBA?AW4state@2@DW432@@Z 0000000140032bc4 f i libucrt:output.obj
 0001:00031c00       ?find_next_state@?$output_processor@_WV?$stream_output_adapter@_W@__crt_stdio_output@@V?$format_validation_base@_WV?$stream_output_adapter@_W@__crt_stdio_output@@@2@@__crt_stdio_output@@AEBA?AW4state@2@_WW432@@Z 0000000140032c00 f i libucrt:output.obj
 0001:00031c48       ?find_next_state@?$output_processor@_WV?$stream_output_adapter@_W@__crt_stdio_output@@V?$positional_parameter_base@_WV?$stream_output_adapter@_W@__crt_stdio_output@@@2@@__crt_stdio_output@@AEBA?AW4state@2@_WW432@@Z 0000000140032c48 f i libucrt:output.obj
 0001:00031c90       ?find_next_state@?$output_processor@_WV?$stream_output_adapter@_W@__crt_stdio_output@@V?$standard_base@_WV?$stream_output_adapter@_W@__crt_stdio_output@@@2@@__crt_stdio_output@@AEBA?AW4state@2@_WW432@@Z 0000000140032c90 f i libucrt:output.obj
 0001:00031cd4       ?find_next_state@?$output_processor@_WV?$string_output_adapter@_W@__crt_stdio_output@@V?$format_validation_base@_WV?$string_output_adapter@_W@__crt_stdio_output@@@2@@__crt_stdio_output@@AEBA?AW4state@2@_WW432@@Z 0000000140032cd4 f i libucrt:output.obj
 0001:00031d1c       ?find_next_state@?$output_processor@_WV?$string_output_adapter@_W@__crt_stdio_output@@V?$positional_parameter_base@_WV?$string_output_adapter@_W@__crt_stdio_output@@@2@@__crt_stdio_output@@AEBA?AW4state@2@_WW432@@Z 0000000140032d1c f i libucrt:output.obj
 0001:00031d64       ?find_next_state@?$output_processor@_WV?$string_output_adapter@_W@__crt_stdio_output@@V?$standard_base@_WV?$string_output_adapter@_W@__crt_stdio_output@@@2@@__crt_stdio_output@@AEBA?AW4state@2@_WW432@@Z 0000000140032d64 f i libucrt:output.obj
 0001:00031db0       ?force_decimal_point@__crt_stdio_output@@YAXPEADQEAU__crt_locale_pointers@@@Z 0000000140032db0 f i libucrt:output.obj
 0001:00031e44       ?get@__crt_deferred_errno_cache@@QEAAAEAHXZ 0000000140032e44 f i libucrt:output.obj
 0001:00031e6c       ?get_flags@__crt_stdio_stream@@QEBAJXZ 0000000140032e6c f i libucrt:output.obj
 0001:00031e74       ?get_parameter_type@?$positional_parameter_base@DV?$stream_output_adapter@D@__crt_stdio_output@@@__crt_stdio_output@@CA?AW4parameter_type@12@F@Z 0000000140032e74 f i libucrt:output.obj
 0001:00031e7c       ?get_parameter_type@?$positional_parameter_base@DV?$stream_output_adapter@D@__crt_stdio_output@@@__crt_stdio_output@@CA?AW4parameter_type@12@G@Z 0000000140032e7c f i libucrt:output.obj
 0001:00031e84       ?get_parameter_type@?$positional_parameter_base@DV?$stream_output_adapter@D@__crt_stdio_output@@@__crt_stdio_output@@CA?AW4parameter_type@12@H@Z 0000000140032e84 f i libucrt:output.obj
 0001:00031e8c       ?get_parameter_type@?$positional_parameter_base@DV?$stream_output_adapter@D@__crt_stdio_output@@@__crt_stdio_output@@CA?AW4parameter_type@12@I@Z 0000000140032e8c f i libucrt:output.obj
 0001:00031e94       ?get_parameter_type@?$positional_parameter_base@DV?$stream_output_adapter@D@__crt_stdio_output@@@__crt_stdio_output@@CA?AW4parameter_type@12@U_CRT_DOUBLE@@@Z 0000000140032e94 f i libucrt:output.obj
 0001:00031e9c       ?get_parameter_type@?$positional_parameter_base@DV?$stream_output_adapter@D@__crt_stdio_output@@@__crt_stdio_output@@CA?AW4parameter_type@12@_J@Z 0000000140032e9c f i libucrt:output.obj
 0001:00031ea4       ?get_parameter_type@?$positional_parameter_base@DV?$stream_output_adapter@D@__crt_stdio_output@@@__crt_stdio_output@@CA?AW4parameter_type@12@_K@Z 0000000140032ea4 f i libucrt:output.obj
 0001:00031eac       ?get_parameter_type@?$positional_parameter_base@DV?$stream_output_adapter@D@__crt_stdio_output@@@__crt_stdio_output@@CA?AW4parameter_type@12@_W@Z 0000000140032eac f i libucrt:output.obj
 0001:00031eb4       ?get_parameter_type@?$positional_parameter_base@DV?$string_output_adapter@D@__crt_stdio_output@@@__crt_stdio_output@@CA?AW4parameter_type@12@F@Z 0000000140032eb4 f i libucrt:output.obj
 0001:00031ebc       ?get_parameter_type@?$positional_parameter_base@DV?$string_output_adapter@D@__crt_stdio_output@@@__crt_stdio_output@@CA?AW4parameter_type@12@G@Z 0000000140032ebc f i libucrt:output.obj
 0001:00031ec4       ?get_parameter_type@?$positional_parameter_base@DV?$string_output_adapter@D@__crt_stdio_output@@@__crt_stdio_output@@CA?AW4parameter_type@12@H@Z 0000000140032ec4 f i libucrt:output.obj
 0001:00031ecc       ?get_parameter_type@?$positional_parameter_base@DV?$string_output_adapter@D@__crt_stdio_output@@@__crt_stdio_output@@CA?AW4parameter_type@12@I@Z 0000000140032ecc f i libucrt:output.obj
 0001:00031ed4       ?get_parameter_type@?$positional_parameter_base@DV?$string_output_adapter@D@__crt_stdio_output@@@__crt_stdio_output@@CA?AW4parameter_type@12@U_CRT_DOUBLE@@@Z 0000000140032ed4 f i libucrt:output.obj
 0001:00031edc       ?get_parameter_type@?$positional_parameter_base@DV?$string_output_adapter@D@__crt_stdio_output@@@__crt_stdio_output@@CA?AW4parameter_type@12@_J@Z 0000000140032edc f i libucrt:output.obj
 0001:00031ee4       ?get_parameter_type@?$positional_parameter_base@DV?$string_output_adapter@D@__crt_stdio_output@@@__crt_stdio_output@@CA?AW4parameter_type@12@_K@Z 0000000140032ee4 f i libucrt:output.obj
 0001:00031eec       ?get_parameter_type@?$positional_parameter_base@DV?$string_output_adapter@D@__crt_stdio_output@@@__crt_stdio_output@@CA?AW4parameter_type@12@_W@Z 0000000140032eec f i libucrt:output.obj
 0001:00031ef4       ?get_parameter_type@?$positional_parameter_base@_WV?$stream_output_adapter@_W@__crt_stdio_output@@@__crt_stdio_output@@CA?AW4parameter_type@12@F@Z 0000000140032ef4 f i libucrt:output.obj
 0001:00031efc       ?get_parameter_type@?$positional_parameter_base@_WV?$stream_output_adapter@_W@__crt_stdio_output@@@__crt_stdio_output@@CA?AW4parameter_type@12@G@Z 0000000140032efc f i libucrt:output.obj
 0001:00031f04       ?get_parameter_type@?$positional_parameter_base@_WV?$stream_output_adapter@_W@__crt_stdio_output@@@__crt_stdio_output@@CA?AW4parameter_type@12@H@Z 0000000140032f04 f i libucrt:output.obj
 0001:00031f0c       ?get_parameter_type@?$positional_parameter_base@_WV?$stream_output_adapter@_W@__crt_stdio_output@@@__crt_stdio_output@@CA?AW4parameter_type@12@I@Z 0000000140032f0c f i libucrt:output.obj
 0001:00031f14       ?get_parameter_type@?$positional_parameter_base@_WV?$stream_output_adapter@_W@__crt_stdio_output@@@__crt_stdio_output@@CA?AW4parameter_type@12@U_CRT_DOUBLE@@@Z 0000000140032f14 f i libucrt:output.obj
 0001:00031f1c       ?get_parameter_type@?$positional_parameter_base@_WV?$stream_output_adapter@_W@__crt_stdio_output@@@__crt_stdio_output@@CA?AW4parameter_type@12@_J@Z 0000000140032f1c f i libucrt:output.obj
 0001:00031f24       ?get_parameter_type@?$positional_parameter_base@_WV?$stream_output_adapter@_W@__crt_stdio_output@@@__crt_stdio_output@@CA?AW4parameter_type@12@_K@Z 0000000140032f24 f i libucrt:output.obj
 0001:00031f2c       ?get_parameter_type@?$positional_parameter_base@_WV?$stream_output_adapter@_W@__crt_stdio_output@@@__crt_stdio_output@@CA?AW4parameter_type@12@_W@Z 0000000140032f2c f i libucrt:output.obj
 0001:00031f34       ?get_parameter_type@?$positional_parameter_base@_WV?$string_output_adapter@_W@__crt_stdio_output@@@__crt_stdio_output@@CA?AW4parameter_type@12@F@Z 0000000140032f34 f i libucrt:output.obj
 0001:00031f3c       ?get_parameter_type@?$positional_parameter_base@_WV?$string_output_adapter@_W@__crt_stdio_output@@@__crt_stdio_output@@CA?AW4parameter_type@12@G@Z 0000000140032f3c f i libucrt:output.obj
 0001:00031f44       ?get_parameter_type@?$positional_parameter_base@_WV?$string_output_adapter@_W@__crt_stdio_output@@@__crt_stdio_output@@CA?AW4parameter_type@12@H@Z 0000000140032f44 f i libucrt:output.obj
 0001:00031f4c       ?get_parameter_type@?$positional_parameter_base@_WV?$string_output_adapter@_W@__crt_stdio_output@@@__crt_stdio_output@@CA?AW4parameter_type@12@I@Z 0000000140032f4c f i libucrt:output.obj
 0001:00031f54       ?get_parameter_type@?$positional_parameter_base@_WV?$string_output_adapter@_W@__crt_stdio_output@@@__crt_stdio_output@@CA?AW4parameter_type@12@U_CRT_DOUBLE@@@Z 0000000140032f54 f i libucrt:output.obj
 0001:00031f5c       ?get_parameter_type@?$positional_parameter_base@_WV?$string_output_adapter@_W@__crt_stdio_output@@@__crt_stdio_output@@CA?AW4parameter_type@12@_J@Z 0000000140032f5c f i libucrt:output.obj
 0001:00031f64       ?get_parameter_type@?$positional_parameter_base@_WV?$string_output_adapter@_W@__crt_stdio_output@@@__crt_stdio_output@@CA?AW4parameter_type@12@_K@Z 0000000140032f64 f i libucrt:output.obj
 0001:00031f6c       ?get_parameter_type@?$positional_parameter_base@_WV?$string_output_adapter@_W@__crt_stdio_output@@@__crt_stdio_output@@CA?AW4parameter_type@12@_W@Z 0000000140032f6c f i libucrt:output.obj
 0001:00031f74       ?has_flag@?$output_processor@DV?$stream_output_adapter@D@__crt_stdio_output@@V?$format_validation_base@DV?$stream_output_adapter@D@__crt_stdio_output@@@2@@__crt_stdio_output@@AEBA_NI@Z 0000000140032f74 f i libucrt:output.obj
 0001:00031f7c       ?has_flag@?$output_processor@DV?$stream_output_adapter@D@__crt_stdio_output@@V?$positional_parameter_base@DV?$stream_output_adapter@D@__crt_stdio_output@@@2@@__crt_stdio_output@@AEBA_NI@Z 0000000140032f7c f i libucrt:output.obj
 0001:00031f84       ?has_flag@?$output_processor@DV?$stream_output_adapter@D@__crt_stdio_output@@V?$standard_base@DV?$stream_output_adapter@D@__crt_stdio_output@@@2@@__crt_stdio_output@@AEBA_NI@Z 0000000140032f84 f i libucrt:output.obj
 0001:00031f8c       ?has_flag@?$output_processor@DV?$string_output_adapter@D@__crt_stdio_output@@V?$format_validation_base@DV?$string_output_adapter@D@__crt_stdio_output@@@2@@__crt_stdio_output@@AEBA_NI@Z 0000000140032f8c f i libucrt:output.obj
 0001:00031f94       ?has_flag@?$output_processor@DV?$string_output_adapter@D@__crt_stdio_output@@V?$positional_parameter_base@DV?$string_output_adapter@D@__crt_stdio_output@@@2@@__crt_stdio_output@@AEBA_NI@Z 0000000140032f94 f i libucrt:output.obj
 0001:00031f9c       ?has_flag@?$output_processor@DV?$string_output_adapter@D@__crt_stdio_output@@V?$standard_base@DV?$string_output_adapter@D@__crt_stdio_output@@@2@@__crt_stdio_output@@AEBA_NI@Z 0000000140032f9c f i libucrt:output.obj
 0001:00031fa4       ?has_flag@?$output_processor@_WV?$stream_output_adapter@_W@__crt_stdio_output@@V?$format_validation_base@_WV?$stream_output_adapter@_W@__crt_stdio_output@@@2@@__crt_stdio_output@@AEBA_NI@Z 0000000140032fa4 f i libucrt:output.obj
 0001:00031fac       ?has_flag@?$output_processor@_WV?$stream_output_adapter@_W@__crt_stdio_output@@V?$positional_parameter_base@_WV?$stream_output_adapter@_W@__crt_stdio_output@@@2@@__crt_stdio_output@@AEBA_NI@Z 0000000140032fac f i libucrt:output.obj
 0001:00031fb4       ?has_flag@?$output_processor@_WV?$stream_output_adapter@_W@__crt_stdio_output@@V?$standard_base@_WV?$stream_output_adapter@_W@__crt_stdio_output@@@2@@__crt_stdio_output@@AEBA_NI@Z 0000000140032fb4 f i libucrt:output.obj
 0001:00031fbc       ?has_flag@?$output_processor@_WV?$string_output_adapter@_W@__crt_stdio_output@@V?$format_validation_base@_WV?$string_output_adapter@_W@__crt_stdio_output@@@2@@__crt_stdio_output@@AEBA_NI@Z 0000000140032fbc f i libucrt:output.obj
 0001:00031fc4       ?has_flag@?$output_processor@_WV?$string_output_adapter@_W@__crt_stdio_output@@V?$positional_parameter_base@_WV?$string_output_adapter@_W@__crt_stdio_output@@@2@@__crt_stdio_output@@AEBA_NI@Z 0000000140032fc4 f i libucrt:output.obj
 0001:00031fcc       ?has_flag@?$output_processor@_WV?$string_output_adapter@_W@__crt_stdio_output@@V?$standard_base@_WV?$string_output_adapter@_W@__crt_stdio_output@@@2@@__crt_stdio_output@@AEBA_NI@Z 0000000140032fcc f i libucrt:output.obj
 0001:00031fd4       ?is_positional_parameter_reappearance_consistent@?$positional_parameter_base@DV?$stream_output_adapter@D@__crt_stdio_output@@@__crt_stdio_output@@AEAA_NAEBUparameter_data@12@W4parameter_type@12@DW4length_modifier@2@@Z 0000000140032fd4 f i libucrt:output.obj
 0001:000321dc       ?is_positional_parameter_reappearance_consistent@?$positional_parameter_base@DV?$string_output_adapter@D@__crt_stdio_output@@@__crt_stdio_output@@AEAA_NAEBUparameter_data@12@W4parameter_type@12@DW4length_modifier@2@@Z 00000001400331dc f i libucrt:output.obj
 0001:000323e4       ?is_positional_parameter_reappearance_consistent@?$positional_parameter_base@_WV?$stream_output_adapter@_W@__crt_stdio_output@@@__crt_stdio_output@@AEAA_NAEBUparameter_data@12@W4parameter_type@12@_WW4length_modifier@2@@Z 00000001400333e4 f i libucrt:output.obj
 0001:000325ac       ?is_positional_parameter_reappearance_consistent@?$positional_parameter_base@_WV?$string_output_adapter@_W@__crt_stdio_output@@@__crt_stdio_output@@AEAA_NAEBUparameter_data@12@W4parameter_type@12@_WW4length_modifier@2@@Z 00000001400335ac f i libucrt:output.obj
 0001:00032774       ?is_string_backed@__crt_stdio_stream@@QEBA_NXZ 0000000140033774 f i libucrt:output.obj
 0001:00032784       ?narrow_null_string@?$output_processor@DV?$stream_output_adapter@D@__crt_stdio_output@@V?$format_validation_base@DV?$stream_output_adapter@D@__crt_stdio_output@@@2@@__crt_stdio_output@@CAPEADXZ 0000000140033784 f i libucrt:output.obj
 0001:00032790       ?narrow_null_string@?$output_processor@DV?$stream_output_adapter@D@__crt_stdio_output@@V?$positional_parameter_base@DV?$stream_output_adapter@D@__crt_stdio_output@@@2@@__crt_stdio_output@@CAPEADXZ 0000000140033790 f i libucrt:output.obj
 0001:0003279c       ?narrow_null_string@?$output_processor@DV?$stream_output_adapter@D@__crt_stdio_output@@V?$standard_base@DV?$stream_output_adapter@D@__crt_stdio_output@@@2@@__crt_stdio_output@@CAPEADXZ 000000014003379c f i libucrt:output.obj
 0001:000327a8       ?narrow_null_string@?$output_processor@DV?$string_output_adapter@D@__crt_stdio_output@@V?$format_validation_base@DV?$string_output_adapter@D@__crt_stdio_output@@@2@@__crt_stdio_output@@CAPEADXZ 00000001400337a8 f i libucrt:output.obj
 0001:000327b4       ?narrow_null_string@?$output_processor@DV?$string_output_adapter@D@__crt_stdio_output@@V?$positional_parameter_base@DV?$string_output_adapter@D@__crt_stdio_output@@@2@@__crt_stdio_output@@CAPEADXZ 00000001400337b4 f i libucrt:output.obj
 0001:000327c0       ?narrow_null_string@?$output_processor@DV?$string_output_adapter@D@__crt_stdio_output@@V?$standard_base@DV?$string_output_adapter@D@__crt_stdio_output@@@2@@__crt_stdio_output@@CAPEADXZ 00000001400337c0 f i libucrt:output.obj
 0001:000327cc       ?narrow_null_string@?$output_processor@_WV?$stream_output_adapter@_W@__crt_stdio_output@@V?$format_validation_base@_WV?$stream_output_adapter@_W@__crt_stdio_output@@@2@@__crt_stdio_output@@CAPEADXZ 00000001400337cc f i libucrt:output.obj
 0001:000327d8       ?narrow_null_string@?$output_processor@_WV?$stream_output_adapter@_W@__crt_stdio_output@@V?$positional_parameter_base@_WV?$stream_output_adapter@_W@__crt_stdio_output@@@2@@__crt_stdio_output@@CAPEADXZ 00000001400337d8 f i libucrt:output.obj
 0001:000327e4       ?narrow_null_string@?$output_processor@_WV?$stream_output_adapter@_W@__crt_stdio_output@@V?$standard_base@_WV?$stream_output_adapter@_W@__crt_stdio_output@@@2@@__crt_stdio_output@@CAPEADXZ 00000001400337e4 f i libucrt:output.obj
 0001:000327f0       ?narrow_null_string@?$output_processor@_WV?$string_output_adapter@_W@__crt_stdio_output@@V?$format_validation_base@_WV?$string_output_adapter@_W@__crt_stdio_output@@@2@@__crt_stdio_output@@CAPEADXZ 00000001400337f0 f i libucrt:output.obj
 0001:000327fc       ?narrow_null_string@?$output_processor@_WV?$string_output_adapter@_W@__crt_stdio_output@@V?$positional_parameter_base@_WV?$string_output_adapter@_W@__crt_stdio_output@@@2@@__crt_stdio_output@@CAPEADXZ 00000001400337fc f i libucrt:output.obj
 0001:00032808       ?narrow_null_string@?$output_processor@_WV?$string_output_adapter@_W@__crt_stdio_output@@V?$standard_base@_WV?$string_output_adapter@_W@__crt_stdio_output@@@2@@__crt_stdio_output@@CAPEADXZ 0000000140033808 f i libucrt:output.obj
 0001:00032814       ?parse_int_from_format_string@?$output_processor@DV?$stream_output_adapter@D@__crt_stdio_output@@V?$format_validation_base@DV?$stream_output_adapter@D@__crt_stdio_output@@@2@@__crt_stdio_output@@AEAA_NQEAH@Z 0000000140033814 f i libucrt:output.obj
 0001:000328e0       ?parse_int_from_format_string@?$output_processor@DV?$stream_output_adapter@D@__crt_stdio_output@@V?$positional_parameter_base@DV?$stream_output_adapter@D@__crt_stdio_output@@@2@@__crt_stdio_output@@AEAA_NQEAH@Z 00000001400338e0 f i libucrt:output.obj
 0001:000329ac       ?parse_int_from_format_string@?$output_processor@DV?$stream_output_adapter@D@__crt_stdio_output@@V?$standard_base@DV?$stream_output_adapter@D@__crt_stdio_output@@@2@@__crt_stdio_output@@AEAA_NQEAH@Z 00000001400339ac f i libucrt:output.obj
 0001:00032a78       ?parse_int_from_format_string@?$output_processor@DV?$string_output_adapter@D@__crt_stdio_output@@V?$format_validation_base@DV?$string_output_adapter@D@__crt_stdio_output@@@2@@__crt_stdio_output@@AEAA_NQEAH@Z 0000000140033a78 f i libucrt:output.obj
 0001:00032b44       ?parse_int_from_format_string@?$output_processor@DV?$string_output_adapter@D@__crt_stdio_output@@V?$positional_parameter_base@DV?$string_output_adapter@D@__crt_stdio_output@@@2@@__crt_stdio_output@@AEAA_NQEAH@Z 0000000140033b44 f i libucrt:output.obj
 0001:00032c10       ?parse_int_from_format_string@?$output_processor@DV?$string_output_adapter@D@__crt_stdio_output@@V?$standard_base@DV?$string_output_adapter@D@__crt_stdio_output@@@2@@__crt_stdio_output@@AEAA_NQEAH@Z 0000000140033c10 f i libucrt:output.obj
 0001:00032cdc       ?parse_int_from_format_string@?$output_processor@_WV?$stream_output_adapter@_W@__crt_stdio_output@@V?$format_validation_base@_WV?$stream_output_adapter@_W@__crt_stdio_output@@@2@@__crt_stdio_output@@AEAA_NQEAH@Z 0000000140033cdc f i libucrt:output.obj
 0001:00032da8       ?parse_int_from_format_string@?$output_processor@_WV?$stream_output_adapter@_W@__crt_stdio_output@@V?$positional_parameter_base@_WV?$stream_output_adapter@_W@__crt_stdio_output@@@2@@__crt_stdio_output@@AEAA_NQEAH@Z 0000000140033da8 f i libucrt:output.obj
 0001:00032e74       ?parse_int_from_format_string@?$output_processor@_WV?$stream_output_adapter@_W@__crt_stdio_output@@V?$standard_base@_WV?$stream_output_adapter@_W@__crt_stdio_output@@@2@@__crt_stdio_output@@AEAA_NQEAH@Z 0000000140033e74 f i libucrt:output.obj
 0001:00032f40       ?parse_int_from_format_string@?$output_processor@_WV?$string_output_adapter@_W@__crt_stdio_output@@V?$format_validation_base@_WV?$string_output_adapter@_W@__crt_stdio_output@@@2@@__crt_stdio_output@@AEAA_NQEAH@Z 0000000140033f40 f i libucrt:output.obj
 0001:0003300c       ?parse_int_from_format_string@?$output_processor@_WV?$string_output_adapter@_W@__crt_stdio_output@@V?$positional_parameter_base@_WV?$string_output_adapter@_W@__crt_stdio_output@@@2@@__crt_stdio_output@@AEAA_NQEAH@Z 000000014003400c f i libucrt:output.obj
 0001:000330d8       ?parse_int_from_format_string@?$output_processor@_WV?$string_output_adapter@_W@__crt_stdio_output@@V?$standard_base@_WV?$string_output_adapter@_W@__crt_stdio_output@@@2@@__crt_stdio_output@@AEAA_NQEAH@Z 00000001400340d8 f i libucrt:output.obj
 0001:000331a4       ?process@?$output_processor@DV?$stream_output_adapter@D@__crt_stdio_output@@V?$format_validation_base@DV?$stream_output_adapter@D@__crt_stdio_output@@@2@@__crt_stdio_output@@QEAAHXZ 00000001400341a4 f i libucrt:output.obj
 0001:00033450       ?process@?$output_processor@DV?$stream_output_adapter@D@__crt_stdio_output@@V?$positional_parameter_base@DV?$stream_output_adapter@D@__crt_stdio_output@@@2@@__crt_stdio_output@@QEAAHXZ 0000000140034450 f i libucrt:output.obj
 0001:0003379c       ?process@?$output_processor@DV?$stream_output_adapter@D@__crt_stdio_output@@V?$standard_base@DV?$stream_output_adapter@D@__crt_stdio_output@@@2@@__crt_stdio_output@@QEAAHXZ 000000014003479c f i libucrt:output.obj
 0001:00033a34       ?process@?$output_processor@DV?$string_output_adapter@D@__crt_stdio_output@@V?$format_validation_base@DV?$string_output_adapter@D@__crt_stdio_output@@@2@@__crt_stdio_output@@QEAAHXZ 0000000140034a34 f i libucrt:output.obj
 0001:00033ccc       ?process@?$output_processor@DV?$string_output_adapter@D@__crt_stdio_output@@V?$positional_parameter_base@DV?$string_output_adapter@D@__crt_stdio_output@@@2@@__crt_stdio_output@@QEAAHXZ 0000000140034ccc f i libucrt:output.obj
 0001:00034004       ?process@?$output_processor@DV?$string_output_adapter@D@__crt_stdio_output@@V?$standard_base@DV?$string_output_adapter@D@__crt_stdio_output@@@2@@__crt_stdio_output@@QEAAHXZ 0000000140035004 f i libucrt:output.obj
 0001:0003428c       ?process@?$output_processor@_WV?$stream_output_adapter@_W@__crt_stdio_output@@V?$format_validation_base@_WV?$stream_output_adapter@_W@__crt_stdio_output@@@2@@__crt_stdio_output@@QEAAHXZ 000000014003528c f i libucrt:output.obj
 0001:000345b0       ?process@?$output_processor@_WV?$stream_output_adapter@_W@__crt_stdio_output@@V?$positional_parameter_base@_WV?$stream_output_adapter@_W@__crt_stdio_output@@@2@@__crt_stdio_output@@QEAAHXZ 00000001400355b0 f i libucrt:output.obj
 0001:0003491c       ?process@?$output_processor@_WV?$stream_output_adapter@_W@__crt_stdio_output@@V?$standard_base@_WV?$stream_output_adapter@_W@__crt_stdio_output@@@2@@__crt_stdio_output@@QEAAHXZ 000000014003591c f i libucrt:output.obj
 0001:00034c30       ?process@?$output_processor@_WV?$string_output_adapter@_W@__crt_stdio_output@@V?$format_validation_base@_WV?$string_output_adapter@_W@__crt_stdio_output@@@2@@__crt_stdio_output@@QEAAHXZ 0000000140035c30 f i libucrt:output.obj
 0001:00034f44       ?process@?$output_processor@_WV?$string_output_adapter@_W@__crt_stdio_output@@V?$positional_parameter_base@_WV?$string_output_adapter@_W@__crt_stdio_output@@@2@@__crt_stdio_output@@QEAAHXZ 0000000140035f44 f i libucrt:output.obj
 0001:000352b0       ?process@?$output_processor@_WV?$string_output_adapter@_W@__crt_stdio_output@@V?$standard_base@_WV?$string_output_adapter@_W@__crt_stdio_output@@@2@@__crt_stdio_output@@QEAAHXZ 00000001400362b0 f i libucrt:output.obj
 0001:000355b8       ?public_stream@__crt_stdio_stream@@QEBAPEAU_iobuf@@XZ 00000001400365b8 f i libucrt:output.obj
 0001:000355bc       ?set_flag@?$output_processor@DV?$stream_output_adapter@D@__crt_stdio_output@@V?$format_validation_base@DV?$stream_output_adapter@D@__crt_stdio_output@@@2@@__crt_stdio_output@@AEAAXI@Z 00000001400365bc f i libucrt:output.obj
 0001:000355c0       ?set_flag@?$output_processor@DV?$stream_output_adapter@D@__crt_stdio_output@@V?$positional_parameter_base@DV?$stream_output_adapter@D@__crt_stdio_output@@@2@@__crt_stdio_output@@AEAAXI@Z 00000001400365c0 f i libucrt:output.obj
 0001:000355c4       ?set_flag@?$output_processor@DV?$stream_output_adapter@D@__crt_stdio_output@@V?$standard_base@DV?$stream_output_adapter@D@__crt_stdio_output@@@2@@__crt_stdio_output@@AEAAXI@Z 00000001400365c4 f i libucrt:output.obj
 0001:000355c8       ?set_flag@?$output_processor@DV?$string_output_adapter@D@__crt_stdio_output@@V?$format_validation_base@DV?$string_output_adapter@D@__crt_stdio_output@@@2@@__crt_stdio_output@@AEAAXI@Z 00000001400365c8 f i libucrt:output.obj
 0001:000355cc       ?set_flag@?$output_processor@DV?$string_output_adapter@D@__crt_stdio_output@@V?$positional_parameter_base@DV?$string_output_adapter@D@__crt_stdio_output@@@2@@__crt_stdio_output@@AEAAXI@Z 00000001400365cc f i libucrt:output.obj
 0001:000355d0       ?set_flag@?$output_processor@DV?$string_output_adapter@D@__crt_stdio_output@@V?$standard_base@DV?$string_output_adapter@D@__crt_stdio_output@@@2@@__crt_stdio_output@@AEAAXI@Z 00000001400365d0 f i libucrt:output.obj
 0001:000355d4       ?set_flag@?$output_processor@_WV?$stream_output_adapter@_W@__crt_stdio_output@@V?$format_validation_base@_WV?$stream_output_adapter@_W@__crt_stdio_output@@@2@@__crt_stdio_output@@AEAAXI@Z 00000001400365d4 f i libucrt:output.obj
 0001:000355d8       ?set_flag@?$output_processor@_WV?$stream_output_adapter@_W@__crt_stdio_output@@V?$positional_parameter_base@_WV?$stream_output_adapter@_W@__crt_stdio_output@@@2@@__crt_stdio_output@@AEAAXI@Z 00000001400365d8 f i libucrt:output.obj
 0001:000355dc       ?set_flag@?$output_processor@_WV?$stream_output_adapter@_W@__crt_stdio_output@@V?$standard_base@_WV?$stream_output_adapter@_W@__crt_stdio_output@@@2@@__crt_stdio_output@@AEAAXI@Z 00000001400365dc f i libucrt:output.obj
 0001:000355e0       ?set_flag@?$output_processor@_WV?$string_output_adapter@_W@__crt_stdio_output@@V?$format_validation_base@_WV?$string_output_adapter@_W@__crt_stdio_output@@@2@@__crt_stdio_output@@AEAAXI@Z 00000001400365e0 f i libucrt:output.obj
 0001:000355e4       ?set_flag@?$output_processor@_WV?$string_output_adapter@_W@__crt_stdio_output@@V?$positional_parameter_base@_WV?$string_output_adapter@_W@__crt_stdio_output@@@2@@__crt_stdio_output@@AEAAXI@Z 00000001400365e4 f i libucrt:output.obj
 0001:000355e8       ?set_flag@?$output_processor@_WV?$string_output_adapter@_W@__crt_stdio_output@@V?$standard_base@_WV?$string_output_adapter@_W@__crt_stdio_output@@@2@@__crt_stdio_output@@AEAAXI@Z 00000001400365e8 f i libucrt:output.obj
 0001:000355ec       ?should_format@?$positional_parameter_base@DV?$stream_output_adapter@D@__crt_stdio_output@@@__crt_stdio_output@@IEAA_NXZ 00000001400365ec f i libucrt:output.obj
 0001:0003560c       ?should_format@?$positional_parameter_base@DV?$string_output_adapter@D@__crt_stdio_output@@@__crt_stdio_output@@IEAA_NXZ 000000014003660c f i libucrt:output.obj
 0001:0003562c       ?should_format@?$positional_parameter_base@_WV?$stream_output_adapter@_W@__crt_stdio_output@@@__crt_stdio_output@@IEAA_NXZ 000000014003662c f i libucrt:output.obj
 0001:0003564c       ?should_format@?$positional_parameter_base@_WV?$string_output_adapter@_W@__crt_stdio_output@@@__crt_stdio_output@@IEAA_NXZ 000000014003664c f i libucrt:output.obj
 0001:0003566c       ?should_format@?$standard_base@DV?$stream_output_adapter@D@__crt_stdio_output@@@__crt_stdio_output@@IEAA_NXZ 000000014003666c f i libucrt:output.obj
 0001:00035670       ?should_format@?$standard_base@DV?$string_output_adapter@D@__crt_stdio_output@@@__crt_stdio_output@@IEAA_NXZ 0000000140036670 f i libucrt:output.obj
 0001:00035674       ?should_format@?$standard_base@_WV?$stream_output_adapter@_W@__crt_stdio_output@@@__crt_stdio_output@@IEAA_NXZ 0000000140036674 f i libucrt:output.obj
 0001:00035678       ?should_format@?$standard_base@_WV?$string_output_adapter@_W@__crt_stdio_output@@@__crt_stdio_output@@IEAA_NXZ 0000000140036678 f i libucrt:output.obj
 0001:0003567c       ?should_skip_normal_state_processing@?$positional_parameter_base@DV?$stream_output_adapter@D@__crt_stdio_output@@@__crt_stdio_output@@IEAA_NXZ 000000014003667c f i libucrt:output.obj
 0001:000356b0       ?should_skip_normal_state_processing@?$positional_parameter_base@DV?$string_output_adapter@D@__crt_stdio_output@@@__crt_stdio_output@@IEAA_NXZ 00000001400366b0 f i libucrt:output.obj
 0001:000356e4       ?should_skip_normal_state_processing@?$positional_parameter_base@_WV?$stream_output_adapter@_W@__crt_stdio_output@@@__crt_stdio_output@@IEAA_NXZ 00000001400366e4 f i libucrt:output.obj
 0001:00035718       ?should_skip_normal_state_processing@?$positional_parameter_base@_WV?$string_output_adapter@_W@__crt_stdio_output@@@__crt_stdio_output@@IEAA_NXZ 0000000140036718 f i libucrt:output.obj
 0001:0003574c       ?should_skip_normal_state_processing@?$standard_base@DV?$stream_output_adapter@D@__crt_stdio_output@@@__crt_stdio_output@@IEAA_NXZ 000000014003674c f i libucrt:output.obj
 0001:00035750       ?should_skip_normal_state_processing@?$standard_base@DV?$string_output_adapter@D@__crt_stdio_output@@@__crt_stdio_output@@IEAA_NXZ 0000000140036750 f i libucrt:output.obj
 0001:00035754       ?should_skip_normal_state_processing@?$standard_base@_WV?$stream_output_adapter@_W@__crt_stdio_output@@@__crt_stdio_output@@IEAA_NXZ 0000000140036754 f i libucrt:output.obj
 0001:00035758       ?should_skip_normal_state_processing@?$standard_base@_WV?$string_output_adapter@_W@__crt_stdio_output@@@__crt_stdio_output@@IEAA_NXZ 0000000140036758 f i libucrt:output.obj
 0001:0003575c       ?should_skip_type_state_output@?$positional_parameter_base@DV?$stream_output_adapter@D@__crt_stdio_output@@@__crt_stdio_output@@IEBA_NXZ 000000014003675c f i libucrt:output.obj
 0001:0003577c       ?should_skip_type_state_output@?$positional_parameter_base@DV?$string_output_adapter@D@__crt_stdio_output@@@__crt_stdio_output@@IEBA_NXZ 000000014003677c f i libucrt:output.obj
 0001:0003579c       ?should_skip_type_state_output@?$positional_parameter_base@_WV?$stream_output_adapter@_W@__crt_stdio_output@@@__crt_stdio_output@@IEBA_NXZ 000000014003679c f i libucrt:output.obj
 0001:000357bc       ?should_skip_type_state_output@?$positional_parameter_base@_WV?$string_output_adapter@_W@__crt_stdio_output@@@__crt_stdio_output@@IEBA_NXZ 00000001400367bc f i libucrt:output.obj
 0001:000357dc       ?should_skip_type_state_output@?$standard_base@DV?$stream_output_adapter@D@__crt_stdio_output@@@__crt_stdio_output@@IEBA_NXZ 00000001400367dc f i libucrt:output.obj
 0001:000357e0       ?should_skip_type_state_output@?$standard_base@DV?$string_output_adapter@D@__crt_stdio_output@@@__crt_stdio_output@@IEBA_NXZ 00000001400367e0 f i libucrt:output.obj
 0001:000357e4       ?should_skip_type_state_output@?$standard_base@_WV?$stream_output_adapter@_W@__crt_stdio_output@@@__crt_stdio_output@@IEBA_NXZ 00000001400367e4 f i libucrt:output.obj
 0001:000357e8       ?should_skip_type_state_output@?$standard_base@_WV?$string_output_adapter@_W@__crt_stdio_output@@@__crt_stdio_output@@IEBA_NXZ 00000001400367e8 f i libucrt:output.obj
 0001:000357ec       ?state_case_dot@?$output_processor@DV?$stream_output_adapter@D@__crt_stdio_output@@V?$format_validation_base@DV?$stream_output_adapter@D@__crt_stdio_output@@@2@@__crt_stdio_output@@AEAA_NXZ 00000001400367ec f i libucrt:output.obj
 0001:000357f4       ?state_case_dot@?$output_processor@DV?$stream_output_adapter@D@__crt_stdio_output@@V?$positional_parameter_base@DV?$stream_output_adapter@D@__crt_stdio_output@@@2@@__crt_stdio_output@@AEAA_NXZ 00000001400367f4 f i libucrt:output.obj
 0001:000357fc       ?state_case_dot@?$output_processor@DV?$stream_output_adapter@D@__crt_stdio_output@@V?$standard_base@DV?$stream_output_adapter@D@__crt_stdio_output@@@2@@__crt_stdio_output@@AEAA_NXZ 00000001400367fc f i libucrt:output.obj
 0001:00035804       ?state_case_dot@?$output_processor@DV?$string_output_adapter@D@__crt_stdio_output@@V?$format_validation_base@DV?$string_output_adapter@D@__crt_stdio_output@@@2@@__crt_stdio_output@@AEAA_NXZ 0000000140036804 f i libucrt:output.obj
 0001:0003580c       ?state_case_dot@?$output_processor@DV?$string_output_adapter@D@__crt_stdio_output@@V?$positional_parameter_base@DV?$string_output_adapter@D@__crt_stdio_output@@@2@@__crt_stdio_output@@AEAA_NXZ 000000014003680c f i libucrt:output.obj
 0001:00035814       ?state_case_dot@?$output_processor@DV?$string_output_adapter@D@__crt_stdio_output@@V?$standard_base@DV?$string_output_adapter@D@__crt_stdio_output@@@2@@__crt_stdio_output@@AEAA_NXZ 0000000140036814 f i libucrt:output.obj
 0001:0003581c       ?state_case_dot@?$output_processor@_WV?$stream_output_adapter@_W@__crt_stdio_output@@V?$format_validation_base@_WV?$stream_output_adapter@_W@__crt_stdio_output@@@2@@__crt_stdio_output@@AEAA_NXZ 000000014003681c f i libucrt:output.obj
 0001:00035824       ?state_case_dot@?$output_processor@_WV?$stream_output_adapter@_W@__crt_stdio_output@@V?$positional_parameter_base@_WV?$stream_output_adapter@_W@__crt_stdio_output@@@2@@__crt_stdio_output@@AEAA_NXZ 0000000140036824 f i libucrt:output.obj
 0001:0003582c       ?state_case_dot@?$output_processor@_WV?$stream_output_adapter@_W@__crt_stdio_output@@V?$standard_base@_WV?$stream_output_adapter@_W@__crt_stdio_output@@@2@@__crt_stdio_output@@AEAA_NXZ 000000014003682c f i libucrt:output.obj
 0001:00035834       ?state_case_dot@?$output_processor@_WV?$string_output_adapter@_W@__crt_stdio_output@@V?$format_validation_base@_WV?$string_output_adapter@_W@__crt_stdio_output@@@2@@__crt_stdio_output@@AEAA_NXZ 0000000140036834 f i libucrt:output.obj
 0001:0003583c       ?state_case_dot@?$output_processor@_WV?$string_output_adapter@_W@__crt_stdio_output@@V?$positional_parameter_base@_WV?$string_output_adapter@_W@__crt_stdio_output@@@2@@__crt_stdio_output@@AEAA_NXZ 000000014003683c f i libucrt:output.obj
 0001:00035844       ?state_case_dot@?$output_processor@_WV?$string_output_adapter@_W@__crt_stdio_output@@V?$standard_base@_WV?$string_output_adapter@_W@__crt_stdio_output@@@2@@__crt_stdio_output@@AEAA_NXZ 0000000140036844 f i libucrt:output.obj
 0001:0003584c       ?state_case_flag@?$output_processor@DV?$stream_output_adapter@D@__crt_stdio_output@@V?$format_validation_base@DV?$stream_output_adapter@D@__crt_stdio_output@@@2@@__crt_stdio_output@@AEAA_NXZ 000000014003684c f i libucrt:output.obj
 0001:00035890       ?state_case_flag@?$output_processor@DV?$stream_output_adapter@D@__crt_stdio_output@@V?$positional_parameter_base@DV?$stream_output_adapter@D@__crt_stdio_output@@@2@@__crt_stdio_output@@AEAA_NXZ 0000000140036890 f i libucrt:output.obj
 0001:000358d4       ?state_case_flag@?$output_processor@DV?$stream_output_adapter@D@__crt_stdio_output@@V?$standard_base@DV?$stream_output_adapter@D@__crt_stdio_output@@@2@@__crt_stdio_output@@AEAA_NXZ 00000001400368d4 f i libucrt:output.obj
 0001:00035918       ?state_case_flag@?$output_processor@DV?$string_output_adapter@D@__crt_stdio_output@@V?$format_validation_base@DV?$string_output_adapter@D@__crt_stdio_output@@@2@@__crt_stdio_output@@AEAA_NXZ 0000000140036918 f i libucrt:output.obj
 0001:0003595c       ?state_case_flag@?$output_processor@DV?$string_output_adapter@D@__crt_stdio_output@@V?$positional_parameter_base@DV?$string_output_adapter@D@__crt_stdio_output@@@2@@__crt_stdio_output@@AEAA_NXZ 000000014003695c f i libucrt:output.obj
 0001:000359a0       ?state_case_flag@?$output_processor@DV?$string_output_adapter@D@__crt_stdio_output@@V?$standard_base@DV?$string_output_adapter@D@__crt_stdio_output@@@2@@__crt_stdio_output@@AEAA_NXZ 00000001400369a0 f i libucrt:output.obj
 0001:000359e4       ?state_case_flag@?$output_processor@_WV?$stream_output_adapter@_W@__crt_stdio_output@@V?$format_validation_base@_WV?$stream_output_adapter@_W@__crt_stdio_output@@@2@@__crt_stdio_output@@AEAA_NXZ 00000001400369e4 f i libucrt:output.obj
 0001:00035a3c       ?state_case_flag@?$output_processor@_WV?$stream_output_adapter@_W@__crt_stdio_output@@V?$positional_parameter_base@_WV?$stream_output_adapter@_W@__crt_stdio_output@@@2@@__crt_stdio_output@@AEAA_NXZ 0000000140036a3c f i libucrt:output.obj
 0001:00035a94       ?state_case_flag@?$output_processor@_WV?$stream_output_adapter@_W@__crt_stdio_output@@V?$standard_base@_WV?$stream_output_adapter@_W@__crt_stdio_output@@@2@@__crt_stdio_output@@AEAA_NXZ 0000000140036a94 f i libucrt:output.obj
 0001:00035aec       ?state_case_flag@?$output_processor@_WV?$string_output_adapter@_W@__crt_stdio_output@@V?$format_validation_base@_WV?$string_output_adapter@_W@__crt_stdio_output@@@2@@__crt_stdio_output@@AEAA_NXZ 0000000140036aec f i libucrt:output.obj
 0001:00035b44       ?state_case_flag@?$output_processor@_WV?$string_output_adapter@_W@__crt_stdio_output@@V?$positional_parameter_base@_WV?$string_output_adapter@_W@__crt_stdio_output@@@2@@__crt_stdio_output@@AEAA_NXZ 0000000140036b44 f i libucrt:output.obj
 0001:00035b9c       ?state_case_flag@?$output_processor@_WV?$string_output_adapter@_W@__crt_stdio_output@@V?$standard_base@_WV?$string_output_adapter@_W@__crt_stdio_output@@@2@@__crt_stdio_output@@AEAA_NXZ 0000000140036b9c f i libucrt:output.obj
 0001:00035bf4       ?state_case_normal@?$output_processor@DV?$stream_output_adapter@D@__crt_stdio_output@@V?$format_validation_base@DV?$stream_output_adapter@D@__crt_stdio_output@@@2@@__crt_stdio_output@@AEAA_NXZ 0000000140036bf4 f i libucrt:output.obj
 0001:00035c80       ?state_case_normal@?$output_processor@DV?$stream_output_adapter@D@__crt_stdio_output@@V?$positional_parameter_base@DV?$stream_output_adapter@D@__crt_stdio_output@@@2@@__crt_stdio_output@@AEAA_NXZ 0000000140036c80 f i libucrt:output.obj
 0001:00035d3c       ?state_case_normal@?$output_processor@DV?$stream_output_adapter@D@__crt_stdio_output@@V?$standard_base@DV?$stream_output_adapter@D@__crt_stdio_output@@@2@@__crt_stdio_output@@AEAA_NXZ 0000000140036d3c f i libucrt:output.obj
 0001:00035dc8       ?state_case_normal@?$output_processor@DV?$string_output_adapter@D@__crt_stdio_output@@V?$format_validation_base@DV?$string_output_adapter@D@__crt_stdio_output@@@2@@__crt_stdio_output@@AEAA_NXZ 0000000140036dc8 f i libucrt:output.obj
 0001:00035e5c       ?state_case_normal@?$output_processor@DV?$string_output_adapter@D@__crt_stdio_output@@V?$positional_parameter_base@DV?$string_output_adapter@D@__crt_stdio_output@@@2@@__crt_stdio_output@@AEAA_NXZ 0000000140036e5c f i libucrt:output.obj
 0001:00035f1c       ?state_case_normal@?$output_processor@DV?$string_output_adapter@D@__crt_stdio_output@@V?$standard_base@DV?$string_output_adapter@D@__crt_stdio_output@@@2@@__crt_stdio_output@@AEAA_NXZ 0000000140036f1c f i libucrt:output.obj
 0001:00035fb0       ?state_case_normal@?$output_processor@_WV?$stream_output_adapter@_W@__crt_stdio_output@@V?$format_validation_base@_WV?$stream_output_adapter@_W@__crt_stdio_output@@@2@@__crt_stdio_output@@AEAA_NXZ 0000000140036fb0 f i libucrt:output.obj
 0001:00036020       ?state_case_normal@?$output_processor@_WV?$stream_output_adapter@_W@__crt_stdio_output@@V?$positional_parameter_base@_WV?$stream_output_adapter@_W@__crt_stdio_output@@@2@@__crt_stdio_output@@AEAA_NXZ 0000000140037020 f i libucrt:output.obj
 0001:000360bc       ?state_case_normal@?$output_processor@_WV?$stream_output_adapter@_W@__crt_stdio_output@@V?$standard_base@_WV?$stream_output_adapter@_W@__crt_stdio_output@@@2@@__crt_stdio_output@@AEAA_NXZ 00000001400370bc f i libucrt:output.obj
 0001:0003612c       ?state_case_normal@?$output_processor@_WV?$string_output_adapter@_W@__crt_stdio_output@@V?$format_validation_base@_WV?$string_output_adapter@_W@__crt_stdio_output@@@2@@__crt_stdio_output@@AEAA_NXZ 000000014003712c f i libucrt:output.obj
 0001:00036198       ?state_case_normal@?$output_processor@_WV?$string_output_adapter@_W@__crt_stdio_output@@V?$positional_parameter_base@_WV?$string_output_adapter@_W@__crt_stdio_output@@@2@@__crt_stdio_output@@AEAA_NXZ 0000000140037198 f i libucrt:output.obj
 0001:00036230       ?state_case_normal@?$output_processor@_WV?$string_output_adapter@_W@__crt_stdio_output@@V?$standard_base@_WV?$string_output_adapter@_W@__crt_stdio_output@@@2@@__crt_stdio_output@@AEAA_NXZ 0000000140037230 f i libucrt:output.obj
 0001:0003629c       ?state_case_normal_common@?$output_processor@DV?$stream_output_adapter@D@__crt_stdio_output@@V?$format_validation_base@DV?$stream_output_adapter@D@__crt_stdio_output@@@2@@__crt_stdio_output@@AEAA_NXZ 000000014003729c f i libucrt:output.obj
 0001:00036310       ?state_case_normal_common@?$output_processor@DV?$stream_output_adapter@D@__crt_stdio_output@@V?$positional_parameter_base@DV?$stream_output_adapter@D@__crt_stdio_output@@@2@@__crt_stdio_output@@AEAA_NXZ 0000000140037310 f i libucrt:output.obj
 0001:00036384       ?state_case_normal_common@?$output_processor@DV?$stream_output_adapter@D@__crt_stdio_output@@V?$standard_base@DV?$stream_output_adapter@D@__crt_stdio_output@@@2@@__crt_stdio_output@@AEAA_NXZ 0000000140037384 f i libucrt:output.obj
 0001:000363f8       ?state_case_normal_common@?$output_processor@DV?$string_output_adapter@D@__crt_stdio_output@@V?$format_validation_base@DV?$string_output_adapter@D@__crt_stdio_output@@@2@@__crt_stdio_output@@AEAA_NXZ 00000001400373f8 f i libucrt:output.obj
 0001:00036470       ?state_case_normal_common@?$output_processor@DV?$string_output_adapter@D@__crt_stdio_output@@V?$positional_parameter_base@DV?$string_output_adapter@D@__crt_stdio_output@@@2@@__crt_stdio_output@@AEAA_NXZ 0000000140037470 f i libucrt:output.obj
 0001:000364e8       ?state_case_normal_common@?$output_processor@DV?$string_output_adapter@D@__crt_stdio_output@@V?$standard_base@DV?$string_output_adapter@D@__crt_stdio_output@@@2@@__crt_stdio_output@@AEAA_NXZ 00000001400374e8 f i libucrt:output.obj
 0001:00036560       ?state_case_normal_common@?$output_processor@_WV?$stream_output_adapter@_W@__crt_stdio_output@@V?$format_validation_base@_WV?$stream_output_adapter@_W@__crt_stdio_output@@@2@@__crt_stdio_output@@AEAA_NXZ 0000000140037560 f i libucrt:output.obj
 0001:000365d0       ?state_case_normal_common@?$output_processor@_WV?$stream_output_adapter@_W@__crt_stdio_output@@V?$positional_parameter_base@_WV?$stream_output_adapter@_W@__crt_stdio_output@@@2@@__crt_stdio_output@@AEAA_NXZ 00000001400375d0 f i libucrt:output.obj
 0001:00036640       ?state_case_normal_common@?$output_processor@_WV?$stream_output_adapter@_W@__crt_stdio_output@@V?$standard_base@_WV?$stream_output_adapter@_W@__crt_stdio_output@@@2@@__crt_stdio_output@@AEAA_NXZ 0000000140037640 f i libucrt:output.obj
 0001:000366b0       ?state_case_normal_common@?$output_processor@_WV?$string_output_adapter@_W@__crt_stdio_output@@V?$format_validation_base@_WV?$string_output_adapter@_W@__crt_stdio_output@@@2@@__crt_stdio_output@@AEAA_NXZ 00000001400376b0 f i libucrt:output.obj
 0001:0003671c       ?state_case_normal_common@?$output_processor@_WV?$string_output_adapter@_W@__crt_stdio_output@@V?$positional_parameter_base@_WV?$string_output_adapter@_W@__crt_stdio_output@@@2@@__crt_stdio_output@@AEAA_NXZ 000000014003771c f i libucrt:output.obj
 0001:00036788       ?state_case_normal_common@?$output_processor@_WV?$string_output_adapter@_W@__crt_stdio_output@@V?$standard_base@_WV?$string_output_adapter@_W@__crt_stdio_output@@@2@@__crt_stdio_output@@AEAA_NXZ 0000000140037788 f i libucrt:output.obj
 0001:000367f4       ?state_case_normal_tchar@?$output_processor@DV?$stream_output_adapter@D@__crt_stdio_output@@V?$format_validation_base@DV?$stream_output_adapter@D@__crt_stdio_output@@@2@@__crt_stdio_output@@AEAA_ND@Z 00000001400377f4 f i libucrt:output.obj
 0001:000368c0       ?state_case_normal_tchar@?$output_processor@DV?$stream_output_adapter@D@__crt_stdio_output@@V?$positional_parameter_base@DV?$stream_output_adapter@D@__crt_stdio_output@@@2@@__crt_stdio_output@@AEAA_ND@Z 00000001400378c0 f i libucrt:output.obj
 0001:0003698c       ?state_case_normal_tchar@?$output_processor@DV?$stream_output_adapter@D@__crt_stdio_output@@V?$standard_base@DV?$stream_output_adapter@D@__crt_stdio_output@@@2@@__crt_stdio_output@@AEAA_ND@Z 000000014003798c f i libucrt:output.obj
 0001:00036a58       ?state_case_normal_tchar@?$output_processor@DV?$string_output_adapter@D@__crt_stdio_output@@V?$format_validation_base@DV?$string_output_adapter@D@__crt_stdio_output@@@2@@__crt_stdio_output@@AEAA_ND@Z 0000000140037a58 f i libucrt:output.obj
 0001:00036b28       ?state_case_normal_tchar@?$output_processor@DV?$string_output_adapter@D@__crt_stdio_output@@V?$positional_parameter_base@DV?$string_output_adapter@D@__crt_stdio_output@@@2@@__crt_stdio_output@@AEAA_ND@Z 0000000140037b28 f i libucrt:output.obj
 0001:00036bf8       ?state_case_normal_tchar@?$output_processor@DV?$string_output_adapter@D@__crt_stdio_output@@V?$standard_base@DV?$string_output_adapter@D@__crt_stdio_output@@@2@@__crt_stdio_output@@AEAA_ND@Z 0000000140037bf8 f i libucrt:output.obj
 0001:00036cc8       ?state_case_normal_tchar@?$output_processor@_WV?$stream_output_adapter@_W@__crt_stdio_output@@V?$format_validation_base@_WV?$stream_output_adapter@_W@__crt_stdio_output@@@2@@__crt_stdio_output@@AEAA_N_W@Z 0000000140037cc8 f i libucrt:output.obj
 0001:00036cd0       ?state_case_normal_tchar@?$output_processor@_WV?$stream_output_adapter@_W@__crt_stdio_output@@V?$positional_parameter_base@_WV?$stream_output_adapter@_W@__crt_stdio_output@@@2@@__crt_stdio_output@@AEAA_N_W@Z 0000000140037cd0 f i libucrt:output.obj
 0001:00036cd8       ?state_case_normal_tchar@?$output_processor@_WV?$stream_output_adapter@_W@__crt_stdio_output@@V?$standard_base@_WV?$stream_output_adapter@_W@__crt_stdio_output@@@2@@__crt_stdio_output@@AEAA_N_W@Z 0000000140037cd8 f i libucrt:output.obj
 0001:00036ce0       ?state_case_normal_tchar@?$output_processor@_WV?$string_output_adapter@_W@__crt_stdio_output@@V?$format_validation_base@_WV?$string_output_adapter@_W@__crt_stdio_output@@@2@@__crt_stdio_output@@AEAA_N_W@Z 0000000140037ce0 f i libucrt:output.obj
 0001:00036ce8       ?state_case_normal_tchar@?$output_processor@_WV?$string_output_adapter@_W@__crt_stdio_output@@V?$positional_parameter_base@_WV?$string_output_adapter@_W@__crt_stdio_output@@@2@@__crt_stdio_output@@AEAA_N_W@Z 0000000140037ce8 f i libucrt:output.obj
 0001:00036cf0       ?state_case_normal_tchar@?$output_processor@_WV?$string_output_adapter@_W@__crt_stdio_output@@V?$standard_base@_WV?$string_output_adapter@_W@__crt_stdio_output@@@2@@__crt_stdio_output@@AEAA_N_W@Z 0000000140037cf0 f i libucrt:output.obj
 0001:00036cf8       ?state_case_percent@?$output_processor@DV?$stream_output_adapter@D@__crt_stdio_output@@V?$format_validation_base@DV?$stream_output_adapter@D@__crt_stdio_output@@@2@@__crt_stdio_output@@AEAA_NXZ 0000000140037cf8 f i libucrt:output.obj
 0001:00036d14       ?state_case_percent@?$output_processor@DV?$stream_output_adapter@D@__crt_stdio_output@@V?$positional_parameter_base@DV?$stream_output_adapter@D@__crt_stdio_output@@@2@@__crt_stdio_output@@AEAA_NXZ 0000000140037d14 f i libucrt:output.obj
 0001:00036d30       ?state_case_percent@?$output_processor@DV?$stream_output_adapter@D@__crt_stdio_output@@V?$standard_base@DV?$stream_output_adapter@D@__crt_stdio_output@@@2@@__crt_stdio_output@@AEAA_NXZ 0000000140037d30 f i libucrt:output.obj
 0001:00036d4c       ?state_case_percent@?$output_processor@DV?$string_output_adapter@D@__crt_stdio_output@@V?$format_validation_base@DV?$string_output_adapter@D@__crt_stdio_output@@@2@@__crt_stdio_output@@AEAA_NXZ 0000000140037d4c f i libucrt:output.obj
 0001:00036d68       ?state_case_percent@?$output_processor@DV?$string_output_adapter@D@__crt_stdio_output@@V?$positional_parameter_base@DV?$string_output_adapter@D@__crt_stdio_output@@@2@@__crt_stdio_output@@AEAA_NXZ 0000000140037d68 f i libucrt:output.obj
 0001:00036d84       ?state_case_percent@?$output_processor@DV?$string_output_adapter@D@__crt_stdio_output@@V?$standard_base@DV?$string_output_adapter@D@__crt_stdio_output@@@2@@__crt_stdio_output@@AEAA_NXZ 0000000140037d84 f i libucrt:output.obj
 0001:00036da0       ?state_case_percent@?$output_processor@_WV?$stream_output_adapter@_W@__crt_stdio_output@@V?$format_validation_base@_WV?$stream_output_adapter@_W@__crt_stdio_output@@@2@@__crt_stdio_output@@AEAA_NXZ 0000000140037da0 f i libucrt:output.obj
 0001:00036dbc       ?state_case_percent@?$output_processor@_WV?$stream_output_adapter@_W@__crt_stdio_output@@V?$positional_parameter_base@_WV?$stream_output_adapter@_W@__crt_stdio_output@@@2@@__crt_stdio_output@@AEAA_NXZ 0000000140037dbc f i libucrt:output.obj
 0001:00036dd8       ?state_case_percent@?$output_processor@_WV?$stream_output_adapter@_W@__crt_stdio_output@@V?$standard_base@_WV?$stream_output_adapter@_W@__crt_stdio_output@@@2@@__crt_stdio_output@@AEAA_NXZ 0000000140037dd8 f i libucrt:output.obj
 0001:00036df4       ?state_case_percent@?$output_processor@_WV?$string_output_adapter@_W@__crt_stdio_output@@V?$format_validation_base@_WV?$string_output_adapter@_W@__crt_stdio_output@@@2@@__crt_stdio_output@@AEAA_NXZ 0000000140037df4 f i libucrt:output.obj
 0001:00036e10       ?state_case_percent@?$output_processor@_WV?$string_output_adapter@_W@__crt_stdio_output@@V?$positional_parameter_base@_WV?$string_output_adapter@_W@__crt_stdio_output@@@2@@__crt_stdio_output@@AEAA_NXZ 0000000140037e10 f i libucrt:output.obj
 0001:00036e2c       ?state_case_percent@?$output_processor@_WV?$string_output_adapter@_W@__crt_stdio_output@@V?$standard_base@_WV?$string_output_adapter@_W@__crt_stdio_output@@@2@@__crt_stdio_output@@AEAA_NXZ 0000000140037e2c f i libucrt:output.obj
 0001:00036e48       ?state_case_precision@?$output_processor@DV?$stream_output_adapter@D@__crt_stdio_output@@V?$format_validation_base@DV?$stream_output_adapter@D@__crt_stdio_output@@@2@@__crt_stdio_output@@AEAA_NXZ 0000000140037e48 f i libucrt:output.obj
 0001:00036e78       ?state_case_precision@?$output_processor@DV?$stream_output_adapter@D@__crt_stdio_output@@V?$positional_parameter_base@DV?$stream_output_adapter@D@__crt_stdio_output@@@2@@__crt_stdio_output@@AEAA_NXZ 0000000140037e78 f i libucrt:output.obj
 0001:00036ed4       ?state_case_precision@?$output_processor@DV?$stream_output_adapter@D@__crt_stdio_output@@V?$standard_base@DV?$stream_output_adapter@D@__crt_stdio_output@@@2@@__crt_stdio_output@@AEAA_NXZ 0000000140037ed4 f i libucrt:output.obj
 0001:00036f04       ?state_case_precision@?$output_processor@DV?$string_output_adapter@D@__crt_stdio_output@@V?$format_validation_base@DV?$string_output_adapter@D@__crt_stdio_output@@@2@@__crt_stdio_output@@AEAA_NXZ 0000000140037f04 f i libucrt:output.obj
 0001:00036f34       ?state_case_precision@?$output_processor@DV?$string_output_adapter@D@__crt_stdio_output@@V?$positional_parameter_base@DV?$string_output_adapter@D@__crt_stdio_output@@@2@@__crt_stdio_output@@AEAA_NXZ 0000000140037f34 f i libucrt:output.obj
 0001:00036f90       ?state_case_precision@?$output_processor@DV?$string_output_adapter@D@__crt_stdio_output@@V?$standard_base@DV?$string_output_adapter@D@__crt_stdio_output@@@2@@__crt_stdio_output@@AEAA_NXZ 0000000140037f90 f i libucrt:output.obj
 0001:00036fc0       ?state_case_precision@?$output_processor@_WV?$stream_output_adapter@_W@__crt_stdio_output@@V?$format_validation_base@_WV?$stream_output_adapter@_W@__crt_stdio_output@@@2@@__crt_stdio_output@@AEAA_NXZ 0000000140037fc0 f i libucrt:output.obj
 0001:00036ff4       ?state_case_precision@?$output_processor@_WV?$stream_output_adapter@_W@__crt_stdio_output@@V?$positional_parameter_base@_WV?$stream_output_adapter@_W@__crt_stdio_output@@@2@@__crt_stdio_output@@AEAA_NXZ 0000000140037ff4 f i libucrt:output.obj
 0001:00037054       ?state_case_precision@?$output_processor@_WV?$stream_output_adapter@_W@__crt_stdio_output@@V?$standard_base@_WV?$stream_output_adapter@_W@__crt_stdio_output@@@2@@__crt_stdio_output@@AEAA_NXZ 0000000140038054 f i libucrt:output.obj
 0001:00037088       ?state_case_precision@?$output_processor@_WV?$string_output_adapter@_W@__crt_stdio_output@@V?$format_validation_base@_WV?$string_output_adapter@_W@__crt_stdio_output@@@2@@__crt_stdio_output@@AEAA_NXZ 0000000140038088 f i libucrt:output.obj
 0001:000370bc       ?state_case_precision@?$output_processor@_WV?$string_output_adapter@_W@__crt_stdio_output@@V?$positional_parameter_base@_WV?$string_output_adapter@_W@__crt_stdio_output@@@2@@__crt_stdio_output@@AEAA_NXZ 00000001400380bc f i libucrt:output.obj
 0001:0003711c       ?state_case_precision@?$output_processor@_WV?$string_output_adapter@_W@__crt_stdio_output@@V?$standard_base@_WV?$string_output_adapter@_W@__crt_stdio_output@@@2@@__crt_stdio_output@@AEAA_NXZ 000000014003811c f i libucrt:output.obj
 0001:00037150       ?state_case_size@?$output_processor@DV?$stream_output_adapter@D@__crt_stdio_output@@V?$format_validation_base@DV?$stream_output_adapter@D@__crt_stdio_output@@@2@@__crt_stdio_output@@AEAA_NXZ 0000000140038150 f i libucrt:output.obj
 0001:00037318       ?state_case_size@?$output_processor@DV?$stream_output_adapter@D@__crt_stdio_output@@V?$positional_parameter_base@DV?$stream_output_adapter@D@__crt_stdio_output@@@2@@__crt_stdio_output@@AEAA_NXZ 0000000140038318 f i libucrt:output.obj
 0001:000374e0       ?state_case_size@?$output_processor@DV?$stream_output_adapter@D@__crt_stdio_output@@V?$standard_base@DV?$stream_output_adapter@D@__crt_stdio_output@@@2@@__crt_stdio_output@@AEAA_NXZ 00000001400384e0 f i libucrt:output.obj
 0001:000376a8       ?state_case_size@?$output_processor@DV?$string_output_adapter@D@__crt_stdio_output@@V?$format_validation_base@DV?$string_output_adapter@D@__crt_stdio_output@@@2@@__crt_stdio_output@@AEAA_NXZ 00000001400386a8 f i libucrt:output.obj
 0001:00037870       ?state_case_size@?$output_processor@DV?$string_output_adapter@D@__crt_stdio_output@@V?$positional_parameter_base@DV?$string_output_adapter@D@__crt_stdio_output@@@2@@__crt_stdio_output@@AEAA_NXZ 0000000140038870 f i libucrt:output.obj
 0001:00037a38       ?state_case_size@?$output_processor@DV?$string_output_adapter@D@__crt_stdio_output@@V?$standard_base@DV?$string_output_adapter@D@__crt_stdio_output@@@2@@__crt_stdio_output@@AEAA_NXZ 0000000140038a38 f i libucrt:output.obj
 0001:00037c00       ?state_case_size@?$output_processor@_WV?$stream_output_adapter@_W@__crt_stdio_output@@V?$format_validation_base@_WV?$stream_output_adapter@_W@__crt_stdio_output@@@2@@__crt_stdio_output@@AEAA_NXZ 0000000140038c00 f i libucrt:output.obj
 0001:00037df8       ?state_case_size@?$output_processor@_WV?$stream_output_adapter@_W@__crt_stdio_output@@V?$positional_parameter_base@_WV?$stream_output_adapter@_W@__crt_stdio_output@@@2@@__crt_stdio_output@@AEAA_NXZ 0000000140038df8 f i libucrt:output.obj
 0001:00037ff0       ?state_case_size@?$output_processor@_WV?$stream_output_adapter@_W@__crt_stdio_output@@V?$standard_base@_WV?$stream_output_adapter@_W@__crt_stdio_output@@@2@@__crt_stdio_output@@AEAA_NXZ 0000000140038ff0 f i libucrt:output.obj
 0001:000381e8       ?state_case_size@?$output_processor@_WV?$string_output_adapter@_W@__crt_stdio_output@@V?$format_validation_base@_WV?$string_output_adapter@_W@__crt_stdio_output@@@2@@__crt_stdio_output@@AEAA_NXZ 00000001400391e8 f i libucrt:output.obj
 0001:000383e0       ?state_case_size@?$output_processor@_WV?$string_output_adapter@_W@__crt_stdio_output@@V?$positional_parameter_base@_WV?$string_output_adapter@_W@__crt_stdio_output@@@2@@__crt_stdio_output@@AEAA_NXZ 00000001400393e0 f i libucrt:output.obj
 0001:000385d8       ?state_case_size@?$output_processor@_WV?$string_output_adapter@_W@__crt_stdio_output@@V?$standard_base@_WV?$string_output_adapter@_W@__crt_stdio_output@@@2@@__crt_stdio_output@@AEAA_NXZ 00000001400395d8 f i libucrt:output.obj
 0001:000387d0       ?state_case_type@?$output_processor@DV?$stream_output_adapter@D@__crt_stdio_output@@V?$format_validation_base@DV?$stream_output_adapter@D@__crt_stdio_output@@@2@@__crt_stdio_output@@AEAA_NXZ 00000001400397d0 f i libucrt:output.obj
 0001:00038af8       ?state_case_type@?$output_processor@DV?$stream_output_adapter@D@__crt_stdio_output@@V?$positional_parameter_base@DV?$stream_output_adapter@D@__crt_stdio_output@@@2@@__crt_stdio_output@@AEAA_NXZ 0000000140039af8 f i libucrt:output.obj
 0001:00038e38       ?state_case_type@?$output_processor@DV?$stream_output_adapter@D@__crt_stdio_output@@V?$standard_base@DV?$stream_output_adapter@D@__crt_stdio_output@@@2@@__crt_stdio_output@@AEAA_NXZ 0000000140039e38 f i libucrt:output.obj
 0001:00039160       ?state_case_type@?$output_processor@DV?$string_output_adapter@D@__crt_stdio_output@@V?$format_validation_base@DV?$string_output_adapter@D@__crt_stdio_output@@@2@@__crt_stdio_output@@AEAA_NXZ 000000014003a160 f i libucrt:output.obj
 0001:00039460       ?state_case_type@?$output_processor@DV?$string_output_adapter@D@__crt_stdio_output@@V?$positional_parameter_base@DV?$string_output_adapter@D@__crt_stdio_output@@@2@@__crt_stdio_output@@AEAA_NXZ 000000014003a460 f i libucrt:output.obj
 0001:0003977c       ?state_case_type@?$output_processor@DV?$string_output_adapter@D@__crt_stdio_output@@V?$standard_base@DV?$string_output_adapter@D@__crt_stdio_output@@@2@@__crt_stdio_output@@AEAA_NXZ 000000014003a77c f i libucrt:output.obj
 0001:00039a7c       ?state_case_type@?$output_processor@_WV?$stream_output_adapter@_W@__crt_stdio_output@@V?$format_validation_base@_WV?$stream_output_adapter@_W@__crt_stdio_output@@@2@@__crt_stdio_output@@AEAA_NXZ 000000014003aa7c f i libucrt:output.obj
 0001:00039e10       ?state_case_type@?$output_processor@_WV?$stream_output_adapter@_W@__crt_stdio_output@@V?$positional_parameter_base@_WV?$stream_output_adapter@_W@__crt_stdio_output@@@2@@__crt_stdio_output@@AEAA_NXZ 000000014003ae10 f i libucrt:output.obj
 0001:0003a1c0       ?state_case_type@?$output_processor@_WV?$stream_output_adapter@_W@__crt_stdio_output@@V?$standard_base@_WV?$stream_output_adapter@_W@__crt_stdio_output@@@2@@__crt_stdio_output@@AEAA_NXZ 000000014003b1c0 f i libucrt:output.obj
 0001:0003a554       ?state_case_type@?$output_processor@_WV?$string_output_adapter@_W@__crt_stdio_output@@V?$format_validation_base@_WV?$string_output_adapter@_W@__crt_stdio_output@@@2@@__crt_stdio_output@@AEAA_NXZ 000000014003b554 f i libucrt:output.obj
 0001:0003a8d0       ?state_case_type@?$output_processor@_WV?$string_output_adapter@_W@__crt_stdio_output@@V?$positional_parameter_base@_WV?$string_output_adapter@_W@__crt_stdio_output@@@2@@__crt_stdio_output@@AEAA_NXZ 000000014003b8d0 f i libucrt:output.obj
 0001:0003ac68       ?state_case_type@?$output_processor@_WV?$string_output_adapter@_W@__crt_stdio_output@@V?$standard_base@_WV?$string_output_adapter@_W@__crt_stdio_output@@@2@@__crt_stdio_output@@AEAA_NXZ 000000014003bc68 f i libucrt:output.obj
 0001:0003afe4       ?state_case_width@?$output_processor@DV?$stream_output_adapter@D@__crt_stdio_output@@V?$format_validation_base@DV?$stream_output_adapter@D@__crt_stdio_output@@@2@@__crt_stdio_output@@AEAA_NXZ 000000014003bfe4 f i libucrt:output.obj
 0001:0003b024       ?state_case_width@?$output_processor@DV?$stream_output_adapter@D@__crt_stdio_output@@V?$positional_parameter_base@DV?$stream_output_adapter@D@__crt_stdio_output@@@2@@__crt_stdio_output@@AEAA_NXZ 000000014003c024 f i libucrt:output.obj
 0001:0003b088       ?state_case_width@?$output_processor@DV?$stream_output_adapter@D@__crt_stdio_output@@V?$standard_base@DV?$stream_output_adapter@D@__crt_stdio_output@@@2@@__crt_stdio_output@@AEAA_NXZ 000000014003c088 f i libucrt:output.obj
 0001:0003b0c8       ?state_case_width@?$output_processor@DV?$string_output_adapter@D@__crt_stdio_output@@V?$format_validation_base@DV?$string_output_adapter@D@__crt_stdio_output@@@2@@__crt_stdio_output@@AEAA_NXZ 000000014003c0c8 f i libucrt:output.obj
 0001:0003b108       ?state_case_width@?$output_processor@DV?$string_output_adapter@D@__crt_stdio_output@@V?$positional_parameter_base@DV?$string_output_adapter@D@__crt_stdio_output@@@2@@__crt_stdio_output@@AEAA_NXZ 000000014003c108 f i libucrt:output.obj
 0001:0003b16c       ?state_case_width@?$output_processor@DV?$string_output_adapter@D@__crt_stdio_output@@V?$standard_base@DV?$string_output_adapter@D@__crt_stdio_output@@@2@@__crt_stdio_output@@AEAA_NXZ 000000014003c16c f i libucrt:output.obj
 0001:0003b1ac       ?state_case_width@?$output_processor@_WV?$stream_output_adapter@_W@__crt_stdio_output@@V?$format_validation_base@_WV?$stream_output_adapter@_W@__crt_stdio_output@@@2@@__crt_stdio_output@@AEAA_NXZ 000000014003c1ac f i libucrt:output.obj
 0001:0003b1ec       ?state_case_width@?$output_processor@_WV?$stream_output_adapter@_W@__crt_stdio_output@@V?$positional_parameter_base@_WV?$stream_output_adapter@_W@__crt_stdio_output@@@2@@__crt_stdio_output@@AEAA_NXZ 000000014003c1ec f i libucrt:output.obj
 0001:0003b254       ?state_case_width@?$output_processor@_WV?$stream_output_adapter@_W@__crt_stdio_output@@V?$standard_base@_WV?$stream_output_adapter@_W@__crt_stdio_output@@@2@@__crt_stdio_output@@AEAA_NXZ 000000014003c254 f i libucrt:output.obj
 0001:0003b294       ?state_case_width@?$output_processor@_WV?$string_output_adapter@_W@__crt_stdio_output@@V?$format_validation_base@_WV?$string_output_adapter@_W@__crt_stdio_output@@@2@@__crt_stdio_output@@AEAA_NXZ 000000014003c294 f i libucrt:output.obj
 0001:0003b2d4       ?state_case_width@?$output_processor@_WV?$string_output_adapter@_W@__crt_stdio_output@@V?$positional_parameter_base@_WV?$string_output_adapter@_W@__crt_stdio_output@@@2@@__crt_stdio_output@@AEAA_NXZ 000000014003c2d4 f i libucrt:output.obj
 0001:0003b33c       ?state_case_width@?$output_processor@_WV?$string_output_adapter@_W@__crt_stdio_output@@V?$standard_base@_WV?$string_output_adapter@_W@__crt_stdio_output@@@2@@__crt_stdio_output@@AEAA_NXZ 000000014003c33c f i libucrt:output.obj
 0001:0003b37c       ?state_count@?$format_validation_base@DV?$stream_output_adapter@D@__crt_stdio_output@@@__crt_stdio_output@@KAIXZ 000000014003c37c f i libucrt:output.obj
 0001:0003b384       ?state_count@?$format_validation_base@DV?$string_output_adapter@D@__crt_stdio_output@@@__crt_stdio_output@@KAIXZ 000000014003c384 f i libucrt:output.obj
 0001:0003b38c       ?state_count@?$format_validation_base@_WV?$stream_output_adapter@_W@__crt_stdio_output@@@__crt_stdio_output@@KAIXZ 000000014003c38c f i libucrt:output.obj
 0001:0003b394       ?state_count@?$format_validation_base@_WV?$string_output_adapter@_W@__crt_stdio_output@@@__crt_stdio_output@@KAIXZ 000000014003c394 f i libucrt:output.obj
 0001:0003b39c       ?state_count@?$standard_base@DV?$stream_output_adapter@D@__crt_stdio_output@@@__crt_stdio_output@@KAIXZ 000000014003c39c f i libucrt:output.obj
 0001:0003b3a4       ?state_count@?$standard_base@DV?$string_output_adapter@D@__crt_stdio_output@@@__crt_stdio_output@@KAIXZ 000000014003c3a4 f i libucrt:output.obj
 0001:0003b3ac       ?state_count@?$standard_base@_WV?$stream_output_adapter@_W@__crt_stdio_output@@@__crt_stdio_output@@KAIXZ 000000014003c3ac f i libucrt:output.obj
 0001:0003b3b4       ?state_count@?$standard_base@_WV?$string_output_adapter@_W@__crt_stdio_output@@@__crt_stdio_output@@KAIXZ 000000014003c3b4 f i libucrt:output.obj
 0001:0003b3bc       ?state_transition_table@?$format_validation_base@DV?$stream_output_adapter@D@__crt_stdio_output@@@__crt_stdio_output@@KAAEBV?$spectre_mitigated_lookup_table@Ustate_transition_pair@__crt_stdio_output@@$0IA@@2@XZ 000000014003c3bc f i libucrt:output.obj
 0001:0003b3c8       ?state_transition_table@?$format_validation_base@DV?$string_output_adapter@D@__crt_stdio_output@@@__crt_stdio_output@@KAAEBV?$spectre_mitigated_lookup_table@Ustate_transition_pair@__crt_stdio_output@@$0IA@@2@XZ 000000014003c3c8 f i libucrt:output.obj
 0001:0003b3d4       ?state_transition_table@?$format_validation_base@_WV?$stream_output_adapter@_W@__crt_stdio_output@@@__crt_stdio_output@@KAAEBV?$spectre_mitigated_lookup_table@Ustate_transition_pair@__crt_stdio_output@@$0IA@@2@XZ 000000014003c3d4 f i libucrt:output.obj
 0001:0003b3e0       ?state_transition_table@?$format_validation_base@_WV?$string_output_adapter@_W@__crt_stdio_output@@@__crt_stdio_output@@KAAEBV?$spectre_mitigated_lookup_table@Ustate_transition_pair@__crt_stdio_output@@$0IA@@2@XZ 000000014003c3e0 f i libucrt:output.obj
 0001:0003b3ec       ?state_transition_table@?$standard_base@DV?$stream_output_adapter@D@__crt_stdio_output@@@__crt_stdio_output@@KAAEBV?$spectre_mitigated_lookup_table@Ustate_transition_pair@__crt_stdio_output@@$0IA@@2@XZ 000000014003c3ec f i libucrt:output.obj
 0001:0003b3f8       ?state_transition_table@?$standard_base@DV?$string_output_adapter@D@__crt_stdio_output@@@__crt_stdio_output@@KAAEBV?$spectre_mitigated_lookup_table@Ustate_transition_pair@__crt_stdio_output@@$0IA@@2@XZ 000000014003c3f8 f i libucrt:output.obj
 0001:0003b404       ?state_transition_table@?$standard_base@_WV?$stream_output_adapter@_W@__crt_stdio_output@@@__crt_stdio_output@@KAAEBV?$spectre_mitigated_lookup_table@Ustate_transition_pair@__crt_stdio_output@@$0IA@@2@XZ 000000014003c404 f i libucrt:output.obj
 0001:0003b410       ?state_transition_table@?$standard_base@_WV?$string_output_adapter@_W@__crt_stdio_output@@@__crt_stdio_output@@KAAEBV?$spectre_mitigated_lookup_table@Ustate_transition_pair@__crt_stdio_output@@$0IA@@2@XZ 000000014003c410 f i libucrt:output.obj
 0001:0003b41c       ?tchar_string@?$common_data@D@__crt_stdio_output@@IEAAAEAPEADD@Z 000000014003c41c f i libucrt:output.obj
 0001:0003b424       ?tchar_string@?$common_data@D@__crt_stdio_output@@IEAAAEAPEADXZ 000000014003c424 f i libucrt:output.obj
 0001:0003b42c       ?tchar_string@?$common_data@_W@__crt_stdio_output@@IEAAAEAPEA_WXZ 000000014003c42c f i libucrt:output.obj
 0001:0003b434       ?tchar_string@?$common_data@_W@__crt_stdio_output@@IEAAAEAPEA_W_W@Z 000000014003c434 f i libucrt:output.obj
 0001:0003b440       ?to_integer_size@__crt_stdio_output@@YA_KW4length_modifier@1@@Z 000000014003c440 f i libucrt:output.obj
 0001:0003b4c4       ?type_case_X@?$output_processor@DV?$stream_output_adapter@D@__crt_stdio_output@@V?$format_validation_base@DV?$stream_output_adapter@D@__crt_stdio_output@@@2@@__crt_stdio_output@@AEAA_NXZ 000000014003c4c4 f i libucrt:output.obj
 0001:0003b4d4       ?type_case_X@?$output_processor@DV?$stream_output_adapter@D@__crt_stdio_output@@V?$positional_parameter_base@DV?$stream_output_adapter@D@__crt_stdio_output@@@2@@__crt_stdio_output@@AEAA_NXZ 000000014003c4d4 f i libucrt:output.obj
 0001:0003b4e4       ?type_case_X@?$output_processor@DV?$stream_output_adapter@D@__crt_stdio_output@@V?$standard_base@DV?$stream_output_adapter@D@__crt_stdio_output@@@2@@__crt_stdio_output@@AEAA_NXZ 000000014003c4e4 f i libucrt:output.obj
 0001:0003b4f4       ?type_case_X@?$output_processor@DV?$string_output_adapter@D@__crt_stdio_output@@V?$format_validation_base@DV?$string_output_adapter@D@__crt_stdio_output@@@2@@__crt_stdio_output@@AEAA_NXZ 000000014003c4f4 f i libucrt:output.obj
 0001:0003b504       ?type_case_X@?$output_processor@DV?$string_output_adapter@D@__crt_stdio_output@@V?$positional_parameter_base@DV?$string_output_adapter@D@__crt_stdio_output@@@2@@__crt_stdio_output@@AEAA_NXZ 000000014003c504 f i libucrt:output.obj
 0001:0003b514       ?type_case_X@?$output_processor@DV?$string_output_adapter@D@__crt_stdio_output@@V?$standard_base@DV?$string_output_adapter@D@__crt_stdio_output@@@2@@__crt_stdio_output@@AEAA_NXZ 000000014003c514 f i libucrt:output.obj
 0001:0003b524       ?type_case_X@?$output_processor@_WV?$stream_output_adapter@_W@__crt_stdio_output@@V?$format_validation_base@_WV?$stream_output_adapter@_W@__crt_stdio_output@@@2@@__crt_stdio_output@@AEAA_NXZ 000000014003c524 f i libucrt:output.obj
 0001:0003b534       ?type_case_X@?$output_processor@_WV?$stream_output_adapter@_W@__crt_stdio_output@@V?$positional_parameter_base@_WV?$stream_output_adapter@_W@__crt_stdio_output@@@2@@__crt_stdio_output@@AEAA_NXZ 000000014003c534 f i libucrt:output.obj
 0001:0003b544       ?type_case_X@?$output_processor@_WV?$stream_output_adapter@_W@__crt_stdio_output@@V?$standard_base@_WV?$stream_output_adapter@_W@__crt_stdio_output@@@2@@__crt_stdio_output@@AEAA_NXZ 000000014003c544 f i libucrt:output.obj
 0001:0003b554       ?type_case_X@?$output_processor@_WV?$string_output_adapter@_W@__crt_stdio_output@@V?$format_validation_base@_WV?$string_output_adapter@_W@__crt_stdio_output@@@2@@__crt_stdio_output@@AEAA_NXZ 000000014003c554 f i libucrt:output.obj
 0001:0003b564       ?type_case_X@?$output_processor@_WV?$string_output_adapter@_W@__crt_stdio_output@@V?$positional_parameter_base@_WV?$string_output_adapter@_W@__crt_stdio_output@@@2@@__crt_stdio_output@@AEAA_NXZ 000000014003c564 f i libucrt:output.obj
 0001:0003b574       ?type_case_X@?$output_processor@_WV?$string_output_adapter@_W@__crt_stdio_output@@V?$standard_base@_WV?$string_output_adapter@_W@__crt_stdio_output@@@2@@__crt_stdio_output@@AEAA_NXZ 000000014003c574 f i libucrt:output.obj
 0001:0003b584       ?type_case_Z@?$output_processor@DV?$stream_output_adapter@D@__crt_stdio_output@@V?$format_validation_base@DV?$stream_output_adapter@D@__crt_stdio_output@@@2@@__crt_stdio_output@@AEAA_NXZ 000000014003c584 f i libucrt:output.obj
 0001:0003b614       ?type_case_Z@?$output_processor@DV?$stream_output_adapter@D@__crt_stdio_output@@V?$positional_parameter_base@DV?$stream_output_adapter@D@__crt_stdio_output@@@2@@__crt_stdio_output@@AEAA_NXZ 000000014003c614 f i libucrt:output.obj
 0001:0003b6dc       ?type_case_Z@?$output_processor@DV?$stream_output_adapter@D@__crt_stdio_output@@V?$standard_base@DV?$stream_output_adapter@D@__crt_stdio_output@@@2@@__crt_stdio_output@@AEAA_NXZ 000000014003c6dc f i libucrt:output.obj
 0001:0003b76c       ?type_case_Z@?$output_processor@DV?$string_output_adapter@D@__crt_stdio_output@@V?$format_validation_base@DV?$string_output_adapter@D@__crt_stdio_output@@@2@@__crt_stdio_output@@AEAA_NXZ 000000014003c76c f i libucrt:output.obj
 0001:0003b7fc       ?type_case_Z@?$output_processor@DV?$string_output_adapter@D@__crt_stdio_output@@V?$positional_parameter_base@DV?$string_output_adapter@D@__crt_stdio_output@@@2@@__crt_stdio_output@@AEAA_NXZ 000000014003c7fc f i libucrt:output.obj
 0001:0003b8c4       ?type_case_Z@?$output_processor@DV?$string_output_adapter@D@__crt_stdio_output@@V?$standard_base@DV?$string_output_adapter@D@__crt_stdio_output@@@2@@__crt_stdio_output@@AEAA_NXZ 000000014003c8c4 f i libucrt:output.obj
 0001:0003b954       ?type_case_Z@?$output_processor@_WV?$stream_output_adapter@_W@__crt_stdio_output@@V?$format_validation_base@_WV?$stream_output_adapter@_W@__crt_stdio_output@@@2@@__crt_stdio_output@@AEAA_NXZ 000000014003c954 f i libucrt:output.obj
 0001:0003b9ec       ?type_case_Z@?$output_processor@_WV?$stream_output_adapter@_W@__crt_stdio_output@@V?$positional_parameter_base@_WV?$stream_output_adapter@_W@__crt_stdio_output@@@2@@__crt_stdio_output@@AEAA_NXZ 000000014003c9ec f i libucrt:output.obj
 0001:0003baa8       ?type_case_Z@?$output_processor@_WV?$stream_output_adapter@_W@__crt_stdio_output@@V?$standard_base@_WV?$stream_output_adapter@_W@__crt_stdio_output@@@2@@__crt_stdio_output@@AEAA_NXZ 000000014003caa8 f i libucrt:output.obj
 0001:0003bb40       ?type_case_Z@?$output_processor@_WV?$string_output_adapter@_W@__crt_stdio_output@@V?$format_validation_base@_WV?$string_output_adapter@_W@__crt_stdio_output@@@2@@__crt_stdio_output@@AEAA_NXZ 000000014003cb40 f i libucrt:output.obj
 0001:0003bbd8       ?type_case_Z@?$output_processor@_WV?$string_output_adapter@_W@__crt_stdio_output@@V?$positional_parameter_base@_WV?$string_output_adapter@_W@__crt_stdio_output@@@2@@__crt_stdio_output@@AEAA_NXZ 000000014003cbd8 f i libucrt:output.obj
 0001:0003bc94       ?type_case_Z@?$output_processor@_WV?$string_output_adapter@_W@__crt_stdio_output@@V?$standard_base@_WV?$string_output_adapter@_W@__crt_stdio_output@@@2@@__crt_stdio_output@@AEAA_NXZ 000000014003cc94 f i libucrt:output.obj
 0001:0003bd2c       ?type_case_a@?$output_processor@DV?$stream_output_adapter@D@__crt_stdio_output@@V?$format_validation_base@DV?$stream_output_adapter@D@__crt_stdio_output@@@2@@__crt_stdio_output@@AEAA_NXZ 000000014003cd2c f i libucrt:output.obj
 0001:0003bf58       ?type_case_a@?$output_processor@DV?$stream_output_adapter@D@__crt_stdio_output@@V?$positional_parameter_base@DV?$stream_output_adapter@D@__crt_stdio_output@@@2@@__crt_stdio_output@@AEAA_NXZ 000000014003cf58 f i libucrt:output.obj
 0001:0003c1d0       ?type_case_a@?$output_processor@DV?$stream_output_adapter@D@__crt_stdio_output@@V?$standard_base@DV?$stream_output_adapter@D@__crt_stdio_output@@@2@@__crt_stdio_output@@AEAA_NXZ 000000014003d1d0 f i libucrt:output.obj
 0001:0003c3fc       ?type_case_a@?$output_processor@DV?$string_output_adapter@D@__crt_stdio_output@@V?$format_validation_base@DV?$string_output_adapter@D@__crt_stdio_output@@@2@@__crt_stdio_output@@AEAA_NXZ 000000014003d3fc f i libucrt:output.obj
 0001:0003c628       ?type_case_a@?$output_processor@DV?$string_output_adapter@D@__crt_stdio_output@@V?$positional_parameter_base@DV?$string_output_adapter@D@__crt_stdio_output@@@2@@__crt_stdio_output@@AEAA_NXZ 000000014003d628 f i libucrt:output.obj
 0001:0003c8a0       ?type_case_a@?$output_processor@DV?$string_output_adapter@D@__crt_stdio_output@@V?$standard_base@DV?$string_output_adapter@D@__crt_stdio_output@@@2@@__crt_stdio_output@@AEAA_NXZ 000000014003d8a0 f i libucrt:output.obj
 0001:0003cacc       ?type_case_a@?$output_processor@_WV?$stream_output_adapter@_W@__crt_stdio_output@@V?$format_validation_base@_WV?$stream_output_adapter@_W@__crt_stdio_output@@@2@@__crt_stdio_output@@AEAA_NXZ 000000014003dacc f i libucrt:output.obj
 0001:0003cd24       ?type_case_a@?$output_processor@_WV?$stream_output_adapter@_W@__crt_stdio_output@@V?$positional_parameter_base@_WV?$stream_output_adapter@_W@__crt_stdio_output@@@2@@__crt_stdio_output@@AEAA_NXZ 000000014003dd24 f i libucrt:output.obj
 0001:0003cfc8       ?type_case_a@?$output_processor@_WV?$stream_output_adapter@_W@__crt_stdio_output@@V?$standard_base@_WV?$stream_output_adapter@_W@__crt_stdio_output@@@2@@__crt_stdio_output@@AEAA_NXZ 000000014003dfc8 f i libucrt:output.obj
 0001:0003d220       ?type_case_a@?$output_processor@_WV?$string_output_adapter@_W@__crt_stdio_output@@V?$format_validation_base@_WV?$string_output_adapter@_W@__crt_stdio_output@@@2@@__crt_stdio_output@@AEAA_NXZ 000000014003e220 f i libucrt:output.obj
 0001:0003d478       ?type_case_a@?$output_processor@_WV?$string_output_adapter@_W@__crt_stdio_output@@V?$positional_parameter_base@_WV?$string_output_adapter@_W@__crt_stdio_output@@@2@@__crt_stdio_output@@AEAA_NXZ 000000014003e478 f i libucrt:output.obj
 0001:0003d71c       ?type_case_a@?$output_processor@_WV?$string_output_adapter@_W@__crt_stdio_output@@V?$standard_base@_WV?$string_output_adapter@_W@__crt_stdio_output@@@2@@__crt_stdio_output@@AEAA_NXZ 000000014003e71c f i libucrt:output.obj
 0001:0003d974       ?type_case_c@?$output_processor@DV?$stream_output_adapter@D@__crt_stdio_output@@V?$format_validation_base@DV?$stream_output_adapter@D@__crt_stdio_output@@@2@@__crt_stdio_output@@AEAA_NXZ 000000014003e974 f i libucrt:output.obj
 0001:0003d97c       ?type_case_c@?$output_processor@DV?$stream_output_adapter@D@__crt_stdio_output@@V?$positional_parameter_base@DV?$stream_output_adapter@D@__crt_stdio_output@@@2@@__crt_stdio_output@@AEAA_NXZ 000000014003e97c f i libucrt:output.obj
 0001:0003d984       ?type_case_c@?$output_processor@DV?$stream_output_adapter@D@__crt_stdio_output@@V?$standard_base@DV?$stream_output_adapter@D@__crt_stdio_output@@@2@@__crt_stdio_output@@AEAA_NXZ 000000014003e984 f i libucrt:output.obj
 0001:0003d98c       ?type_case_c@?$output_processor@DV?$string_output_adapter@D@__crt_stdio_output@@V?$format_validation_base@DV?$string_output_adapter@D@__crt_stdio_output@@@2@@__crt_stdio_output@@AEAA_NXZ 000000014003e98c f i libucrt:output.obj
 0001:0003d994       ?type_case_c@?$output_processor@DV?$string_output_adapter@D@__crt_stdio_output@@V?$positional_parameter_base@DV?$string_output_adapter@D@__crt_stdio_output@@@2@@__crt_stdio_output@@AEAA_NXZ 000000014003e994 f i libucrt:output.obj
 0001:0003d99c       ?type_case_c@?$output_processor@DV?$string_output_adapter@D@__crt_stdio_output@@V?$standard_base@DV?$string_output_adapter@D@__crt_stdio_output@@@2@@__crt_stdio_output@@AEAA_NXZ 000000014003e99c f i libucrt:output.obj
 0001:0003d9a4       ?type_case_c@?$output_processor@_WV?$stream_output_adapter@_W@__crt_stdio_output@@V?$format_validation_base@_WV?$stream_output_adapter@_W@__crt_stdio_output@@@2@@__crt_stdio_output@@AEAA_NXZ 000000014003e9a4 f i libucrt:output.obj
 0001:0003d9ac       ?type_case_c@?$output_processor@_WV?$stream_output_adapter@_W@__crt_stdio_output@@V?$positional_parameter_base@_WV?$stream_output_adapter@_W@__crt_stdio_output@@@2@@__crt_stdio_output@@AEAA_NXZ 000000014003e9ac f i libucrt:output.obj
 0001:0003d9b4       ?type_case_c@?$output_processor@_WV?$stream_output_adapter@_W@__crt_stdio_output@@V?$standard_base@_WV?$stream_output_adapter@_W@__crt_stdio_output@@@2@@__crt_stdio_output@@AEAA_NXZ 000000014003e9b4 f i libucrt:output.obj
 0001:0003d9bc       ?type_case_c@?$output_processor@_WV?$string_output_adapter@_W@__crt_stdio_output@@V?$format_validation_base@_WV?$string_output_adapter@_W@__crt_stdio_output@@@2@@__crt_stdio_output@@AEAA_NXZ 000000014003e9bc f i libucrt:output.obj
 0001:0003d9c4       ?type_case_c@?$output_processor@_WV?$string_output_adapter@_W@__crt_stdio_output@@V?$positional_parameter_base@_WV?$string_output_adapter@_W@__crt_stdio_output@@@2@@__crt_stdio_output@@AEAA_NXZ 000000014003e9c4 f i libucrt:output.obj
 0001:0003d9cc       ?type_case_c@?$output_processor@_WV?$string_output_adapter@_W@__crt_stdio_output@@V?$standard_base@_WV?$string_output_adapter@_W@__crt_stdio_output@@@2@@__crt_stdio_output@@AEAA_NXZ 000000014003e9cc f i libucrt:output.obj
 0001:0003d9d4       ?type_case_c_tchar@?$output_processor@DV?$stream_output_adapter@D@__crt_stdio_output@@V?$format_validation_base@DV?$stream_output_adapter@D@__crt_stdio_output@@@2@@__crt_stdio_output@@AEAA_ND@Z 000000014003e9d4 f i libucrt:output.obj
 0001:0003dacc       ?type_case_c_tchar@?$output_processor@DV?$stream_output_adapter@D@__crt_stdio_output@@V?$positional_parameter_base@DV?$stream_output_adapter@D@__crt_stdio_output@@@2@@__crt_stdio_output@@AEAA_ND@Z 000000014003eacc f i libucrt:output.obj
 0001:0003dc1c       ?type_case_c_tchar@?$output_processor@DV?$stream_output_adapter@D@__crt_stdio_output@@V?$standard_base@DV?$stream_output_adapter@D@__crt_stdio_output@@@2@@__crt_stdio_output@@AEAA_ND@Z 000000014003ec1c f i libucrt:output.obj
 0001:0003dd14       ?type_case_c_tchar@?$output_processor@DV?$string_output_adapter@D@__crt_stdio_output@@V?$format_validation_base@DV?$string_output_adapter@D@__crt_stdio_output@@@2@@__crt_stdio_output@@AEAA_ND@Z 000000014003ed14 f i libucrt:output.obj
 0001:0003de0c       ?type_case_c_tchar@?$output_processor@DV?$string_output_adapter@D@__crt_stdio_output@@V?$positional_parameter_base@DV?$string_output_adapter@D@__crt_stdio_output@@@2@@__crt_stdio_output@@AEAA_ND@Z 000000014003ee0c f i libucrt:output.obj
 0001:0003df5c       ?type_case_c_tchar@?$output_processor@DV?$string_output_adapter@D@__crt_stdio_output@@V?$standard_base@DV?$string_output_adapter@D@__crt_stdio_output@@@2@@__crt_stdio_output@@AEAA_ND@Z 000000014003ef5c f i libucrt:output.obj
 0001:0003e054       ?type_case_c_tchar@?$output_processor@_WV?$stream_output_adapter@_W@__crt_stdio_output@@V?$format_validation_base@_WV?$stream_output_adapter@_W@__crt_stdio_output@@@2@@__crt_stdio_output@@AEAA_N_W@Z 000000014003f054 f i libucrt:output.obj
 0001:0003e124       ?type_case_c_tchar@?$output_processor@_WV?$stream_output_adapter@_W@__crt_stdio_output@@V?$positional_parameter_base@_WV?$stream_output_adapter@_W@__crt_stdio_output@@@2@@__crt_stdio_output@@AEAA_N_W@Z 000000014003f124 f i libucrt:output.obj
 0001:0003e224       ?type_case_c_tchar@?$output_processor@_WV?$stream_output_adapter@_W@__crt_stdio_output@@V?$standard_base@_WV?$stream_output_adapter@_W@__crt_stdio_output@@@2@@__crt_stdio_output@@AEAA_N_W@Z 000000014003f224 f i libucrt:output.obj
 0001:0003e2f4       ?type_case_c_tchar@?$output_processor@_WV?$string_output_adapter@_W@__crt_stdio_output@@V?$format_validation_base@_WV?$string_output_adapter@_W@__crt_stdio_output@@@2@@__crt_stdio_output@@AEAA_N_W@Z 000000014003f2f4 f i libucrt:output.obj
 0001:0003e3c4       ?type_case_c_tchar@?$output_processor@_WV?$string_output_adapter@_W@__crt_stdio_output@@V?$positional_parameter_base@_WV?$string_output_adapter@_W@__crt_stdio_output@@@2@@__crt_stdio_output@@AEAA_N_W@Z 000000014003f3c4 f i libucrt:output.obj
 0001:0003e4c4       ?type_case_c_tchar@?$output_processor@_WV?$string_output_adapter@_W@__crt_stdio_output@@V?$standard_base@_WV?$string_output_adapter@_W@__crt_stdio_output@@@2@@__crt_stdio_output@@AEAA_N_W@Z 000000014003f4c4 f i libucrt:output.obj
 0001:0003e594       ?type_case_d@?$output_processor@DV?$stream_output_adapter@D@__crt_stdio_output@@V?$format_validation_base@DV?$stream_output_adapter@D@__crt_stdio_output@@@2@@__crt_stdio_output@@AEAA_NXZ 000000014003f594 f i libucrt:output.obj
 0001:0003e5a8       ?type_case_d@?$output_processor@DV?$stream_output_adapter@D@__crt_stdio_output@@V?$positional_parameter_base@DV?$stream_output_adapter@D@__crt_stdio_output@@@2@@__crt_stdio_output@@AEAA_NXZ 000000014003f5a8 f i libucrt:output.obj
 0001:0003e5bc       ?type_case_d@?$output_processor@DV?$stream_output_adapter@D@__crt_stdio_output@@V?$standard_base@DV?$stream_output_adapter@D@__crt_stdio_output@@@2@@__crt_stdio_output@@AEAA_NXZ 000000014003f5bc f i libucrt:output.obj
 0001:0003e5d0       ?type_case_d@?$output_processor@DV?$string_output_adapter@D@__crt_stdio_output@@V?$format_validation_base@DV?$string_output_adapter@D@__crt_stdio_output@@@2@@__crt_stdio_output@@AEAA_NXZ 000000014003f5d0 f i libucrt:output.obj
 0001:0003e5e4       ?type_case_d@?$output_processor@DV?$string_output_adapter@D@__crt_stdio_output@@V?$positional_parameter_base@DV?$string_output_adapter@D@__crt_stdio_output@@@2@@__crt_stdio_output@@AEAA_NXZ 000000014003f5e4 f i libucrt:output.obj
 0001:0003e5f8       ?type_case_d@?$output_processor@DV?$string_output_adapter@D@__crt_stdio_output@@V?$standard_base@DV?$string_output_adapter@D@__crt_stdio_output@@@2@@__crt_stdio_output@@AEAA_NXZ 000000014003f5f8 f i libucrt:output.obj
 0001:0003e60c       ?type_case_d@?$output_processor@_WV?$stream_output_adapter@_W@__crt_stdio_output@@V?$format_validation_base@_WV?$stream_output_adapter@_W@__crt_stdio_output@@@2@@__crt_stdio_output@@AEAA_NXZ 000000014003f60c f i libucrt:output.obj
 0001:0003e620       ?type_case_d@?$output_processor@_WV?$stream_output_adapter@_W@__crt_stdio_output@@V?$positional_parameter_base@_WV?$stream_output_adapter@_W@__crt_stdio_output@@@2@@__crt_stdio_output@@AEAA_NXZ 000000014003f620 f i libucrt:output.obj
 0001:0003e634       ?type_case_d@?$output_processor@_WV?$stream_output_adapter@_W@__crt_stdio_output@@V?$standard_base@_WV?$stream_output_adapter@_W@__crt_stdio_output@@@2@@__crt_stdio_output@@AEAA_NXZ 000000014003f634 f i libucrt:output.obj
 0001:0003e648       ?type_case_d@?$output_processor@_WV?$string_output_adapter@_W@__crt_stdio_output@@V?$format_validation_base@_WV?$string_output_adapter@_W@__crt_stdio_output@@@2@@__crt_stdio_output@@AEAA_NXZ 000000014003f648 f i libucrt:output.obj
 0001:0003e65c       ?type_case_d@?$output_processor@_WV?$string_output_adapter@_W@__crt_stdio_output@@V?$positional_parameter_base@_WV?$string_output_adapter@_W@__crt_stdio_output@@@2@@__crt_stdio_output@@AEAA_NXZ 000000014003f65c f i libucrt:output.obj
 0001:0003e670       ?type_case_d@?$output_processor@_WV?$string_output_adapter@_W@__crt_stdio_output@@V?$standard_base@_WV?$string_output_adapter@_W@__crt_stdio_output@@@2@@__crt_stdio_output@@AEAA_NXZ 000000014003f670 f i libucrt:output.obj
 0001:0003e684       ?type_case_integer@?$output_processor@DV?$stream_output_adapter@D@__crt_stdio_output@@V?$format_validation_base@DV?$stream_output_adapter@D@__crt_stdio_output@@@2@@__crt_stdio_output@@AEAA_NI_N@Z 000000014003f684 f i libucrt:output.obj
 0001:0003e864       ?type_case_integer@?$output_processor@DV?$stream_output_adapter@D@__crt_stdio_output@@V?$positional_parameter_base@DV?$stream_output_adapter@D@__crt_stdio_output@@@2@@__crt_stdio_output@@AEAA_NI_N@Z 000000014003f864 f i libucrt:output.obj
 0001:0003ea78       ?type_case_integer@?$output_processor@DV?$stream_output_adapter@D@__crt_stdio_output@@V?$standard_base@DV?$stream_output_adapter@D@__crt_stdio_output@@@2@@__crt_stdio_output@@AEAA_NI_N@Z 000000014003fa78 f i libucrt:output.obj
 0001:0003ec58       ?type_case_integer@?$output_processor@DV?$string_output_adapter@D@__crt_stdio_output@@V?$format_validation_base@DV?$string_output_adapter@D@__crt_stdio_output@@@2@@__crt_stdio_output@@AEAA_NI_N@Z 000000014003fc58 f i libucrt:output.obj
 0001:0003ee38       ?type_case_integer@?$output_processor@DV?$string_output_adapter@D@__crt_stdio_output@@V?$positional_parameter_base@DV?$string_output_adapter@D@__crt_stdio_output@@@2@@__crt_stdio_output@@AEAA_NI_N@Z 000000014003fe38 f i libucrt:output.obj
 0001:0003f04c       ?type_case_integer@?$output_processor@DV?$string_output_adapter@D@__crt_stdio_output@@V?$standard_base@DV?$string_output_adapter@D@__crt_stdio_output@@@2@@__crt_stdio_output@@AEAA_NI_N@Z 000000014004004c f i libucrt:output.obj
 0001:0003f22c       ?type_case_integer@?$output_processor@_WV?$stream_output_adapter@_W@__crt_stdio_output@@V?$format_validation_base@_WV?$stream_output_adapter@_W@__crt_stdio_output@@@2@@__crt_stdio_output@@AEAA_NI_N@Z 000000014004022c f i libucrt:output.obj
 0001:0003f414       ?type_case_integer@?$output_processor@_WV?$stream_output_adapter@_W@__crt_stdio_output@@V?$positional_parameter_base@_WV?$stream_output_adapter@_W@__crt_stdio_output@@@2@@__crt_stdio_output@@AEAA_NI_N@Z 0000000140040414 f i libucrt:output.obj
 0001:0003f630       ?type_case_integer@?$output_processor@_WV?$stream_output_adapter@_W@__crt_stdio_output@@V?$standard_base@_WV?$stream_output_adapter@_W@__crt_stdio_output@@@2@@__crt_stdio_output@@AEAA_NI_N@Z 0000000140040630 f i libucrt:output.obj
 0001:0003f818       ?type_case_integer@?$output_processor@_WV?$string_output_adapter@_W@__crt_stdio_output@@V?$format_validation_base@_WV?$string_output_adapter@_W@__crt_stdio_output@@@2@@__crt_stdio_output@@AEAA_NI_N@Z 0000000140040818 f i libucrt:output.obj
 0001:0003fa00       ?type_case_integer@?$output_processor@_WV?$string_output_adapter@_W@__crt_stdio_output@@V?$positional_parameter_base@_WV?$string_output_adapter@_W@__crt_stdio_output@@@2@@__crt_stdio_output@@AEAA_NI_N@Z 0000000140040a00 f i libucrt:output.obj
 0001:0003fc1c       ?type_case_integer@?$output_processor@_WV?$string_output_adapter@_W@__crt_stdio_output@@V?$standard_base@_WV?$string_output_adapter@_W@__crt_stdio_output@@@2@@__crt_stdio_output@@AEAA_NI_N@Z 0000000140040c1c f i libucrt:output.obj
 0001:0003fe04       ?type_case_n@?$output_processor@DV?$stream_output_adapter@D@__crt_stdio_output@@V?$format_validation_base@DV?$stream_output_adapter@D@__crt_stdio_output@@@2@@__crt_stdio_output@@AEAA_NXZ 0000000140040e04 f i libucrt:output.obj
 0001:0003feac       ?type_case_n@?$output_processor@DV?$stream_output_adapter@D@__crt_stdio_output@@V?$positional_parameter_base@DV?$stream_output_adapter@D@__crt_stdio_output@@@2@@__crt_stdio_output@@AEAA_NXZ 0000000140040eac f i libucrt:output.obj
 0001:0003ff88       ?type_case_n@?$output_processor@DV?$stream_output_adapter@D@__crt_stdio_output@@V?$standard_base@DV?$stream_output_adapter@D@__crt_stdio_output@@@2@@__crt_stdio_output@@AEAA_NXZ 0000000140040f88 f i libucrt:output.obj
 0001:00040030       ?type_case_n@?$output_processor@DV?$string_output_adapter@D@__crt_stdio_output@@V?$format_validation_base@DV?$string_output_adapter@D@__crt_stdio_output@@@2@@__crt_stdio_output@@AEAA_NXZ 0000000140041030 f i libucrt:output.obj
 0001:000400d8       ?type_case_n@?$output_processor@DV?$string_output_adapter@D@__crt_stdio_output@@V?$positional_parameter_base@DV?$string_output_adapter@D@__crt_stdio_output@@@2@@__crt_stdio_output@@AEAA_NXZ 00000001400410d8 f i libucrt:output.obj
 0001:000401b4       ?type_case_n@?$output_processor@DV?$string_output_adapter@D@__crt_stdio_output@@V?$standard_base@DV?$string_output_adapter@D@__crt_stdio_output@@@2@@__crt_stdio_output@@AEAA_NXZ 00000001400411b4 f i libucrt:output.obj
 0001:0004025c       ?type_case_n@?$output_processor@_WV?$stream_output_adapter@_W@__crt_stdio_output@@V?$format_validation_base@_WV?$stream_output_adapter@_W@__crt_stdio_output@@@2@@__crt_stdio_output@@AEAA_NXZ 000000014004125c f i libucrt:output.obj
 0001:00040304       ?type_case_n@?$output_processor@_WV?$stream_output_adapter@_W@__crt_stdio_output@@V?$positional_parameter_base@_WV?$stream_output_adapter@_W@__crt_stdio_output@@@2@@__crt_stdio_output@@AEAA_NXZ 0000000140041304 f i libucrt:output.obj
 0001:000403e0       ?type_case_n@?$output_processor@_WV?$stream_output_adapter@_W@__crt_stdio_output@@V?$standard_base@_WV?$stream_output_adapter@_W@__crt_stdio_output@@@2@@__crt_stdio_output@@AEAA_NXZ 00000001400413e0 f i libucrt:output.obj
 0001:00040488       ?type_case_n@?$output_processor@_WV?$string_output_adapter@_W@__crt_stdio_output@@V?$format_validation_base@_WV?$string_output_adapter@_W@__crt_stdio_output@@@2@@__crt_stdio_output@@AEAA_NXZ 0000000140041488 f i libucrt:output.obj
 0001:00040530       ?type_case_n@?$output_processor@_WV?$string_output_adapter@_W@__crt_stdio_output@@V?$positional_parameter_base@_WV?$string_output_adapter@_W@__crt_stdio_output@@@2@@__crt_stdio_output@@AEAA_NXZ 0000000140041530 f i libucrt:output.obj
 0001:0004060c       ?type_case_n@?$output_processor@_WV?$string_output_adapter@_W@__crt_stdio_output@@V?$standard_base@_WV?$string_output_adapter@_W@__crt_stdio_output@@@2@@__crt_stdio_output@@AEAA_NXZ 000000014004160c f i libucrt:output.obj
 0001:000406b4       ?type_case_o@?$output_processor@DV?$stream_output_adapter@D@__crt_stdio_output@@V?$format_validation_base@DV?$stream_output_adapter@D@__crt_stdio_output@@@2@@__crt_stdio_output@@AEAA_NXZ 00000001400416b4 f i libucrt:output.obj
 0001:000406dc       ?type_case_o@?$output_processor@DV?$stream_output_adapter@D@__crt_stdio_output@@V?$positional_parameter_base@DV?$stream_output_adapter@D@__crt_stdio_output@@@2@@__crt_stdio_output@@AEAA_NXZ 00000001400416dc f i libucrt:output.obj
 0001:00040704       ?type_case_o@?$output_processor@DV?$stream_output_adapter@D@__crt_stdio_output@@V?$standard_base@DV?$stream_output_adapter@D@__crt_stdio_output@@@2@@__crt_stdio_output@@AEAA_NXZ 0000000140041704 f i libucrt:output.obj
 0001:0004072c       ?type_case_o@?$output_processor@DV?$string_output_adapter@D@__crt_stdio_output@@V?$format_validation_base@DV?$string_output_adapter@D@__crt_stdio_output@@@2@@__crt_stdio_output@@AEAA_NXZ 000000014004172c f i libucrt:output.obj
 0001:00040754       ?type_case_o@?$output_processor@DV?$string_output_adapter@D@__crt_stdio_output@@V?$positional_parameter_base@DV?$string_output_adapter@D@__crt_stdio_output@@@2@@__crt_stdio_output@@AEAA_NXZ 0000000140041754 f i libucrt:output.obj
 0001:0004077c       ?type_case_o@?$output_processor@DV?$string_output_adapter@D@__crt_stdio_output@@V?$standard_base@DV?$string_output_adapter@D@__crt_stdio_output@@@2@@__crt_stdio_output@@AEAA_NXZ 000000014004177c f i libucrt:output.obj
 0001:000407a4       ?type_case_o@?$output_processor@_WV?$stream_output_adapter@_W@__crt_stdio_output@@V?$format_validation_base@_WV?$stream_output_adapter@_W@__crt_stdio_output@@@2@@__crt_stdio_output@@AEAA_NXZ 00000001400417a4 f i libucrt:output.obj
 0001:000407cc       ?type_case_o@?$output_processor@_WV?$stream_output_adapter@_W@__crt_stdio_output@@V?$positional_parameter_base@_WV?$stream_output_adapter@_W@__crt_stdio_output@@@2@@__crt_stdio_output@@AEAA_NXZ 00000001400417cc f i libucrt:output.obj
 0001:000407f4       ?type_case_o@?$output_processor@_WV?$stream_output_adapter@_W@__crt_stdio_output@@V?$standard_base@_WV?$stream_output_adapter@_W@__crt_stdio_output@@@2@@__crt_stdio_output@@AEAA_NXZ 00000001400417f4 f i libucrt:output.obj
 0001:0004081c       ?type_case_o@?$output_processor@_WV?$string_output_adapter@_W@__crt_stdio_output@@V?$format_validation_base@_WV?$string_output_adapter@_W@__crt_stdio_output@@@2@@__crt_stdio_output@@AEAA_NXZ 000000014004181c f i libucrt:output.obj
 0001:00040844       ?type_case_o@?$output_processor@_WV?$string_output_adapter@_W@__crt_stdio_output@@V?$positional_parameter_base@_WV?$string_output_adapter@_W@__crt_stdio_output@@@2@@__crt_stdio_output@@AEAA_NXZ 0000000140041844 f i libucrt:output.obj
 0001:0004086c       ?type_case_o@?$output_processor@_WV?$string_output_adapter@_W@__crt_stdio_output@@V?$standard_base@_WV?$string_output_adapter@_W@__crt_stdio_output@@@2@@__crt_stdio_output@@AEAA_NXZ 000000014004186c f i libucrt:output.obj
 0001:00040894       ?type_case_p@?$output_processor@DV?$stream_output_adapter@D@__crt_stdio_output@@V?$format_validation_base@DV?$stream_output_adapter@D@__crt_stdio_output@@@2@@__crt_stdio_output@@AEAA_NXZ 0000000140041894 f i libucrt:output.obj
 0001:000408b0       ?type_case_p@?$output_processor@DV?$stream_output_adapter@D@__crt_stdio_output@@V?$positional_parameter_base@DV?$stream_output_adapter@D@__crt_stdio_output@@@2@@__crt_stdio_output@@AEAA_NXZ 00000001400418b0 f i libucrt:output.obj
 0001:000408cc       ?type_case_p@?$output_processor@DV?$stream_output_adapter@D@__crt_stdio_output@@V?$standard_base@DV?$stream_output_adapter@D@__crt_stdio_output@@@2@@__crt_stdio_output@@AEAA_NXZ 00000001400418cc f i libucrt:output.obj
 0001:000408e8       ?type_case_p@?$output_processor@DV?$string_output_adapter@D@__crt_stdio_output@@V?$format_validation_base@DV?$string_output_adapter@D@__crt_stdio_output@@@2@@__crt_stdio_output@@AEAA_NXZ 00000001400418e8 f i libucrt:output.obj
 0001:00040904       ?type_case_p@?$output_processor@DV?$string_output_adapter@D@__crt_stdio_output@@V?$positional_parameter_base@DV?$string_output_adapter@D@__crt_stdio_output@@@2@@__crt_stdio_output@@AEAA_NXZ 0000000140041904 f i libucrt:output.obj
 0001:00040920       ?type_case_p@?$output_processor@DV?$string_output_adapter@D@__crt_stdio_output@@V?$standard_base@DV?$string_output_adapter@D@__crt_stdio_output@@@2@@__crt_stdio_output@@AEAA_NXZ 0000000140041920 f i libucrt:output.obj
 0001:0004093c       ?type_case_p@?$output_processor@_WV?$stream_output_adapter@_W@__crt_stdio_output@@V?$format_validation_base@_WV?$stream_output_adapter@_W@__crt_stdio_output@@@2@@__crt_stdio_output@@AEAA_NXZ 000000014004193c f i libucrt:output.obj
 0001:00040958       ?type_case_p@?$output_processor@_WV?$stream_output_adapter@_W@__crt_stdio_output@@V?$positional_parameter_base@_WV?$stream_output_adapter@_W@__crt_stdio_output@@@2@@__crt_stdio_output@@AEAA_NXZ 0000000140041958 f i libucrt:output.obj
 0001:00040974       ?type_case_p@?$output_processor@_WV?$stream_output_adapter@_W@__crt_stdio_output@@V?$standard_base@_WV?$stream_output_adapter@_W@__crt_stdio_output@@@2@@__crt_stdio_output@@AEAA_NXZ 0000000140041974 f i libucrt:output.obj
 0001:00040990       ?type_case_p@?$output_processor@_WV?$string_output_adapter@_W@__crt_stdio_output@@V?$format_validation_base@_WV?$string_output_adapter@_W@__crt_stdio_output@@@2@@__crt_stdio_output@@AEAA_NXZ 0000000140041990 f i libucrt:output.obj
 0001:000409ac       ?type_case_p@?$output_processor@_WV?$string_output_adapter@_W@__crt_stdio_output@@V?$positional_parameter_base@_WV?$string_output_adapter@_W@__crt_stdio_output@@@2@@__crt_stdio_output@@AEAA_NXZ 00000001400419ac f i libucrt:output.obj
 0001:000409c8       ?type_case_p@?$output_processor@_WV?$string_output_adapter@_W@__crt_stdio_output@@V?$standard_base@_WV?$string_output_adapter@_W@__crt_stdio_output@@@2@@__crt_stdio_output@@AEAA_NXZ 00000001400419c8 f i libucrt:output.obj
 0001:000409e4       ?type_case_s@?$output_processor@DV?$stream_output_adapter@D@__crt_stdio_output@@V?$format_validation_base@DV?$stream_output_adapter@D@__crt_stdio_output@@@2@@__crt_stdio_output@@AEAA_NXZ 00000001400419e4 f i libucrt:output.obj
 0001:00040aa0       ?type_case_s@?$output_processor@DV?$stream_output_adapter@D@__crt_stdio_output@@V?$positional_parameter_base@DV?$stream_output_adapter@D@__crt_stdio_output@@@2@@__crt_stdio_output@@AEAA_NXZ 0000000140041aa0 f i libucrt:output.obj
 0001:00040b84       ?type_case_s@?$output_processor@DV?$stream_output_adapter@D@__crt_stdio_output@@V?$standard_base@DV?$stream_output_adapter@D@__crt_stdio_output@@@2@@__crt_stdio_output@@AEAA_NXZ 0000000140041b84 f i libucrt:output.obj
 0001:00040c40       ?type_case_s@?$output_processor@DV?$string_output_adapter@D@__crt_stdio_output@@V?$format_validation_base@DV?$string_output_adapter@D@__crt_stdio_output@@@2@@__crt_stdio_output@@AEAA_NXZ 0000000140041c40 f i libucrt:output.obj
 0001:00040cfc       ?type_case_s@?$output_processor@DV?$string_output_adapter@D@__crt_stdio_output@@V?$positional_parameter_base@DV?$string_output_adapter@D@__crt_stdio_output@@@2@@__crt_stdio_output@@AEAA_NXZ 0000000140041cfc f i libucrt:output.obj
 0001:00040de0       ?type_case_s@?$output_processor@DV?$string_output_adapter@D@__crt_stdio_output@@V?$standard_base@DV?$string_output_adapter@D@__crt_stdio_output@@@2@@__crt_stdio_output@@AEAA_NXZ 0000000140041de0 f i libucrt:output.obj
 0001:00040e9c       ?type_case_s@?$output_processor@_WV?$stream_output_adapter@_W@__crt_stdio_output@@V?$format_validation_base@_WV?$stream_output_adapter@_W@__crt_stdio_output@@@2@@__crt_stdio_output@@AEAA_NXZ 0000000140041e9c f i libucrt:output.obj
 0001:00040f94       ?type_case_s@?$output_processor@_WV?$stream_output_adapter@_W@__crt_stdio_output@@V?$positional_parameter_base@_WV?$stream_output_adapter@_W@__crt_stdio_output@@@2@@__crt_stdio_output@@AEAA_NXZ 0000000140041f94 f i libucrt:output.obj
 0001:000410b8       ?type_case_s@?$output_processor@_WV?$stream_output_adapter@_W@__crt_stdio_output@@V?$standard_base@_WV?$stream_output_adapter@_W@__crt_stdio_output@@@2@@__crt_stdio_output@@AEAA_NXZ 00000001400420b8 f i libucrt:output.obj
 0001:000411b0       ?type_case_s@?$output_processor@_WV?$string_output_adapter@_W@__crt_stdio_output@@V?$format_validation_base@_WV?$string_output_adapter@_W@__crt_stdio_output@@@2@@__crt_stdio_output@@AEAA_NXZ 00000001400421b0 f i libucrt:output.obj
 0001:000412a8       ?type_case_s@?$output_processor@_WV?$string_output_adapter@_W@__crt_stdio_output@@V?$positional_parameter_base@_WV?$string_output_adapter@_W@__crt_stdio_output@@@2@@__crt_stdio_output@@AEAA_NXZ 00000001400422a8 f i libucrt:output.obj
 0001:000413cc       ?type_case_s@?$output_processor@_WV?$string_output_adapter@_W@__crt_stdio_output@@V?$standard_base@_WV?$string_output_adapter@_W@__crt_stdio_output@@@2@@__crt_stdio_output@@AEAA_NXZ 00000001400423cc f i libucrt:output.obj
 0001:000414c4       ?type_case_s_compute_narrow_string_length@?$output_processor@DV?$stream_output_adapter@D@__crt_stdio_output@@V?$format_validation_base@DV?$stream_output_adapter@D@__crt_stdio_output@@@2@@__crt_stdio_output@@AEBAHHD@Z 00000001400424c4 f i libucrt:output.obj
 0001:000414d4       ?type_case_s_compute_narrow_string_length@?$output_processor@DV?$stream_output_adapter@D@__crt_stdio_output@@V?$positional_parameter_base@DV?$stream_output_adapter@D@__crt_stdio_output@@@2@@__crt_stdio_output@@AEBAHHD@Z 00000001400424d4 f i libucrt:output.obj
 0001:000414e4       ?type_case_s_compute_narrow_string_length@?$output_processor@DV?$stream_output_adapter@D@__crt_stdio_output@@V?$standard_base@DV?$stream_output_adapter@D@__crt_stdio_output@@@2@@__crt_stdio_output@@AEBAHHD@Z 00000001400424e4 f i libucrt:output.obj
 0001:000414f4       ?type_case_s_compute_narrow_string_length@?$output_processor@DV?$string_output_adapter@D@__crt_stdio_output@@V?$format_validation_base@DV?$string_output_adapter@D@__crt_stdio_output@@@2@@__crt_stdio_output@@AEBAHHD@Z 00000001400424f4 f i libucrt:output.obj
 0001:00041504       ?type_case_s_compute_narrow_string_length@?$output_processor@DV?$string_output_adapter@D@__crt_stdio_output@@V?$positional_parameter_base@DV?$string_output_adapter@D@__crt_stdio_output@@@2@@__crt_stdio_output@@AEBAHHD@Z 0000000140042504 f i libucrt:output.obj
 0001:00041514       ?type_case_s_compute_narrow_string_length@?$output_processor@DV?$string_output_adapter@D@__crt_stdio_output@@V?$standard_base@DV?$string_output_adapter@D@__crt_stdio_output@@@2@@__crt_stdio_output@@AEBAHHD@Z 0000000140042514 f i libucrt:output.obj
 0001:00041524       ?type_case_s_compute_narrow_string_length@?$output_processor@_WV?$stream_output_adapter@_W@__crt_stdio_output@@V?$format_validation_base@_WV?$stream_output_adapter@_W@__crt_stdio_output@@@2@@__crt_stdio_output@@AEBAHH_W@Z 0000000140042524 f i libucrt:output.obj
 0001:0004158c       ?type_case_s_compute_narrow_string_length@?$output_processor@_WV?$stream_output_adapter@_W@__crt_stdio_output@@V?$positional_parameter_base@_WV?$stream_output_adapter@_W@__crt_stdio_output@@@2@@__crt_stdio_output@@AEBAHH_W@Z 000000014004258c f i libucrt:output.obj
 0001:000415f4       ?type_case_s_compute_narrow_string_length@?$output_processor@_WV?$stream_output_adapter@_W@__crt_stdio_output@@V?$standard_base@_WV?$stream_output_adapter@_W@__crt_stdio_output@@@2@@__crt_stdio_output@@AEBAHH_W@Z 00000001400425f4 f i libucrt:output.obj
 0001:0004165c       ?type_case_s_compute_narrow_string_length@?$output_processor@_WV?$string_output_adapter@_W@__crt_stdio_output@@V?$format_validation_base@_WV?$string_output_adapter@_W@__crt_stdio_output@@@2@@__crt_stdio_output@@AEBAHH_W@Z 000000014004265c f i libucrt:output.obj
 0001:000416c4       ?type_case_s_compute_narrow_string_length@?$output_processor@_WV?$string_output_adapter@_W@__crt_stdio_output@@V?$positional_parameter_base@_WV?$string_output_adapter@_W@__crt_stdio_output@@@2@@__crt_stdio_output@@AEBAHH_W@Z 00000001400426c4 f i libucrt:output.obj
 0001:0004172c       ?type_case_s_compute_narrow_string_length@?$output_processor@_WV?$string_output_adapter@_W@__crt_stdio_output@@V?$standard_base@_WV?$string_output_adapter@_W@__crt_stdio_output@@@2@@__crt_stdio_output@@AEBAHH_W@Z 000000014004272c f i libucrt:output.obj
 0001:00041794       ?type_case_u@?$output_processor@DV?$stream_output_adapter@D@__crt_stdio_output@@V?$format_validation_base@DV?$stream_output_adapter@D@__crt_stdio_output@@@2@@__crt_stdio_output@@AEAA_NXZ 0000000140042794 f i libucrt:output.obj
 0001:000417a4       ?type_case_u@?$output_processor@DV?$stream_output_adapter@D@__crt_stdio_output@@V?$positional_parameter_base@DV?$stream_output_adapter@D@__crt_stdio_output@@@2@@__crt_stdio_output@@AEAA_NXZ 00000001400427a4 f i libucrt:output.obj
 0001:000417b4       ?type_case_u@?$output_processor@DV?$stream_output_adapter@D@__crt_stdio_output@@V?$standard_base@DV?$stream_output_adapter@D@__crt_stdio_output@@@2@@__crt_stdio_output@@AEAA_NXZ 00000001400427b4 f i libucrt:output.obj
 0001:000417c4       ?type_case_u@?$output_processor@DV?$string_output_adapter@D@__crt_stdio_output@@V?$format_validation_base@DV?$string_output_adapter@D@__crt_stdio_output@@@2@@__crt_stdio_output@@AEAA_NXZ 00000001400427c4 f i libucrt:output.obj
 0001:000417d4       ?type_case_u@?$output_processor@DV?$string_output_adapter@D@__crt_stdio_output@@V?$positional_parameter_base@DV?$string_output_adapter@D@__crt_stdio_output@@@2@@__crt_stdio_output@@AEAA_NXZ 00000001400427d4 f i libucrt:output.obj
 0001:000417e4       ?type_case_u@?$output_processor@DV?$string_output_adapter@D@__crt_stdio_output@@V?$standard_base@DV?$string_output_adapter@D@__crt_stdio_output@@@2@@__crt_stdio_output@@AEAA_NXZ 00000001400427e4 f i libucrt:output.obj
 0001:000417f4       ?type_case_u@?$output_processor@_WV?$stream_output_adapter@_W@__crt_stdio_output@@V?$format_validation_base@_WV?$stream_output_adapter@_W@__crt_stdio_output@@@2@@__crt_stdio_output@@AEAA_NXZ 00000001400427f4 f i libucrt:output.obj
 0001:00041804       ?type_case_u@?$output_processor@_WV?$stream_output_adapter@_W@__crt_stdio_output@@V?$positional_parameter_base@_WV?$stream_output_adapter@_W@__crt_stdio_output@@@2@@__crt_stdio_output@@AEAA_NXZ 0000000140042804 f i libucrt:output.obj
 0001:00041814       ?type_case_u@?$output_processor@_WV?$stream_output_adapter@_W@__crt_stdio_output@@V?$standard_base@_WV?$stream_output_adapter@_W@__crt_stdio_output@@@2@@__crt_stdio_output@@AEAA_NXZ 0000000140042814 f i libucrt:output.obj
 0001:00041824       ?type_case_u@?$output_processor@_WV?$string_output_adapter@_W@__crt_stdio_output@@V?$format_validation_base@_WV?$string_output_adapter@_W@__crt_stdio_output@@@2@@__crt_stdio_output@@AEAA_NXZ 0000000140042824 f i libucrt:output.obj
 0001:00041834       ?type_case_u@?$output_processor@_WV?$string_output_adapter@_W@__crt_stdio_output@@V?$positional_parameter_base@_WV?$string_output_adapter@_W@__crt_stdio_output@@@2@@__crt_stdio_output@@AEAA_NXZ 0000000140042834 f i libucrt:output.obj
 0001:00041844       ?type_case_u@?$output_processor@_WV?$string_output_adapter@_W@__crt_stdio_output@@V?$standard_base@_WV?$string_output_adapter@_W@__crt_stdio_output@@@2@@__crt_stdio_output@@AEAA_NXZ 0000000140042844 f i libucrt:output.obj
 0001:00041854       ?type_case_x@?$output_processor@DV?$stream_output_adapter@D@__crt_stdio_output@@V?$format_validation_base@DV?$stream_output_adapter@D@__crt_stdio_output@@@2@@__crt_stdio_output@@AEAA_NXZ 0000000140042854 f i libucrt:output.obj
 0001:00041864       ?type_case_x@?$output_processor@DV?$stream_output_adapter@D@__crt_stdio_output@@V?$positional_parameter_base@DV?$stream_output_adapter@D@__crt_stdio_output@@@2@@__crt_stdio_output@@AEAA_NXZ 0000000140042864 f i libucrt:output.obj
 0001:00041874       ?type_case_x@?$output_processor@DV?$stream_output_adapter@D@__crt_stdio_output@@V?$standard_base@DV?$stream_output_adapter@D@__crt_stdio_output@@@2@@__crt_stdio_output@@AEAA_NXZ 0000000140042874 f i libucrt:output.obj
 0001:00041884       ?type_case_x@?$output_processor@DV?$string_output_adapter@D@__crt_stdio_output@@V?$format_validation_base@DV?$string_output_adapter@D@__crt_stdio_output@@@2@@__crt_stdio_output@@AEAA_NXZ 0000000140042884 f i libucrt:output.obj
 0001:00041894       ?type_case_x@?$output_processor@DV?$string_output_adapter@D@__crt_stdio_output@@V?$positional_parameter_base@DV?$string_output_adapter@D@__crt_stdio_output@@@2@@__crt_stdio_output@@AEAA_NXZ 0000000140042894 f i libucrt:output.obj
 0001:000418a4       ?type_case_x@?$output_processor@DV?$string_output_adapter@D@__crt_stdio_output@@V?$standard_base@DV?$string_output_adapter@D@__crt_stdio_output@@@2@@__crt_stdio_output@@AEAA_NXZ 00000001400428a4 f i libucrt:output.obj
 0001:000418b4       ?type_case_x@?$output_processor@_WV?$stream_output_adapter@_W@__crt_stdio_output@@V?$format_validation_base@_WV?$stream_output_adapter@_W@__crt_stdio_output@@@2@@__crt_stdio_output@@AEAA_NXZ 00000001400428b4 f i libucrt:output.obj
 0001:000418c4       ?type_case_x@?$output_processor@_WV?$stream_output_adapter@_W@__crt_stdio_output@@V?$positional_parameter_base@_WV?$stream_output_adapter@_W@__crt_stdio_output@@@2@@__crt_stdio_output@@AEAA_NXZ 00000001400428c4 f i libucrt:output.obj
 0001:000418d4       ?type_case_x@?$output_processor@_WV?$stream_output_adapter@_W@__crt_stdio_output@@V?$standard_base@_WV?$stream_output_adapter@_W@__crt_stdio_output@@@2@@__crt_stdio_output@@AEAA_NXZ 00000001400428d4 f i libucrt:output.obj
 0001:000418e4       ?type_case_x@?$output_processor@_WV?$string_output_adapter@_W@__crt_stdio_output@@V?$format_validation_base@_WV?$string_output_adapter@_W@__crt_stdio_output@@@2@@__crt_stdio_output@@AEAA_NXZ 00000001400428e4 f i libucrt:output.obj
 0001:000418f4       ?type_case_x@?$output_processor@_WV?$string_output_adapter@_W@__crt_stdio_output@@V?$positional_parameter_base@_WV?$string_output_adapter@_W@__crt_stdio_output@@@2@@__crt_stdio_output@@AEAA_NXZ 00000001400428f4 f i libucrt:output.obj
 0001:00041904       ?type_case_x@?$output_processor@_WV?$string_output_adapter@_W@__crt_stdio_output@@V?$standard_base@_WV?$string_output_adapter@_W@__crt_stdio_output@@@2@@__crt_stdio_output@@AEAA_NXZ 0000000140042904 f i libucrt:output.obj
 0001:00041914       ?unset_flag@?$output_processor@DV?$stream_output_adapter@D@__crt_stdio_output@@V?$format_validation_base@DV?$stream_output_adapter@D@__crt_stdio_output@@@2@@__crt_stdio_output@@AEAAXI@Z 0000000140042914 f i libucrt:output.obj
 0001:0004191c       ?unset_flag@?$output_processor@DV?$stream_output_adapter@D@__crt_stdio_output@@V?$positional_parameter_base@DV?$stream_output_adapter@D@__crt_stdio_output@@@2@@__crt_stdio_output@@AEAAXI@Z 000000014004291c f i libucrt:output.obj
 0001:00041924       ?unset_flag@?$output_processor@DV?$stream_output_adapter@D@__crt_stdio_output@@V?$standard_base@DV?$stream_output_adapter@D@__crt_stdio_output@@@2@@__crt_stdio_output@@AEAAXI@Z 0000000140042924 f i libucrt:output.obj
 0001:0004192c       ?unset_flag@?$output_processor@DV?$string_output_adapter@D@__crt_stdio_output@@V?$format_validation_base@DV?$string_output_adapter@D@__crt_stdio_output@@@2@@__crt_stdio_output@@AEAAXI@Z 000000014004292c f i libucrt:output.obj
 0001:00041934       ?unset_flag@?$output_processor@DV?$string_output_adapter@D@__crt_stdio_output@@V?$positional_parameter_base@DV?$string_output_adapter@D@__crt_stdio_output@@@2@@__crt_stdio_output@@AEAAXI@Z 0000000140042934 f i libucrt:output.obj
 0001:0004193c       ?unset_flag@?$output_processor@DV?$string_output_adapter@D@__crt_stdio_output@@V?$standard_base@DV?$string_output_adapter@D@__crt_stdio_output@@@2@@__crt_stdio_output@@AEAAXI@Z 000000014004293c f i libucrt:output.obj
 0001:00041944       ?unset_flag@?$output_processor@_WV?$stream_output_adapter@_W@__crt_stdio_output@@V?$format_validation_base@_WV?$stream_output_adapter@_W@__crt_stdio_output@@@2@@__crt_stdio_output@@AEAAXI@Z 0000000140042944 f i libucrt:output.obj
 0001:0004194c       ?unset_flag@?$output_processor@_WV?$stream_output_adapter@_W@__crt_stdio_output@@V?$positional_parameter_base@_WV?$stream_output_adapter@_W@__crt_stdio_output@@@2@@__crt_stdio_output@@AEAAXI@Z 000000014004294c f i libucrt:output.obj
 0001:00041954       ?unset_flag@?$output_processor@_WV?$stream_output_adapter@_W@__crt_stdio_output@@V?$standard_base@_WV?$stream_output_adapter@_W@__crt_stdio_output@@@2@@__crt_stdio_output@@AEAAXI@Z 0000000140042954 f i libucrt:output.obj
 0001:0004195c       ?unset_flag@?$output_processor@_WV?$string_output_adapter@_W@__crt_stdio_output@@V?$format_validation_base@_WV?$string_output_adapter@_W@__crt_stdio_output@@@2@@__crt_stdio_output@@AEAAXI@Z 000000014004295c f i libucrt:output.obj
 0001:00041964       ?unset_flag@?$output_processor@_WV?$string_output_adapter@_W@__crt_stdio_output@@V?$positional_parameter_base@_WV?$string_output_adapter@_W@__crt_stdio_output@@@2@@__crt_stdio_output@@AEAAXI@Z 0000000140042964 f i libucrt:output.obj
 0001:0004196c       ?unset_flag@?$output_processor@_WV?$string_output_adapter@_W@__crt_stdio_output@@V?$standard_base@_WV?$string_output_adapter@_W@__crt_stdio_output@@@2@@__crt_stdio_output@@AEAAXI@Z 000000014004296c f i libucrt:output.obj
 0001:00041974       ?update_field_width@?$positional_parameter_base@DV?$stream_output_adapter@D@__crt_stdio_output@@@__crt_stdio_output@@IEAA_NXZ 0000000140042974 f i libucrt:output.obj
 0001:00041ad0       ?update_field_width@?$positional_parameter_base@DV?$string_output_adapter@D@__crt_stdio_output@@@__crt_stdio_output@@IEAA_NXZ 0000000140042ad0 f i libucrt:output.obj
 0001:00041c2c       ?update_field_width@?$positional_parameter_base@_WV?$stream_output_adapter@_W@__crt_stdio_output@@@__crt_stdio_output@@IEAA_NXZ 0000000140042c2c f i libucrt:output.obj
 0001:00041d8c       ?update_field_width@?$positional_parameter_base@_WV?$string_output_adapter@_W@__crt_stdio_output@@@__crt_stdio_output@@IEAA_NXZ 0000000140042d8c f i libucrt:output.obj
 0001:00041eec       ?update_field_width@?$standard_base@DV?$stream_output_adapter@D@__crt_stdio_output@@@__crt_stdio_output@@IEAA_NXZ 0000000140042eec f i libucrt:output.obj
 0001:00041f04       ?update_field_width@?$standard_base@DV?$string_output_adapter@D@__crt_stdio_output@@@__crt_stdio_output@@IEAA_NXZ 0000000140042f04 f i libucrt:output.obj
 0001:00041f1c       ?update_field_width@?$standard_base@_WV?$stream_output_adapter@_W@__crt_stdio_output@@@__crt_stdio_output@@IEAA_NXZ 0000000140042f1c f i libucrt:output.obj
 0001:00041f34       ?update_field_width@?$standard_base@_WV?$string_output_adapter@_W@__crt_stdio_output@@@__crt_stdio_output@@IEAA_NXZ 0000000140042f34 f i libucrt:output.obj
 0001:00041f4c       ?update_precision@?$positional_parameter_base@DV?$stream_output_adapter@D@__crt_stdio_output@@@__crt_stdio_output@@IEAA_NXZ 0000000140042f4c f i libucrt:output.obj
 0001:000420a8       ?update_precision@?$positional_parameter_base@DV?$string_output_adapter@D@__crt_stdio_output@@@__crt_stdio_output@@IEAA_NXZ 00000001400430a8 f i libucrt:output.obj
 0001:00042204       ?update_precision@?$positional_parameter_base@_WV?$stream_output_adapter@_W@__crt_stdio_output@@@__crt_stdio_output@@IEAA_NXZ 0000000140043204 f i libucrt:output.obj
 0001:00042364       ?update_precision@?$positional_parameter_base@_WV?$string_output_adapter@_W@__crt_stdio_output@@@__crt_stdio_output@@IEAA_NXZ 0000000140043364 f i libucrt:output.obj
 0001:000424c4       ?update_precision@?$standard_base@DV?$stream_output_adapter@D@__crt_stdio_output@@@__crt_stdio_output@@IEAA_NXZ 00000001400434c4 f i libucrt:output.obj
 0001:000424dc       ?update_precision@?$standard_base@DV?$string_output_adapter@D@__crt_stdio_output@@@__crt_stdio_output@@IEAA_NXZ 00000001400434dc f i libucrt:output.obj
 0001:000424f4       ?update_precision@?$standard_base@_WV?$stream_output_adapter@_W@__crt_stdio_output@@@__crt_stdio_output@@IEAA_NXZ 00000001400434f4 f i libucrt:output.obj
 0001:0004250c       ?update_precision@?$standard_base@_WV?$string_output_adapter@_W@__crt_stdio_output@@@__crt_stdio_output@@IEAA_NXZ 000000014004350c f i libucrt:output.obj
 0001:00042524       ?valid@__crt_stdio_stream@@QEBA_NXZ 0000000140043524 f i libucrt:output.obj
 0001:00042530       ?validate@?$stream_output_adapter@D@__crt_stdio_output@@QEBA_NXZ 0000000140043530 f i libucrt:output.obj
 0001:00042568       ?validate@?$stream_output_adapter@_W@__crt_stdio_output@@QEBA_NXZ 0000000140043568 f i libucrt:output.obj
 0001:00042598       ?validate@?$string_output_adapter@D@__crt_stdio_output@@QEBA_NXZ 0000000140043598 f i libucrt:output.obj
 0001:000425c8       ?validate@?$string_output_adapter@_W@__crt_stdio_output@@QEBA_NXZ 00000001400435c8 f i libucrt:output.obj
 0001:000425f8       ?validate_and_store_parameter_data@?$positional_parameter_base@DV?$stream_output_adapter@D@__crt_stdio_output@@@__crt_stdio_output@@AEAA_NAEAUparameter_data@12@W4parameter_type@12@DW4length_modifier@2@@Z 00000001400435f8 f i libucrt:output.obj
 0001:00042648       ?validate_and_store_parameter_data@?$positional_parameter_base@DV?$string_output_adapter@D@__crt_stdio_output@@@__crt_stdio_output@@AEAA_NAEAUparameter_data@12@W4parameter_type@12@DW4length_modifier@2@@Z 0000000140043648 f i libucrt:output.obj
 0001:00042698       ?validate_and_store_parameter_data@?$positional_parameter_base@_WV?$stream_output_adapter@_W@__crt_stdio_output@@@__crt_stdio_output@@AEAA_NAEAUparameter_data@12@W4parameter_type@12@_WW4length_modifier@2@@Z 0000000140043698 f i libucrt:output.obj
 0001:000426e8       ?validate_and_store_parameter_data@?$positional_parameter_base@_WV?$string_output_adapter@_W@__crt_stdio_output@@@__crt_stdio_output@@AEAA_NAEAUparameter_data@12@W4parameter_type@12@_WW4length_modifier@2@@Z 00000001400436e8 f i libucrt:output.obj
 0001:00042738       ?validate_and_update_state_at_beginning_of_format_character@?$positional_parameter_base@DV?$stream_output_adapter@D@__crt_stdio_output@@@__crt_stdio_output@@IEAA_NXZ 0000000140043738 f i libucrt:output.obj
 0001:00042888       ?validate_and_update_state_at_beginning_of_format_character@?$positional_parameter_base@DV?$string_output_adapter@D@__crt_stdio_output@@@__crt_stdio_output@@IEAA_NXZ 0000000140043888 f i libucrt:output.obj
 0001:000429d8       ?validate_and_update_state_at_beginning_of_format_character@?$positional_parameter_base@_WV?$stream_output_adapter@_W@__crt_stdio_output@@@__crt_stdio_output@@IEAA_NXZ 00000001400439d8 f i libucrt:output.obj
 0001:00042b34       ?validate_and_update_state_at_beginning_of_format_character@?$positional_parameter_base@_WV?$string_output_adapter@_W@__crt_stdio_output@@@__crt_stdio_output@@IEAA_NXZ 0000000140043b34 f i libucrt:output.obj
 0001:00042c90       ?validate_and_update_state_at_beginning_of_format_character@?$standard_base@DV?$stream_output_adapter@D@__crt_stdio_output@@@__crt_stdio_output@@IEAA_NXZ 0000000140043c90 f i libucrt:output.obj
 0001:00042c94       ?validate_and_update_state_at_beginning_of_format_character@?$standard_base@DV?$string_output_adapter@D@__crt_stdio_output@@@__crt_stdio_output@@IEAA_NXZ 0000000140043c94 f i libucrt:output.obj
 0001:00042c98       ?validate_and_update_state_at_beginning_of_format_character@?$standard_base@_WV?$stream_output_adapter@_W@__crt_stdio_output@@@__crt_stdio_output@@IEAA_NXZ 0000000140043c98 f i libucrt:output.obj
 0001:00042c9c       ?validate_and_update_state_at_beginning_of_format_character@?$standard_base@_WV?$string_output_adapter@_W@__crt_stdio_output@@@__crt_stdio_output@@IEAA_NXZ 0000000140043c9c f i libucrt:output.obj
 0001:00042ca0       ?validate_and_update_state_at_end_of_format_string@?$format_validation_base@DV?$stream_output_adapter@D@__crt_stdio_output@@@__crt_stdio_output@@IEBA_NXZ 0000000140043ca0 f i libucrt:output.obj
 0001:00042cd8       ?validate_and_update_state_at_end_of_format_string@?$format_validation_base@DV?$string_output_adapter@D@__crt_stdio_output@@@__crt_stdio_output@@IEBA_NXZ 0000000140043cd8 f i libucrt:output.obj
 0001:00042d10       ?validate_and_update_state_at_end_of_format_string@?$format_validation_base@_WV?$stream_output_adapter@_W@__crt_stdio_output@@@__crt_stdio_output@@IEBA_NXZ 0000000140043d10 f i libucrt:output.obj
 0001:00042d48       ?validate_and_update_state_at_end_of_format_string@?$format_validation_base@_WV?$string_output_adapter@_W@__crt_stdio_output@@@__crt_stdio_output@@IEBA_NXZ 0000000140043d48 f i libucrt:output.obj
 0001:00042d80       ?validate_and_update_state_at_end_of_format_string@?$positional_parameter_base@DV?$stream_output_adapter@D@__crt_stdio_output@@@__crt_stdio_output@@IEAA_NXZ 0000000140043d80 f i libucrt:output.obj
 0001:00042e44       ?validate_and_update_state_at_end_of_format_string@?$positional_parameter_base@DV?$string_output_adapter@D@__crt_stdio_output@@@__crt_stdio_output@@IEAA_NXZ 0000000140043e44 f i libucrt:output.obj
 0001:00042f08       ?validate_and_update_state_at_end_of_format_string@?$positional_parameter_base@_WV?$stream_output_adapter@_W@__crt_stdio_output@@@__crt_stdio_output@@IEAA_NXZ 0000000140043f08 f i libucrt:output.obj
 0001:00042fcc       ?validate_and_update_state_at_end_of_format_string@?$positional_parameter_base@_WV?$string_output_adapter@_W@__crt_stdio_output@@@__crt_stdio_output@@IEAA_NXZ 0000000140043fcc f i libucrt:output.obj
 0001:00043090       ?validate_and_update_state_at_end_of_format_string@?$standard_base@DV?$stream_output_adapter@D@__crt_stdio_output@@@__crt_stdio_output@@IEBA_NXZ 0000000140044090 f i libucrt:output.obj
 0001:00043094       ?validate_and_update_state_at_end_of_format_string@?$standard_base@DV?$string_output_adapter@D@__crt_stdio_output@@@__crt_stdio_output@@IEBA_NXZ 0000000140044094 f i libucrt:output.obj
 0001:00043098       ?validate_and_update_state_at_end_of_format_string@?$standard_base@_WV?$stream_output_adapter@_W@__crt_stdio_output@@@__crt_stdio_output@@IEBA_NXZ 0000000140044098 f i libucrt:output.obj
 0001:0004309c       ?validate_and_update_state_at_end_of_format_string@?$standard_base@_WV?$string_output_adapter@_W@__crt_stdio_output@@@__crt_stdio_output@@IEBA_NXZ 000000014004409c f i libucrt:output.obj
 0001:000430a0       ?validate_state_for_type_case_a@?$positional_parameter_base@DV?$stream_output_adapter@D@__crt_stdio_output@@@__crt_stdio_output@@IEAA_NXZ 00000001400440a0 f i libucrt:output.obj
 0001:00043164       ?validate_state_for_type_case_a@?$positional_parameter_base@DV?$string_output_adapter@D@__crt_stdio_output@@@__crt_stdio_output@@IEAA_NXZ 0000000140044164 f i libucrt:output.obj
 0001:00043228       ?validate_state_for_type_case_a@?$positional_parameter_base@_WV?$stream_output_adapter@_W@__crt_stdio_output@@@__crt_stdio_output@@IEAA_NXZ 0000000140044228 f i libucrt:output.obj
 0001:000432ec       ?validate_state_for_type_case_a@?$positional_parameter_base@_WV?$string_output_adapter@_W@__crt_stdio_output@@@__crt_stdio_output@@IEAA_NXZ 00000001400442ec f i libucrt:output.obj
 0001:000433b0       ?validate_state_for_type_case_a@?$standard_base@DV?$stream_output_adapter@D@__crt_stdio_output@@@__crt_stdio_output@@IEBA_NXZ 00000001400443b0 f i libucrt:output.obj
 0001:000433b4       ?validate_state_for_type_case_a@?$standard_base@DV?$string_output_adapter@D@__crt_stdio_output@@@__crt_stdio_output@@IEBA_NXZ 00000001400443b4 f i libucrt:output.obj
 0001:000433b8       ?validate_state_for_type_case_a@?$standard_base@_WV?$stream_output_adapter@_W@__crt_stdio_output@@@__crt_stdio_output@@IEBA_NXZ 00000001400443b8 f i libucrt:output.obj
 0001:000433bc       ?validate_state_for_type_case_a@?$standard_base@_WV?$string_output_adapter@_W@__crt_stdio_output@@@__crt_stdio_output@@IEBA_NXZ 00000001400443bc f i libucrt:output.obj
 0001:000433c0       ?validate_stream_is_ansi_if_required@?$__acrt_stdio_char_traits@D@@SA_NQEAU_iobuf@@@Z 00000001400443c0 f i libucrt:output.obj
 0001:00043480       ?validate_stream_is_ansi_if_required@?$__acrt_stdio_char_traits@_W@@SA_NQEAU_iobuf@@@Z 0000000140044480 f i libucrt:output.obj
 0001:00043484       ?wide_null_string@?$output_processor@DV?$stream_output_adapter@D@__crt_stdio_output@@V?$format_validation_base@DV?$stream_output_adapter@D@__crt_stdio_output@@@2@@__crt_stdio_output@@CAPEA_WXZ 0000000140044484 f i libucrt:output.obj
 0001:00043490       ?wide_null_string@?$output_processor@DV?$stream_output_adapter@D@__crt_stdio_output@@V?$positional_parameter_base@DV?$stream_output_adapter@D@__crt_stdio_output@@@2@@__crt_stdio_output@@CAPEA_WXZ 0000000140044490 f i libucrt:output.obj
 0001:0004349c       ?wide_null_string@?$output_processor@DV?$stream_output_adapter@D@__crt_stdio_output@@V?$standard_base@DV?$stream_output_adapter@D@__crt_stdio_output@@@2@@__crt_stdio_output@@CAPEA_WXZ 000000014004449c f i libucrt:output.obj
 0001:000434a8       ?wide_null_string@?$output_processor@DV?$string_output_adapter@D@__crt_stdio_output@@V?$format_validation_base@DV?$string_output_adapter@D@__crt_stdio_output@@@2@@__crt_stdio_output@@CAPEA_WXZ 00000001400444a8 f i libucrt:output.obj
 0001:000434b4       ?wide_null_string@?$output_processor@DV?$string_output_adapter@D@__crt_stdio_output@@V?$positional_parameter_base@DV?$string_output_adapter@D@__crt_stdio_output@@@2@@__crt_stdio_output@@CAPEA_WXZ 00000001400444b4 f i libucrt:output.obj
 0001:000434c0       ?wide_null_string@?$output_processor@DV?$string_output_adapter@D@__crt_stdio_output@@V?$standard_base@DV?$string_output_adapter@D@__crt_stdio_output@@@2@@__crt_stdio_output@@CAPEA_WXZ 00000001400444c0 f i libucrt:output.obj
 0001:000434cc       ?wide_null_string@?$output_processor@_WV?$stream_output_adapter@_W@__crt_stdio_output@@V?$format_validation_base@_WV?$stream_output_adapter@_W@__crt_stdio_output@@@2@@__crt_stdio_output@@CAPEA_WXZ 00000001400444cc f i libucrt:output.obj
 0001:000434d8       ?wide_null_string@?$output_processor@_WV?$stream_output_adapter@_W@__crt_stdio_output@@V?$positional_parameter_base@_WV?$stream_output_adapter@_W@__crt_stdio_output@@@2@@__crt_stdio_output@@CAPEA_WXZ 00000001400444d8 f i libucrt:output.obj
 0001:000434e4       ?wide_null_string@?$output_processor@_WV?$stream_output_adapter@_W@__crt_stdio_output@@V?$standard_base@_WV?$stream_output_adapter@_W@__crt_stdio_output@@@2@@__crt_stdio_output@@CAPEA_WXZ 00000001400444e4 f i libucrt:output.obj
 0001:000434f0       ?wide_null_string@?$output_processor@_WV?$string_output_adapter@_W@__crt_stdio_output@@V?$format_validation_base@_WV?$string_output_adapter@_W@__crt_stdio_output@@@2@@__crt_stdio_output@@CAPEA_WXZ 00000001400444f0 f i libucrt:output.obj
 0001:000434fc       ?wide_null_string@?$output_processor@_WV?$string_output_adapter@_W@__crt_stdio_output@@V?$positional_parameter_base@_WV?$string_output_adapter@_W@__crt_stdio_output@@@2@@__crt_stdio_output@@CAPEA_WXZ 00000001400444fc f i libucrt:output.obj
 0001:00043508       ?wide_null_string@?$output_processor@_WV?$string_output_adapter@_W@__crt_stdio_output@@V?$standard_base@_WV?$string_output_adapter@_W@__crt_stdio_output@@@2@@__crt_stdio_output@@CAPEA_WXZ 0000000140044508 f i libucrt:output.obj
 0001:00043514       ?write_character@?$output_adapter_common@DV?$stream_output_adapter@D@__crt_stdio_output@@@__crt_stdio_output@@QEBAXDQEAH@Z 0000000140044514 f i libucrt:output.obj
 0001:00043570       ?write_character@?$output_adapter_common@_WV?$stream_output_adapter@_W@__crt_stdio_output@@@__crt_stdio_output@@QEBAX_WQEAH@Z 0000000140044570 f i libucrt:output.obj
 0001:000435d0       ?write_character@?$string_output_adapter@D@__crt_stdio_output@@QEBA_NDQEAH@Z 00000001400445d0 f i libucrt:output.obj
 0001:00043628       ?write_character@?$string_output_adapter@_W@__crt_stdio_output@@QEBA_N_WQEAH@Z 0000000140044628 f i libucrt:output.obj
 0001:00043684       ?write_character_without_count_update@?$stream_output_adapter@D@__crt_stdio_output@@QEBA_ND@Z 0000000140044684 f i libucrt:output.obj
 0001:000436d0       ?write_character_without_count_update@?$stream_output_adapter@_W@__crt_stdio_output@@QEBA_N_W@Z 00000001400446d0 f i libucrt:output.obj
 0001:00043720       ?write_stored_string_tchar@?$output_processor@DV?$stream_output_adapter@D@__crt_stdio_output@@V?$format_validation_base@DV?$stream_output_adapter@D@__crt_stdio_output@@@2@@__crt_stdio_output@@AEAA_ND@Z 0000000140044720 f i libucrt:output.obj
 0001:0004388c       ?write_stored_string_tchar@?$output_processor@DV?$stream_output_adapter@D@__crt_stdio_output@@V?$positional_parameter_base@DV?$stream_output_adapter@D@__crt_stdio_output@@@2@@__crt_stdio_output@@AEAA_ND@Z 000000014004488c f i libucrt:output.obj
 0001:000439f8       ?write_stored_string_tchar@?$output_processor@DV?$stream_output_adapter@D@__crt_stdio_output@@V?$standard_base@DV?$stream_output_adapter@D@__crt_stdio_output@@@2@@__crt_stdio_output@@AEAA_ND@Z 00000001400449f8 f i libucrt:output.obj
 0001:00043b64       ?write_stored_string_tchar@?$output_processor@DV?$string_output_adapter@D@__crt_stdio_output@@V?$format_validation_base@DV?$string_output_adapter@D@__crt_stdio_output@@@2@@__crt_stdio_output@@AEAA_ND@Z 0000000140044b64 f i libucrt:output.obj
 0001:00043c74       ?write_stored_string_tchar@?$output_processor@DV?$string_output_adapter@D@__crt_stdio_output@@V?$positional_parameter_base@DV?$string_output_adapter@D@__crt_stdio_output@@@2@@__crt_stdio_output@@AEAA_ND@Z 0000000140044c74 f i libucrt:output.obj
 0001:00043d84       ?write_stored_string_tchar@?$output_processor@DV?$string_output_adapter@D@__crt_stdio_output@@V?$standard_base@DV?$string_output_adapter@D@__crt_stdio_output@@@2@@__crt_stdio_output@@AEAA_ND@Z 0000000140044d84 f i libucrt:output.obj
 0001:00043e94       ?write_stored_string_tchar@?$output_processor@_WV?$stream_output_adapter@_W@__crt_stdio_output@@V?$format_validation_base@_WV?$stream_output_adapter@_W@__crt_stdio_output@@@2@@__crt_stdio_output@@AEAA_N_W@Z 0000000140044e94 f i libucrt:output.obj
 0001:00043fd8       ?write_stored_string_tchar@?$output_processor@_WV?$stream_output_adapter@_W@__crt_stdio_output@@V?$positional_parameter_base@_WV?$stream_output_adapter@_W@__crt_stdio_output@@@2@@__crt_stdio_output@@AEAA_N_W@Z 0000000140044fd8 f i libucrt:output.obj
 0001:0004411c       ?write_stored_string_tchar@?$output_processor@_WV?$stream_output_adapter@_W@__crt_stdio_output@@V?$standard_base@_WV?$stream_output_adapter@_W@__crt_stdio_output@@@2@@__crt_stdio_output@@AEAA_N_W@Z 000000014004511c f i libucrt:output.obj
 0001:00044260       ?write_stored_string_tchar@?$output_processor@_WV?$string_output_adapter@_W@__crt_stdio_output@@V?$format_validation_base@_WV?$string_output_adapter@_W@__crt_stdio_output@@@2@@__crt_stdio_output@@AEAA_N_W@Z 0000000140045260 f i libucrt:output.obj
 0001:00044380       ?write_stored_string_tchar@?$output_processor@_WV?$string_output_adapter@_W@__crt_stdio_output@@V?$positional_parameter_base@_WV?$string_output_adapter@_W@__crt_stdio_output@@@2@@__crt_stdio_output@@AEAA_N_W@Z 0000000140045380 f i libucrt:output.obj
 0001:000444a0       ?write_stored_string_tchar@?$output_processor@_WV?$string_output_adapter@_W@__crt_stdio_output@@V?$standard_base@_WV?$string_output_adapter@_W@__crt_stdio_output@@@2@@__crt_stdio_output@@AEAA_N_W@Z 00000001400454a0 f i libucrt:output.obj
 0001:000445c0       ?write_string@?$stream_output_adapter@D@__crt_stdio_output@@QEBAXQEBDHQEAHAEAV__crt_deferred_errno_cache@@@Z 00000001400455c0 f i libucrt:output.obj
 0001:000445f0       ?write_string@?$stream_output_adapter@_W@__crt_stdio_output@@QEBAXQEB_WHQEAHAEAV__crt_deferred_errno_cache@@@Z 00000001400455f0 f i libucrt:output.obj
 0001:00044620       ?write_string@?$string_output_adapter@D@__crt_stdio_output@@QEBAXQEBDHQEAHAEAV__crt_deferred_errno_cache@@@Z 0000000140045620 f i libucrt:output.obj
 0001:000446ec       ?write_string@?$string_output_adapter@_W@__crt_stdio_output@@QEBAXQEB_WHQEAHAEAV__crt_deferred_errno_cache@@@Z 00000001400456ec f i libucrt:output.obj
 0001:000447bc       ?write_string_impl@?$output_adapter_common@DV?$stream_output_adapter@D@__crt_stdio_output@@@__crt_stdio_output@@IEBAXQEBDHQEAHAEAV__crt_deferred_errno_cache@@@Z 00000001400457bc f i libucrt:output.obj
 0001:000448f0       ?write_string_impl@?$output_adapter_common@_WV?$stream_output_adapter@_W@__crt_stdio_output@@@__crt_stdio_output@@IEBAXQEB_WHQEAHAEAV__crt_deferred_errno_cache@@@Z 00000001400458f0 f i libucrt:output.obj
 0001:00044a30       __acrt_disable_global_locale_sync 0000000140045a30 f i libucrt:output.obj
 0001:00044a38       __acrt_enable_global_locale_sync 0000000140045a38 f i libucrt:output.obj
 0001:00044a44       __acrt_isleadbyte_l_noupdate 0000000140045a44 f i libucrt:output.obj
 0001:00044a70       __acrt_locale_changed      0000000140045a70 f i libucrt:output.obj
 0001:00044a80       __acrt_locale_get_ctype_array_value 0000000140045a80 f i libucrt:output.obj
 0001:00044aa0       __stdio_common_vfprintf    0000000140045aa0 f   libucrt:output.obj
 0001:00044b50       __stdio_common_vfprintf_p  0000000140045b50 f   libucrt:output.obj
 0001:00044c00       __stdio_common_vfprintf_s  0000000140045c00 f   libucrt:output.obj
 0001:00044cb0       __stdio_common_vfwprintf   0000000140045cb0 f   libucrt:output.obj
 0001:00044d60       __stdio_common_vfwprintf_p 0000000140045d60 f   libucrt:output.obj
 0001:00044e10       __stdio_common_vfwprintf_s 0000000140045e10 f   libucrt:output.obj
 0001:00044ec0       __stdio_common_vsnprintf_s 0000000140045ec0 f   libucrt:output.obj
 0001:0004505c       __stdio_common_vsnwprintf_s 000000014004605c f   libucrt:output.obj
 0001:0004520c       __stdio_common_vsprintf    000000014004620c f   libucrt:output.obj
 0001:00045214       __stdio_common_vsprintf_p  0000000140046214 f   libucrt:output.obj
 0001:0004521c       __stdio_common_vsprintf_s  000000014004621c f   libucrt:output.obj
 0001:00045298       __stdio_common_vswprintf   0000000140046298 f   libucrt:output.obj
 0001:000452a0       __stdio_common_vswprintf_p 00000001400462a0 f   libucrt:output.obj
 0001:000452a8       __stdio_common_vswprintf_s 00000001400462a8 f   libucrt:output.obj
 0001:00045334       _ctype_fast_check_internal 0000000140046334 f i libucrt:output.obj
 0001:0004534c       _isdigit_fast_internal     000000014004634c f i libucrt:output.obj
 0001:00045368       _tolower_fast_internal     0000000140046368 f i libucrt:output.obj
 0001:00045380       fmod                       0000000140046380 f   libucrt:fmod.obj
 0001:0004570c       fmodf                      000000014004670c f   libucrt:fmodf.obj
 0001:00045a1c       _seh_filter_dll            0000000140046a1c f   libucrt:exception_filter.obj
 0001:00045a34       _seh_filter_exe            0000000140046a34 f   libucrt:exception_filter.obj
 0001:00045d24       __acrt_report_runtime_error 0000000140046d24 f   libucrt:report_runtime_error.obj
 0001:00045ed8       _invoke_watson_if_error    0000000140046ed8 f i libucrt:report_runtime_error.obj
 0001:00045f18       _query_app_type            0000000140046f18 f   libucrt:report_runtime_error.obj
 0001:00045f20       _set_app_type              0000000140046f20 f   libucrt:report_runtime_error.obj
 0001:00045f28       ??$__crt_fast_decode_pointer@P6AHPEAU_exception@@@Z@@YAP6AHPEAU_exception@@@ZQ6AH0@Z@Z 0000000140046f28 f i libucrt:matherr.obj
 0001:00045f44       ??$__crt_fast_encode_pointer@P6AHPEAU_exception@@@Z@@YAP6AHPEAU_exception@@@ZQ6AH0@Z@Z 0000000140046f44 f i libucrt:matherr.obj
 0001:00045f6c       ?__crt_rotate_pointer_value@@YA_K_KH@Z 0000000140046f6c f i libucrt:matherr.obj
 0001:00045f78       ?get_current_state_index@__crt_state_management@@YA_KXZ 0000000140046f78 f i libucrt:matherr.obj
 0001:00045f7c       ?initialize@?$dual_state_global@P6AHPEAU_exception@@@Z@__crt_state_management@@QEAAXQ6AHPEAU_exception@@@Z@Z 0000000140046f7c f i libucrt:matherr.obj
 0001:00045fac       ?value@?$dual_state_global@P6AHPEAU_exception@@@Z@__crt_state_management@@QEAAAEAP6AHPEAU_exception@@@ZXZ 0000000140046fac f i libucrt:matherr.obj
 0001:00045fb0       __acrt_has_user_matherr    0000000140046fb0 f   libucrt:matherr.obj
 0001:00045fd4       __acrt_initialize_user_matherr 0000000140046fd4 f   libucrt:matherr.obj
 0001:00045fe0       __acrt_invoke_user_matherr 0000000140046fe0 f   libucrt:matherr.obj
 0001:0004601c       __setusermatherr           000000014004701c f   libucrt:matherr.obj
 0001:0004604c       ??$?RE@__crt_internal_free_policy@@QEBAXQEBE@Z 000000014004704c f i libucrt:argv_parsing.obj
 0001:00046058       ??$?RPEAD@__crt_internal_free_policy@@QEBAXQEBQEAD@Z 0000000140047058 f i libucrt:argv_parsing.obj
 0001:00046064       ??$?RPEA_W@__crt_internal_free_policy@@QEBAXQEBQEA_W@Z 0000000140047064 f i libucrt:argv_parsing.obj
 0001:00046414       ??$get_module_file_name@$$TAEAY0BAF@DH@?$__crt_char_traits@D@@SAK$$QEA$$TAEAY0BAF@D$$QEAH@Z 0000000140047414 f i libucrt:argv_parsing.obj
 0001:00046424       ??$get_module_file_name@$$TAEAY0BAF@_WH@?$__crt_char_traits@_W@@SAK$$QEA$$TAEAY0BAF@_W$$QEAH@Z 0000000140047424 f i libucrt:argv_parsing.obj
 0001:0004686c       ??$set_program_name@PEAD@?$__crt_char_traits@D@@SAX$$QEAPEAD@Z 000000014004786c f i libucrt:argv_parsing.obj
 0001:0004687c       ??$set_program_name@PEA_W@?$__crt_char_traits@_W@@SAX$$QEAPEA_W@Z 000000014004787c f i libucrt:argv_parsing.obj
 0001:0004689c       ??0?$__crt_unique_heap_ptr@EU__crt_internal_free_policy@@@@QEAA@QEAE@Z 000000014004789c f i libucrt:argv_parsing.obj
 0001:000468a4       ??0?$__crt_unique_heap_ptr@PEADU__crt_internal_free_policy@@@@QEAA@QEAPEAD@Z 00000001400478a4 f i libucrt:argv_parsing.obj
 0001:000468ac       ??0?$__crt_unique_heap_ptr@PEA_WU__crt_internal_free_policy@@@@QEAA@QEAPEA_W@Z 00000001400478ac f i libucrt:argv_parsing.obj
 0001:000468b4       ??1?$__crt_unique_heap_ptr@EU__crt_internal_free_policy@@@@QEAA@XZ 00000001400478b4 f i libucrt:argv_parsing.obj
 0001:000468d8       ??1?$__crt_unique_heap_ptr@PEADU__crt_internal_free_policy@@@@QEAA@XZ 00000001400478d8 f i libucrt:argv_parsing.obj
 0001:000468fc       ??1?$__crt_unique_heap_ptr@PEA_WU__crt_internal_free_policy@@@@QEAA@XZ 00000001400478fc f i libucrt:argv_parsing.obj
 0001:00046920       ??B?$__crt_unique_heap_ptr@EU__crt_internal_free_policy@@@@QEBA_NXZ 0000000140047920 f i libucrt:argv_parsing.obj
 0001:00046974       ?detach@?$__crt_unique_heap_ptr@EU__crt_internal_free_policy@@@@QEAAPEAEXZ 0000000140047974 f i libucrt:argv_parsing.obj
 0001:00046980       ?detach@?$__crt_unique_heap_ptr@PEADU__crt_internal_free_policy@@@@QEAAPEAPEADXZ 0000000140047980 f i libucrt:argv_parsing.obj
 0001:0004698c       ?detach@?$__crt_unique_heap_ptr@PEA_WU__crt_internal_free_policy@@@@QEAAPEAPEA_WXZ 000000014004798c f i libucrt:argv_parsing.obj
 0001:000469b4       ?get@?$__crt_unique_heap_ptr@EU__crt_internal_free_policy@@@@QEBAPEAEXZ 00000001400479b4 f i libucrt:argv_parsing.obj
 0001:000469b8       ?get@?$__crt_unique_heap_ptr@PEADU__crt_internal_free_policy@@@@QEBAPEAPEADXZ 00000001400479b8 f i libucrt:argv_parsing.obj
 0001:000469bc       ?get@?$__crt_unique_heap_ptr@PEA_WU__crt_internal_free_policy@@@@QEBAPEAPEA_WXZ 00000001400479bc f i libucrt:argv_parsing.obj
 0001:000469c0       ?get_address_of@?$__crt_unique_heap_ptr@PEADU__crt_internal_free_policy@@@@QEAAPEAPEAPEADXZ 00000001400479c0 f i libucrt:argv_parsing.obj
 0001:000469c4       ?get_address_of@?$__crt_unique_heap_ptr@PEA_WU__crt_internal_free_policy@@@@QEAAPEAPEAPEA_WXZ 00000001400479c4 f i libucrt:argv_parsing.obj
 0001:000469f8       ?is_valid@?$__crt_unique_heap_ptr@EU__crt_internal_free_policy@@@@QEBA_NXZ 00000001400479f8 f i libucrt:argv_parsing.obj
 0001:00046a04       ?release@?$__crt_unique_heap_ptr@EU__crt_internal_free_policy@@@@QEAAXXZ 0000000140047a04 f i libucrt:argv_parsing.obj
 0001:00046a28       ?release@?$__crt_unique_heap_ptr@PEADU__crt_internal_free_policy@@@@QEAAXXZ 0000000140047a28 f i libucrt:argv_parsing.obj
 0001:00046a4c       ?release@?$__crt_unique_heap_ptr@PEA_WU__crt_internal_free_policy@@@@QEAAXXZ 0000000140047a4c f i libucrt:argv_parsing.obj
 0001:00046a90       __acrt_allocate_buffer_for_argv 0000000140047a90 f   libucrt:argv_parsing.obj
 0001:00046b04       _configure_narrow_argv     0000000140047b04 f   libucrt:argv_parsing.obj
 0001:00046cec       _configure_wide_argv       0000000140047cec f   libucrt:argv_parsing.obj
 0001:00046ed0       _set_pgmptr                0000000140047ed0 f i libucrt:argv_parsing.obj
 0001:00046edc       _set_wpgmptr               0000000140047edc f i libucrt:argv_parsing.obj
 0001:00046ee8       ??$?R_W@__crt_internal_free_policy@@QEBAXQEB_W@Z 0000000140047ee8 f i libucrt:environment_initialization.obj
 0001:00047530       ??$get_environment_from_os@$$V@?$__crt_char_traits@D@@SAPEADXZ 0000000140048530 f i libucrt:environment_initialization.obj
 0001:00047538       ??$get_environment_from_os@$$V@?$__crt_char_traits@_W@@SAPEA_WXZ 0000000140048538 f i libucrt:environment_initialization.obj
 0001:00047728       ??$set_variable_in_environment_nolock@PEADH@?$__crt_char_traits@D@@SAH$$QEAPEAD$$QEAH@Z 0000000140048728 f i libucrt:environment_initialization.obj
 0001:00047734       ??$set_variable_in_environment_nolock@PEA_WH@?$__crt_char_traits@_W@@SAH$$QEAPEA_W$$QEAH@Z 0000000140048734 f i libucrt:environment_initialization.obj
 0001:00047740       ??$tcscpy_s@PEADAEB_KAEAPEAD@?$__crt_char_traits@D@@SAH$$QEAPEADAEB_KAEAPEAD@Z 0000000140048740 f i libucrt:environment_initialization.obj
 0001:00047754       ??$tcscpy_s@PEA_WAEB_KAEAPEA_W@?$__crt_char_traits@_W@@SAH$$QEAPEA_WAEB_KAEAPEA_W@Z 0000000140048754 f i libucrt:environment_initialization.obj
 0001:00047768       ??$tcslen@AEAPEAD@?$__crt_char_traits@D@@SA_KAEAPEAD@Z 0000000140048768 f i libucrt:environment_initialization.obj
 0001:00047780       ??$tcslen@AEAPEA_W@?$__crt_char_traits@_W@@SA_KAEAPEA_W@Z 0000000140048780 f i libucrt:environment_initialization.obj
 0001:00047798       ??$uninitialize@A6AXAEAPEAPEAD@Z@?$dual_state_global@PEAPEAD@__crt_state_management@@QEAAXA6AXAEAPEAPEAD@Z@Z 0000000140048798 f i libucrt:environment_initialization.obj
 0001:000477ec       ??$uninitialize@A6AXAEAPEAPEA_W@Z@?$dual_state_global@PEAPEA_W@__crt_state_management@@QEAAXA6AXAEAPEAPEA_W@Z@Z 00000001400487ec f i libucrt:environment_initialization.obj
 0001:00047880       ??0?$__crt_unique_heap_ptr@_WU__crt_internal_free_policy@@@@QEAA@QEA_W@Z 0000000140048880 f i libucrt:environment_initialization.obj
 0001:00047888       ??1?$__crt_unique_heap_ptr@_WU__crt_internal_free_policy@@@@QEAA@XZ 0000000140048888 f i libucrt:environment_initialization.obj
 0001:000478ac       ??B?$__crt_unique_heap_ptr@PEADU__crt_internal_free_policy@@@@QEBA_NXZ 00000001400488ac f i libucrt:environment_initialization.obj
 0001:000478b8       ??B?$__crt_unique_heap_ptr@PEA_WU__crt_internal_free_policy@@@@QEBA_NXZ 00000001400488b8 f i libucrt:environment_initialization.obj
 0001:000478c4       ??B?$__crt_unique_heap_ptr@_WU__crt_internal_free_policy@@@@QEBA_NXZ 00000001400488c4 f i libucrt:environment_initialization.obj
 0001:000478d0       ?__crt_compute_required_transform_buffer_count@@YA_KIQEBD@Z 00000001400488d0 f i libucrt:environment_initialization.obj
 0001:00047900       ?__crt_compute_required_transform_buffer_count@@YA_KIQEB_W@Z 0000000140048900 f i libucrt:environment_initialization.obj
 0001:0004793c       ?__crt_transform_string@@YA_KIQEBDQEA_W_K@Z 000000014004893c f i libucrt:environment_initialization.obj
 0001:00047968       ?__crt_transform_string@@YA_KIQEB_WQEAD_K@Z 0000000140048968 f i libucrt:environment_initialization.obj
 0001:000479a4       ?detach@?$__crt_unique_heap_ptr@DU__crt_internal_free_policy@@@@QEAAPEADXZ 00000001400489a4 f i libucrt:environment_initialization.obj
 0001:000479b0       ?detach@?$__crt_unique_heap_ptr@_WU__crt_internal_free_policy@@@@QEAAPEA_WXZ 00000001400489b0 f i libucrt:environment_initialization.obj
 0001:000479bc       ?get@?$__crt_unique_heap_ptr@_WU__crt_internal_free_policy@@@@QEBAPEA_WXZ 00000001400489bc f i libucrt:environment_initialization.obj
 0001:00047a08       ?initialize@?$dual_state_global@PEAPEAD@__crt_state_management@@QEAAXQEAPEAD@Z 0000000140048a08 f i libucrt:environment_initialization.obj
 0001:00047a38       ?initialize@?$dual_state_global@PEAPEA_W@__crt_state_management@@QEAAXQEAPEA_W@Z 0000000140048a38 f i libucrt:environment_initialization.obj
 0001:00047a68       ?is_valid@?$__crt_unique_heap_ptr@PEADU__crt_internal_free_policy@@@@QEBA_NXZ 0000000140048a68 f i libucrt:environment_initialization.obj
 0001:00047a74       ?is_valid@?$__crt_unique_heap_ptr@PEA_WU__crt_internal_free_policy@@@@QEBA_NXZ 0000000140048a74 f i libucrt:environment_initialization.obj
 0001:00047a80       ?is_valid@?$__crt_unique_heap_ptr@_WU__crt_internal_free_policy@@@@QEBA_NXZ 0000000140048a80 f i libucrt:environment_initialization.obj
 0001:00047a98       ?release@?$__crt_unique_heap_ptr@_WU__crt_internal_free_policy@@@@QEAAXXZ 0000000140048a98 f i libucrt:environment_initialization.obj
 0001:00047abc       ?value@?$dual_state_global@PEAPEAD@__crt_state_management@@QEAAAEAPEAPEADXZ 0000000140048abc f i libucrt:environment_initialization.obj
 0001:00047ac0       ?value@?$dual_state_global@PEAPEA_W@__crt_state_management@@QEAAAEAPEAPEA_WXZ 0000000140048ac0 f i libucrt:environment_initialization.obj
 0001:00047ac4       __dcrt_get_or_create_narrow_environment_nolock 0000000140048ac4 f   libucrt:environment_initialization.obj
 0001:00047b10       __dcrt_get_or_create_wide_environment_nolock 0000000140048b10 f   libucrt:environment_initialization.obj
 0001:00047b5c       __dcrt_uninitialize_environments_nolock 0000000140048b5c f   libucrt:environment_initialization.obj
 0001:00047ba4       __p__environ               0000000140048ba4 f   libucrt:environment_initialization.obj
 0001:00047bb0       __p__wenviron              0000000140048bb0 f   libucrt:environment_initialization.obj
 0001:00047bbc       _get_initial_narrow_environment 0000000140048bbc f   libucrt:environment_initialization.obj
 0001:00047c20       _get_initial_wide_environment 0000000140048c20 f   libucrt:environment_initialization.obj
 0001:00047c84       _initialize_narrow_environment 0000000140048c84 f   libucrt:environment_initialization.obj
 0001:00047c8c       _initialize_wide_environment 0000000140048c8c f   libucrt:environment_initialization.obj
 0001:00047c94       _initterm                  0000000140048c94 f   libucrt:initterm.obj
 0001:00047d14       _initterm_e                0000000140048d14 f   libucrt:initterm.obj
 0001:00047d60       ??$?B$$A6AXPEAXK0@Z@__crt_fast_encoded_nullptr_t@@QEBAP6AXPEAXK0@ZXZ 0000000140048d60 f i libucrt:exit.obj
 0001:00047de4       ??$__crt_fast_decode_pointer@P6AXPEAXK0@Z@@YAP6AXPEAXK0@ZQ6AX0K0@Z@Z 0000000140048de4 f i libucrt:exit.obj
 0001:00047e00       ??$__crt_fast_encode_pointer@P6AXPEAXK0@Z@@YAP6AXPEAXK0@ZQ6AX0K0@Z@Z 0000000140048e00 f i libucrt:exit.obj
 0001:00047e28       ??$__crt_get_proc_address@P6AXI@Z@@YAP6AXI@ZQEAUHINSTANCE__@@QEBD@Z 0000000140048e28 f i libucrt:exit.obj
 0001:00047e5c       ??0?$__crt_unique_handle_t@U__crt_hmodule_traits@@@@QEAA@QEAUHINSTANCE__@@@Z 0000000140048e5c f i libucrt:exit.obj
 0001:00047e64       ??1?$__crt_unique_handle_t@U__crt_hmodule_traits@@@@QEAA@XZ 0000000140048e64 f i libucrt:exit.obj
 0001:00047f94       ?__acrt_select_exit_lock@@YA?AW4__acrt_lock_id@@XZ 0000000140048f94 f i libucrt:exit.obj
 0001:00047f9c       ?__crt_fast_encode_pointer@@YA?AU__crt_fast_encoded_nullptr_t@@$$T@Z 0000000140048f9c f i libucrt:exit.obj
 0001:00047fb4       ?close@?$__crt_unique_handle_t@U__crt_hmodule_traits@@@@QEAAXXZ 0000000140048fb4 f i libucrt:exit.obj
 0001:00047fe0       ?close@__crt_hmodule_traits@@SA_NPEAUHINSTANCE__@@@Z 0000000140048fe0 f i libucrt:exit.obj
 0001:00048144       ?get@?$__crt_unique_handle_t@U__crt_hmodule_traits@@@@QEBAPEAUHINSTANCE__@@XZ 0000000140049144 f i libucrt:exit.obj
 0001:00048148       ?get_address_of@?$__crt_unique_handle_t@U__crt_hmodule_traits@@@@QEAAPEAPEAUHINSTANCE__@@XZ 0000000140049148 f i libucrt:exit.obj
 0001:0004814c       ?get_invalid_value@__crt_hmodule_traits@@SAPEAUHINSTANCE__@@XZ 000000014004914c f i libucrt:exit.obj
 0001:00048268       _Exit                      0000000140049268 f   libucrt:exit.obj
 0001:00048278       __acrt_initialize_thread_local_exit_callback 0000000140049278 f   libucrt:exit.obj
 0001:00048284       _c_exit                    0000000140049284 f   libucrt:exit.obj
 0001:00048298       _cexit                     0000000140049298 f   libucrt:exit.obj
 0001:000482a8       _exit                      00000001400492a8 f   libucrt:exit.obj
 0001:000482b8       _is_c_termination_complete 00000001400492b8 f   libucrt:exit.obj
 0001:000482c0       _register_thread_local_exe_atexit_callback 00000001400492c0 f   libucrt:exit.obj
 0001:0004830c       exit                       000000014004930c f   libucrt:exit.obj
 0001:00048318       quick_exit                 0000000140049318 f   libucrt:exit.obj
 0001:00048328       ??$__crt_interlocked_read@H@@YAHPEDH@Z 0000000140049328 f i libucrt:setmode.obj
 0001:0004832c       ?value@?$dual_state_global@H@__crt_state_management@@QEAAAEAHXZ 000000014004932c f i libucrt:setmode.obj
 0001:00048330       _get_fmode                 0000000140049330 f   libucrt:setmode.obj
 0001:0004836c       _set_fmode                 000000014004936c f   libucrt:setmode.obj
 0001:000483b8       _setmode                   00000001400493b8 f   libucrt:setmode.obj
 0001:000484fc       _setmode_nolock            00000001400494fc f   libucrt:setmode.obj
 0001:00048614       __acrt_initialize_command_line 0000000140049614 f   libucrt:argv_data.obj
 0001:00048644       __acrt_uninitialize_command_line 0000000140049644 f   libucrt:argv_data.obj
 0001:00048648       __p___argc                 0000000140049648 f   libucrt:argv_data.obj
 0001:00048654       __p___argv                 0000000140049654 f   libucrt:argv_data.obj
 0001:00048660       __p___wargv                0000000140049660 f   libucrt:argv_data.obj
 0001:0004866c       __p__acmdln                000000014004966c f   libucrt:argv_data.obj
 0001:00048678       __p__pgmptr                0000000140049678 f   libucrt:argv_data.obj
 0001:00048684       __p__wcmdln                0000000140049684 f   libucrt:argv_data.obj
 0001:00048690       __p__wpgmptr               0000000140049690 f   libucrt:argv_data.obj
 0001:0004869c       _get_pgmptr                000000014004969c f   libucrt:argv_data.obj
 0001:000486e0       _get_wpgmptr               00000001400496e0 f   libucrt:argv_data.obj
 0001:00048728       ??$?RU__crt_locale_data@@@__crt_internal_free_policy@@QEBAXQEBU__crt_locale_data@@@Z 0000000140049728 f i libucrt:wsetlocale.obj
 0001:00048734       ??$?RU__crt_locale_pointers@@@__crt_internal_free_policy@@QEBAXQEBU__crt_locale_pointers@@@Z 0000000140049734 f i libucrt:wsetlocale.obj
 0001:00048740       ??$?RU__crt_multibyte_data@@@__crt_internal_free_policy@@QEBAXQEBU__crt_multibyte_data@@@Z 0000000140049740 f i libucrt:wsetlocale.obj
 0001:00048c48       ??0?$__crt_unique_heap_ptr@U__crt_locale_data@@U__crt_internal_free_policy@@@@QEAA@QEAU__crt_locale_data@@@Z 0000000140049c48 f i libucrt:wsetlocale.obj
 0001:00048c50       ??0?$__crt_unique_heap_ptr@U__crt_locale_pointers@@U__crt_internal_free_policy@@@@QEAA@QEAU__crt_locale_pointers@@@Z 0000000140049c50 f i libucrt:wsetlocale.obj
 0001:00048c58       ??0?$__crt_unique_heap_ptr@U__crt_multibyte_data@@U__crt_internal_free_policy@@@@QEAA@QEAU__crt_multibyte_data@@@Z 0000000140049c58 f i libucrt:wsetlocale.obj
 0001:00048c60       ??0_expandlocale_locale_name_cache@@QEAA@QEA_W_KQEAU__crt_qualified_locale_data@@@Z 0000000140049c60 f i libucrt:wsetlocale.obj
 0001:00048cd0       ??1?$__crt_unique_heap_ptr@U__crt_locale_data@@U__crt_internal_free_policy@@@@QEAA@XZ 0000000140049cd0 f i libucrt:wsetlocale.obj
 0001:00048cf4       ??1?$__crt_unique_heap_ptr@U__crt_locale_pointers@@U__crt_internal_free_policy@@@@QEAA@XZ 0000000140049cf4 f i libucrt:wsetlocale.obj
 0001:00048d18       ??1?$__crt_unique_heap_ptr@U__crt_multibyte_data@@U__crt_internal_free_policy@@@@QEAA@XZ 0000000140049d18 f i libucrt:wsetlocale.obj
 0001:00048d3c       ??1_expandlocale_locale_name_cache@@QEAA@XZ 0000000140049d3c f i libucrt:wsetlocale.obj
 0001:00048d98       ??B?$__crt_unique_heap_ptr@U__crt_locale_data@@U__crt_internal_free_policy@@@@QEBA_NXZ 0000000140049d98 f i libucrt:wsetlocale.obj
 0001:00048da4       ??B?$__crt_unique_heap_ptr@U__crt_locale_pointers@@U__crt_internal_free_policy@@@@QEBA_NXZ 0000000140049da4 f i libucrt:wsetlocale.obj
 0001:00048db0       ??B?$__crt_unique_heap_ptr@U__crt_multibyte_data@@U__crt_internal_free_policy@@@@QEBA_NXZ 0000000140049db0 f i libucrt:wsetlocale.obj
 0001:000490bc       ?commit_locale_name@_expandlocale_locale_name_cache@@QEAAXQEB_W_K@Z 000000014004a0bc f i libucrt:wsetlocale.obj
 0001:00049150       ?commit_locale_name_cache_already_updated@_expandlocale_locale_name_cache@@QEAAXQEB_W_K@Z 000000014004a150 f i libucrt:wsetlocale.obj
 0001:000491a0       ?detach@?$__crt_unique_heap_ptr@U__crt_locale_data@@U__crt_internal_free_policy@@@@QEAAPEAU__crt_locale_data@@XZ 000000014004a1a0 f i libucrt:wsetlocale.obj
 0001:000491ac       ?detach@?$__crt_unique_heap_ptr@U__crt_locale_pointers@@U__crt_internal_free_policy@@@@QEAAPEAU__crt_locale_pointers@@XZ 000000014004a1ac f i libucrt:wsetlocale.obj
 0001:000491b8       ?detach@?$__crt_unique_heap_ptr@U__crt_multibyte_data@@U__crt_internal_free_policy@@@@QEAAPEAU__crt_multibyte_data@@XZ 000000014004a1b8 f i libucrt:wsetlocale.obj
 0001:000491c4       ?get@?$__crt_unique_heap_ptr@U__crt_locale_data@@U__crt_internal_free_policy@@@@QEBAPEAU__crt_locale_data@@XZ 000000014004a1c4 f i libucrt:wsetlocale.obj
 0001:000491c8       ?get@?$__crt_unique_heap_ptr@U__crt_locale_pointers@@U__crt_internal_free_policy@@@@QEBAPEAU__crt_locale_pointers@@XZ 000000014004a1c8 f i libucrt:wsetlocale.obj
 0001:000491cc       ?get@?$__crt_unique_heap_ptr@U__crt_multibyte_data@@U__crt_internal_free_policy@@@@QEBAPEAU__crt_multibyte_data@@XZ 000000014004a1cc f i libucrt:wsetlocale.obj
 0001:000491d0       ?is_valid@?$__crt_unique_heap_ptr@U__crt_locale_data@@U__crt_internal_free_policy@@@@QEBA_NXZ 000000014004a1d0 f i libucrt:wsetlocale.obj
 0001:000491dc       ?is_valid@?$__crt_unique_heap_ptr@U__crt_locale_pointers@@U__crt_internal_free_policy@@@@QEBA_NXZ 000000014004a1dc f i libucrt:wsetlocale.obj
 0001:000491e8       ?is_valid@?$__crt_unique_heap_ptr@U__crt_multibyte_data@@U__crt_internal_free_policy@@@@QEBA_NXZ 000000014004a1e8 f i libucrt:wsetlocale.obj
 0001:000491f4       ?release@?$__crt_unique_heap_ptr@U__crt_locale_data@@U__crt_internal_free_policy@@@@QEAAXXZ 000000014004a1f4 f i libucrt:wsetlocale.obj
 0001:00049218       ?release@?$__crt_unique_heap_ptr@U__crt_locale_pointers@@U__crt_internal_free_policy@@@@QEAAXXZ 000000014004a218 f i libucrt:wsetlocale.obj
 0001:0004923c       ?release@?$__crt_unique_heap_ptr@U__crt_multibyte_data@@U__crt_internal_free_policy@@@@QEAAXXZ 000000014004a23c f i libucrt:wsetlocale.obj
 0001:00049260       ?value@?$dual_state_global@PEAU__crt_locale_data@@@__crt_state_management@@QEAAAEAPEAU__crt_locale_data@@XZ 000000014004a260 f i libucrt:wsetlocale.obj
 0001:00049264       __acrt_copy_locale_name    000000014004a264 f   libucrt:wsetlocale.obj
 0001:00049308       __acrt_set_locale_changed  000000014004a308 f   libucrt:wsetlocale.obj
 0001:00049318       __acrt_uninitialize_locale 000000014004a318 f   libucrt:wsetlocale.obj
 0001:00049354       __ascii_tolower            000000014004a354 f i libucrt:wsetlocale.obj
 0001:00049368       __ascii_towlower           000000014004a368 f i libucrt:wsetlocale.obj
 0001:00049378       __lc_lctowcs               000000014004a378 f   libucrt:wsetlocale.obj
 0001:00049444       __lc_wcstolc               000000014004a444 f   libucrt:wsetlocale.obj
 0001:00049604       _configthreadlocale        000000014004a604 f   libucrt:wsetlocale.obj
 0001:00049778       _create_locale             000000014004a778 f   libucrt:wsetlocale.obj
 0001:00049da8       _free_locale               000000014004ada8 f   libucrt:wsetlocale.obj
 0001:00049e74       _get_current_locale        000000014004ae74 f   libucrt:wsetlocale.obj
 0001:00049f60       _wcreate_locale            000000014004af60 f   libucrt:wsetlocale.obj
 0001:0004a0fc       _wcscats                   000000014004b0fc f   libucrt:wsetlocale.obj
 0001:0004a17c       _wsetlocale                000000014004b17c f   libucrt:wsetlocale.obj
 0001:0004b340       ?value@?$dual_state_global@J@__crt_state_management@@QEAAAEAJXZ 000000014004c340 f i libucrt:new_mode.obj
 0001:0004b344       _query_new_mode            000000014004c344 f   libucrt:new_mode.obj
 0001:0004b34c       _set_new_mode              000000014004c34c f   libucrt:new_mode.obj
 0001:0004b384       __p__commode               000000014004c384 f   libucrt:ncommode.obj
 0001:0004b390       ??$?B$$A6AXXZ@__crt_fast_encoded_nullptr_t@@QEBAP6AXXZXZ 000000014004c390 f i libucrt:onexit.obj
 0001:0004b39c       ??$?BP6AXXZ@__crt_fast_encoded_nullptr_t@@QEBAPEAP6AXXZXZ 000000014004c39c f i libucrt:onexit.obj
 0001:0004b3a8       ??$?RP6AXXZ@__crt_internal_free_policy@@QEBAXQEBQ6AXXZ@Z 000000014004c3a8 f i libucrt:onexit.obj
 0001:0004b4ac       ??$__crt_fast_decode_pointer@P6AXXZ@@YAP6AXXZQ6AXXZ@Z 000000014004c4ac f i libucrt:onexit.obj
 0001:0004b4c8       ??$__crt_fast_decode_pointer@PEAP6AXXZ@@YAPEAP6AXXZQEAP6AXXZ@Z 000000014004c4c8 f i libucrt:onexit.obj
 0001:0004b4e4       ??$__crt_fast_encode_pointer@P6AHXZ@@YAP6AHXZQ6AHXZ@Z 000000014004c4e4 f i libucrt:onexit.obj
 0001:0004b50c       ??$__crt_fast_encode_pointer@P6AXXZ@@YAP6AXXZQ6AXXZ@Z 000000014004c50c f i libucrt:onexit.obj
 0001:0004b534       ??$__crt_fast_encode_pointer@PEAP6AXXZ@@YAPEAP6AXXZQEAP6AXXZ@Z 000000014004c534 f i libucrt:onexit.obj
 0001:0004b5a4       ??0?$__crt_unique_heap_ptr@P6AXXZU__crt_internal_free_policy@@@@QEAA@QEAP6AXXZ@Z 000000014004c5a4 f i libucrt:onexit.obj
 0001:0004b5ac       ??1?$__crt_unique_heap_ptr@P6AXXZU__crt_internal_free_policy@@@@QEAA@XZ 000000014004c5ac f i libucrt:onexit.obj
 0001:0004b5d0       ??1scoped_global_state_reset@__crt_state_management@@QEAA@XZ 000000014004c5d0 f i libucrt:onexit.obj
 0001:0004b96c       ?detach@?$__crt_unique_heap_ptr@P6AXXZU__crt_internal_free_policy@@@@QEAAPEAP6AXXZXZ 000000014004c96c f i libucrt:onexit.obj
 0001:0004b978       ?release@?$__crt_unique_heap_ptr@P6AXXZU__crt_internal_free_policy@@@@QEAAXXZ 000000014004c978 f i libucrt:onexit.obj
 0001:0004b99c       _crt_at_quick_exit         000000014004c99c f   libucrt:onexit.obj
 0001:0004b9b0       _crt_atexit                000000014004c9b0 f   libucrt:onexit.obj
 0001:0004b9c4       _execute_onexit_table      000000014004c9c4 f   libucrt:onexit.obj
 0001:0004ba0c       _initialize_onexit_table   000000014004ca0c f   libucrt:onexit.obj
 0001:0004ba3c       _register_onexit_function  000000014004ca3c f   libucrt:onexit.obj
 0001:0004bc1c       ??$?BX@__crt_fast_encoded_nullptr_t@@QEBAPEAXXZ 000000014004cc1c f i libucrt:initialization.obj
 0001:0004bc28       ??$__crt_fast_encode_pointer@PEAX@@YAPEAXQEAX@Z 000000014004cc28 f i libucrt:initialization.obj
 0001:0004bd2c       ?__acrt_stdio_is_initialized@@YA_NXZ 000000014004cd2c f i libucrt:initialization.obj
 0001:0004bd3c       ?initialize@?$dual_state_global@PEAU__crt_locale_data@@@__crt_state_management@@QEAAXQEAU__crt_locale_data@@@Z 000000014004cd3c f i libucrt:initialization.obj
 0001:0004bd6c       __acrt_initialize          000000014004cd6c f   libucrt:initialization.obj
 0001:0004bd84       __acrt_thread_attach       000000014004cd84 f   libucrt:initialization.obj
 0001:0004bda0       __acrt_thread_detach       000000014004cda0 f   libucrt:initialization.obj
 0001:0004bdb4       __acrt_uninitialize        000000014004cdb4 f   libucrt:initialization.obj
 0001:0004bdf8       __acrt_uninitialize_critical 000000014004cdf8 f   libucrt:initialization.obj
 0001:0004be24       _get_terminate             000000014004ce24 f   libucrt:terminate.obj
 0001:0004be50       set_terminate              000000014004ce50 f   libucrt:terminate.obj
 0001:0004be88       terminate                  000000014004ce88 f   libucrt:terminate.obj
 0001:0004beb0       free                       000000014004ceb0 f   libucrt:free.obj
 0001:0004bec8       malloc                     000000014004cec8 f   libucrt:malloc.obj
 0001:0004bf4c       strcpy_s                   000000014004cf4c f   libucrt:strcpy_s.obj
 0001:0004bfc4       _set_abort_behavior        000000014004cfc4 f   libucrt:abort.obj
 0001:0004bfe8       abort                      000000014004cfe8 f   libucrt:abort.obj
 0001:0004c054       calloc                     000000014004d054 f   libucrt:calloc.obj
 0001:0004c05c       ??$is_overflow_condition@K@__crt_strtox@@YA_NIK@Z 000000014004d05c f i libucrt:atox.obj
 0001:0004c08c       ??$is_overflow_condition@_K@__crt_strtox@@YA_NI_K@Z 000000014004d08c f i libucrt:atox.obj
 0001:0004c0c8       ??$make_c_string_character_source@D$$T@__crt_strtox@@YA?AV?$c_string_character_source@D@0@QEBD$$T@Z 000000014004d0c8 f i libucrt:atox.obj
 0001:0004c0e0       ??$make_c_string_character_source@_W$$T@__crt_strtox@@YA?AV?$c_string_character_source@_W@0@QEB_W$$T@Z 000000014004d0e0 f i libucrt:atox.obj
 0001:0004c0f8       ??$parse_integer@KV?$c_string_character_source@D@__crt_strtox@@@__crt_strtox@@YAKQEAU__crt_locale_pointers@@V?$c_string_character_source@D@0@H_N@Z 000000014004d0f8 f i libucrt:atox.obj
 0001:0004c4bc       ??$parse_integer@KV?$c_string_character_source@_W@__crt_strtox@@@__crt_strtox@@YAKQEAU__crt_locale_pointers@@V?$c_string_character_source@_W@0@H_N@Z 000000014004d4bc f i libucrt:atox.obj
 0001:0004cd0c       ??$parse_integer@_KV?$c_string_character_source@D@__crt_strtox@@@__crt_strtox@@YA_KQEAU__crt_locale_pointers@@V?$c_string_character_source@D@0@H_N@Z 000000014004dd0c f i libucrt:atox.obj
 0001:0004d0b4       ??$parse_integer@_KV?$c_string_character_source@_W@__crt_strtox@@@__crt_strtox@@YA_KQEAU__crt_locale_pointers@@V?$c_string_character_source@_W@0@H_N@Z 000000014004e0b4 f i libucrt:atox.obj
 0001:0004d9e0       ??$parse_integer_from_string@JD$$T@__crt_strtox@@YAJQEBD$$THQEAU__crt_locale_pointers@@@Z 000000014004e9e0 f i libucrt:atox.obj
 0001:0004da1c       ??$parse_integer_from_string@J_W$$T@__crt_strtox@@YAJQEB_W$$THQEAU__crt_locale_pointers@@@Z 000000014004ea1c f i libucrt:atox.obj
 0001:0004da58       ??$parse_integer_from_string@_JD$$T@__crt_strtox@@YA_JQEBD$$THQEAU__crt_locale_pointers@@@Z 000000014004ea58 f i libucrt:atox.obj
 0001:0004da94       ??$parse_integer_from_string@_J_W$$T@__crt_strtox@@YA_JQEB_W$$THQEAU__crt_locale_pointers@@@Z 000000014004ea94 f i libucrt:atox.obj
 0001:0004dad0       ??0?$c_string_character_source@D@__crt_strtox@@QEAA@QEBDQEAPEBD@Z 000000014004ead0 f i libucrt:atox.obj
 0001:0004dae8       ??0?$c_string_character_source@_W@__crt_strtox@@QEAA@QEB_WQEAPEB_W@Z 000000014004eae8 f i libucrt:atox.obj
 0001:0004db00       ??1?$c_string_character_source@D@__crt_strtox@@QEAA@XZ 000000014004eb00 f i libucrt:atox.obj
 0001:0004db14       ??1?$c_string_character_source@_W@__crt_strtox@@QEAA@XZ 000000014004eb14 f i libucrt:atox.obj
 0001:0004db28       ?get@?$c_string_character_source@D@__crt_strtox@@QEAADXZ 000000014004eb28 f i libucrt:atox.obj
 0001:0004db38       ?get@?$c_string_character_source@_W@__crt_strtox@@QEAA_WXZ 000000014004eb38 f i libucrt:atox.obj
 0001:0004db4c       ?is_space@__crt_strtox@@YA_NDQEAU__crt_locale_pointers@@@Z 000000014004eb4c f i libucrt:atox.obj
 0001:0004db74       ?is_space@__crt_strtox@@YA_N_WPEAU__crt_locale_pointers@@@Z 000000014004eb74 f i libucrt:atox.obj
 0001:0004db94       ?maximum_signed_value@__crt_strtox@@YAJK@Z 000000014004eb94 f i libucrt:atox.obj
 0001:0004db9c       ?maximum_signed_value@__crt_strtox@@YA_J_K@Z 000000014004eb9c f i libucrt:atox.obj
 0001:0004dbac       ?minimum_signed_value@__crt_strtox@@YAJK@Z 000000014004ebac f i libucrt:atox.obj
 0001:0004dbb4       ?minimum_signed_value@__crt_strtox@@YA_J_K@Z 000000014004ebb4 f i libucrt:atox.obj
 0001:0004dbc4       ?parse_digit@__crt_strtox@@YAID@Z 000000014004ebc4 f i libucrt:atox.obj
 0001:0004dc00       ?parse_digit@__crt_strtox@@YAI_W@Z 000000014004ec00 f i libucrt:atox.obj
 0001:0004de44       ?restore_state@?$c_string_character_source@D@__crt_strtox@@QEAA_NQEBD@Z 000000014004ee44 f i libucrt:atox.obj
 0001:0004de4c       ?restore_state@?$c_string_character_source@_W@__crt_strtox@@QEAA_NQEB_W@Z 000000014004ee4c f i libucrt:atox.obj
 0001:0004de54       ?save_state@?$c_string_character_source@D@__crt_strtox@@QEBAPEBDXZ 000000014004ee54 f i libucrt:atox.obj
 0001:0004de58       ?save_state@?$c_string_character_source@_W@__crt_strtox@@QEBAPEB_WXZ 000000014004ee58 f i libucrt:atox.obj
 0001:0004de5c       ?unget@?$c_string_character_source@D@__crt_strtox@@QEAAXD@Z 000000014004ee5c f i libucrt:atox.obj
 0001:0004de90       ?unget@?$c_string_character_source@_W@__crt_strtox@@QEAAX_W@Z 000000014004ee90 f i libucrt:atox.obj
 0001:0004dec8       ?validate@?$c_string_character_source@D@__crt_strtox@@QEBA_NXZ 000000014004eec8 f i libucrt:atox.obj
 0001:0004def8       ?validate@?$c_string_character_source@_W@__crt_strtox@@QEBA_NXZ 000000014004eef8 f i libucrt:atox.obj
 0001:0004df28       ?wide_character_to_digit@__crt_strtox@@YAH_W@Z 000000014004ef28 f i libucrt:atox.obj
 0001:0004e130       __acrt_get_locale_data_prefix 000000014004f130 f i libucrt:atox.obj
 0001:0004e134       __ascii_iswalpha           000000014004f134 f i libucrt:atox.obj
 0001:0004e154       __ascii_toupper            000000014004f154 f i libucrt:atox.obj
 0001:0004e168       __ascii_towupper           000000014004f168 f i libucrt:atox.obj
 0001:0004e178       _atoi64                    000000014004f178 f   libucrt:atox.obj
 0001:0004e1ac       _atoi64_l                  000000014004f1ac f   libucrt:atox.obj
 0001:0004e1e4       _atoi_l                    000000014004f1e4 f   libucrt:atox.obj
 0001:0004e21c       _atol_l                    000000014004f21c f   libucrt:atox.obj
 0001:0004e254       _atoll_l                   000000014004f254 f   libucrt:atox.obj
 0001:0004e28c       _chvalidchk_l              000000014004f28c f i libucrt:atox.obj
 0001:0004e308       _ischartype_l              000000014004f308 f i libucrt:atox.obj
 0001:0004e39c       _wtoi                      000000014004f39c f   libucrt:atox.obj
 0001:0004e3d0       _wtoi64                    000000014004f3d0 f   libucrt:atox.obj
 0001:0004e404       _wtoi64_l                  000000014004f404 f   libucrt:atox.obj
 0001:0004e43c       _wtoi_l                    000000014004f43c f   libucrt:atox.obj
 0001:0004e474       _wtol                      000000014004f474 f   libucrt:atox.obj
 0001:0004e4a8       _wtol_l                    000000014004f4a8 f   libucrt:atox.obj
 0001:0004e4e0       _wtoll                     000000014004f4e0 f   libucrt:atox.obj
 0001:0004e514       _wtoll_l                   000000014004f514 f   libucrt:atox.obj
 0001:0004e54c       atoi                       000000014004f54c f   libucrt:atox.obj
 0001:0004e580       atol                       000000014004f580 f   libucrt:atox.obj
 0001:0004e5b4       atoll                      000000014004f5b4 f   libucrt:atox.obj
 0001:0004e600       strncmp                    000000014004f600 f   libucrt:strncmp.obj
 0001:0004e6a0       wcsncmp                    000000014004f6a0 f   libucrt:wcsncmp.obj
 0001:0004e6d8       ??$__crt_fast_decode_pointer@P6AXPEB_W00I_K@Z@@YAP6AXPEB_W00I_K@ZQ6AX000I1@Z@Z 000000014004f6d8 f i libucrt:invalid_parameter.obj
 0001:0004e6f4       ??$__crt_fast_encode_pointer@P6AXPEB_W00I_K@Z@@YAP6AXPEB_W00I_K@ZQ6AX000I1@Z@Z 000000014004f6f4 f i libucrt:invalid_parameter.obj
 0001:0004e71c       ??$initialize_from_array@$$BY00Q6AXPEB_W00I_K@Z@?$dual_state_global@P6AXPEB_W00I_K@Z@__crt_state_management@@QEAAXAEAY00Q6AXPEB_W00I_K@Z@Z 000000014004f71c f i libucrt:invalid_parameter.obj
 0001:0004e7ac       ?dangerous_get_state_array@?$dual_state_global@P6AXPEB_W00I_K@Z@__crt_state_management@@QEAAPEAP6AXPEB_W00I_K@ZXZ 000000014004f7ac f i libucrt:invalid_parameter.obj
 0001:0004e7b0       ?value@?$dual_state_global@P6AXPEB_W00I_K@Z@__crt_state_management@@QEAAAEAP6AXPEB_W00I_K@ZXZ 000000014004f7b0 f i libucrt:invalid_parameter.obj
 0001:0004e7b4       __acrt_call_reportfault    000000014004f7b4 f   libucrt:invalid_parameter.obj
 0001:0004e968       __acrt_initialize_invalid_parameter_handler 000000014004f968 f   libucrt:invalid_parameter.obj
 0001:0004e974       _get_invalid_parameter_handler 000000014004f974 f   libucrt:invalid_parameter.obj
 0001:0004e990       _get_thread_local_invalid_parameter_handler 000000014004f990 f   libucrt:invalid_parameter.obj
 0001:0004e9b0       _invalid_parameter         000000014004f9b0 f   libucrt:invalid_parameter.obj
 0001:0004ea8c       _invalid_parameter_noinfo  000000014004fa8c f   libucrt:invalid_parameter.obj
 0001:0004eab4       _invalid_parameter_noinfo_noreturn 000000014004fab4 f   libucrt:invalid_parameter.obj
 0001:0004eaf0       _invoke_watson             000000014004faf0 f   libucrt:invalid_parameter.obj
 0001:0004eb48       _set_invalid_parameter_handler 000000014004fb48 f   libucrt:invalid_parameter.obj
 0001:0004eb8c       _set_thread_local_invalid_parameter_handler 000000014004fb8c f   libucrt:invalid_parameter.obj
 0001:0004ebbc       __acrt_errno_from_os_error 000000014004fbbc f   libucrt:errno.obj
 0001:0004ec14       __acrt_errno_map_os_error  000000014004fc14 f   libucrt:errno.obj
 0001:0004ec78       __doserrno                 000000014004fc78 f   libucrt:errno.obj
 0001:0004eca0       _errno                     000000014004fca0 f   libucrt:errno.obj
 0001:0004ecc8       _get_doserrno              000000014004fcc8 f   libucrt:errno.obj
 0001:0004ed14       _get_errno                 000000014004fd14 f   libucrt:errno.obj
 0001:0004ed60       _set_doserrno              000000014004fd60 f   libucrt:errno.obj
 0001:0004eda8       _set_errno                 000000014004fda8 f   libucrt:errno.obj
 0001:0004edfc       _free_base                 000000014004fdfc f   libucrt:free_base.obj
 0001:0004ee48       _malloc_base               000000014004fe48 f   libucrt:malloc_base.obj
 0001:0004eec0       ??$make_c_string_character_source@DPEAPEAD@__crt_strtox@@YA?AV?$c_string_character_source@D@0@QEBDQEAPEAD@Z 000000014004fec0 f i libucrt:strtox.obj
 0001:0004eed8       ??$make_c_string_character_source@_WPEAPEA_W@__crt_strtox@@YA?AV?$c_string_character_source@_W@0@QEB_WQEAPEA_W@Z 000000014004fed8 f i libucrt:strtox.obj
 0001:0004eef0       ??$parse_integer_from_string@JDPEAPEAD@__crt_strtox@@YAJQEBDQEAPEADHQEAU__crt_locale_pointers@@@Z 000000014004fef0 f i libucrt:strtox.obj
 0001:0004ef2c       ??$parse_integer_from_string@J_WPEAPEA_W@__crt_strtox@@YAJQEB_WQEAPEA_WHQEAU__crt_locale_pointers@@@Z 000000014004ff2c f i libucrt:strtox.obj
 0001:0004ef68       ??$parse_integer_from_string@KDPEAPEAD@__crt_strtox@@YAKQEBDQEAPEADHQEAU__crt_locale_pointers@@@Z 000000014004ff68 f i libucrt:strtox.obj
 0001:0004efa4       ??$parse_integer_from_string@K_WPEAPEA_W@__crt_strtox@@YAKQEB_WQEAPEA_WHQEAU__crt_locale_pointers@@@Z 000000014004ffa4 f i libucrt:strtox.obj
 0001:0004efe0       ??$parse_integer_from_string@_JDPEAPEAD@__crt_strtox@@YA_JQEBDQEAPEADHQEAU__crt_locale_pointers@@@Z 000000014004ffe0 f i libucrt:strtox.obj
 0001:0004f01c       ??$parse_integer_from_string@_J_WPEAPEA_W@__crt_strtox@@YA_JQEB_WQEAPEA_WHQEAU__crt_locale_pointers@@@Z 000000014005001c f i libucrt:strtox.obj
 0001:0004f058       ??$parse_integer_from_string@_KDPEAPEAD@__crt_strtox@@YA_KQEBDQEAPEADHQEAU__crt_locale_pointers@@@Z 0000000140050058 f i libucrt:strtox.obj
 0001:0004f094       ??$parse_integer_from_string@_K_WPEAPEA_W@__crt_strtox@@YA_KQEB_WQEAPEA_WHQEAU__crt_locale_pointers@@@Z 0000000140050094 f i libucrt:strtox.obj
 0001:0004f0d0       _strtoi64                  00000001400500d0 f   libucrt:strtox.obj
 0001:0004f104       _strtoi64_l                0000000140050104 f   libucrt:strtox.obj
 0001:0004f140       _strtoimax_l               0000000140050140 f   libucrt:strtox.obj
 0001:0004f17c       _strtol_l                  000000014005017c f   libucrt:strtox.obj
 0001:0004f1b8       _strtoll_l                 00000001400501b8 f   libucrt:strtox.obj
 0001:0004f1f4       _strtoui64                 00000001400501f4 f   libucrt:strtox.obj
 0001:0004f228       _strtoui64_l               0000000140050228 f   libucrt:strtox.obj
 0001:0004f264       _strtoul_l                 0000000140050264 f   libucrt:strtox.obj
 0001:0004f2a0       _strtoull_l                00000001400502a0 f   libucrt:strtox.obj
 0001:0004f2dc       _strtoumax_l               00000001400502dc f   libucrt:strtox.obj
 0001:0004f318       _wcstoi64                  0000000140050318 f   libucrt:strtox.obj
 0001:0004f34c       _wcstoi64_l                000000014005034c f   libucrt:strtox.obj
 0001:0004f388       _wcstoimax_l               0000000140050388 f   libucrt:strtox.obj
 0001:0004f3c4       _wcstol_l                  00000001400503c4 f   libucrt:strtox.obj
 0001:0004f400       _wcstoll_l                 0000000140050400 f   libucrt:strtox.obj
 0001:0004f43c       _wcstoui64                 000000014005043c f   libucrt:strtox.obj
 0001:0004f470       _wcstoui64_l               0000000140050470 f   libucrt:strtox.obj
 0001:0004f4ac       _wcstoul_l                 00000001400504ac f   libucrt:strtox.obj
 0001:0004f4e8       _wcstoull_l                00000001400504e8 f   libucrt:strtox.obj
 0001:0004f524       _wcstoumax_l               0000000140050524 f   libucrt:strtox.obj
 0001:0004f560       strtoimax                  0000000140050560 f   libucrt:strtox.obj
 0001:0004f594       strtol                     0000000140050594 f   libucrt:strtox.obj
 0001:0004f5c8       strtoll                    00000001400505c8 f   libucrt:strtox.obj
 0001:0004f5fc       strtoul                    00000001400505fc f   libucrt:strtox.obj
 0001:0004f630       strtoull                   0000000140050630 f   libucrt:strtox.obj
 0001:0004f664       strtoumax                  0000000140050664 f   libucrt:strtox.obj
 0001:0004f698       wcstoimax                  0000000140050698 f   libucrt:strtox.obj
 0001:0004f6cc       wcstol                     00000001400506cc f   libucrt:strtox.obj
 0001:0004f700       wcstoll                    0000000140050700 f   libucrt:strtox.obj
 0001:0004f734       wcstoul                    0000000140050734 f   libucrt:strtox.obj
 0001:0004f768       wcstoull                   0000000140050768 f   libucrt:strtox.obj
 0001:0004f79c       wcstoumax                  000000014005079c f   libucrt:strtox.obj
 0001:0004f7d0       _mbtowc_l                  00000001400507d0 f   libucrt:mbtowc.obj
 0001:0004f9b0       mbtowc                     00000001400509b0 f   libucrt:mbtowc.obj
 0001:0004f9bc       _wctomb_l                  00000001400509bc f   libucrt:wctomb.obj
 0001:0004fa4c       _wctomb_s_l                0000000140050a4c f   libucrt:wctomb.obj
 0001:0004fc50       wctomb                     0000000140050c50 f   libucrt:wctomb.obj
 0001:0004fcb0       wctomb_s                   0000000140050cb0 f   libucrt:wctomb.obj
 0001:00050798       ??1?$__crt_simd_cleanup_guard@$00@@QEAA@XZ 0000000140051798 f i libucrt:strnlen.obj
 0001:0005079c       ??1?$__crt_simd_cleanup_guard@$0A@@@QEAA@XZ 000000014005179c f i libucrt:strnlen.obj
 0001:000507a0       ?compare_equals@?$__crt_simd_traits@$00E@@SA?AT__m256i@@T2@0@Z 00000001400517a0 f i libucrt:strnlen.obj
 0001:000507ac       ?compare_equals@?$__crt_simd_traits@$00G@@SA?AT__m256i@@T2@0@Z 00000001400517ac f i libucrt:strnlen.obj
 0001:000507b8       ?compare_equals@?$__crt_simd_traits@$0A@E@@SA?AT__m128i@@T2@0@Z 00000001400517b8 f i libucrt:strnlen.obj
 0001:000507c4       ?compare_equals@?$__crt_simd_traits@$0A@G@@SA?AT__m128i@@T2@0@Z 00000001400517c4 f i libucrt:strnlen.obj
 0001:000507d0       ?compute_byte_mask@?$__crt_simd_pack_traits@$00@@SAHT__m256i@@@Z 00000001400517d0 f i libucrt:strnlen.obj
 0001:000507e0       ?compute_byte_mask@?$__crt_simd_pack_traits@$0A@@@SAHT__m128i@@@Z 00000001400517e0 f i libucrt:strnlen.obj
 0001:000507ec       ?get_zero_pack@?$__crt_simd_pack_traits@$00@@SA?AT__m256i@@XZ 00000001400517ec f i libucrt:strnlen.obj
 0001:000507f4       ?get_zero_pack@?$__crt_simd_pack_traits@$0A@@@SA?AT__m128i@@XZ 00000001400517f4 f i libucrt:strnlen.obj
 0001:000507f8       strnlen                    00000001400517f8 f   libucrt:strnlen.obj
 0001:0005099c       wcslen                     000000014005199c f   libucrt:strnlen.obj
 0001:00050b10       wcsnlen                    0000000140051b10 f   libucrt:strnlen.obj
 0001:00050d5c       ??$?RU__acrt_ptd@@@__crt_internal_free_policy@@QEBAXQEBU__acrt_ptd@@@Z 0000000140051d5c f i libucrt:per_thread_data.obj
 0001:0005101c       ??0?$__crt_unique_heap_ptr@U__acrt_ptd@@U__crt_internal_free_policy@@@@QEAA@QEAU__acrt_ptd@@@Z 000000014005201c f i libucrt:per_thread_data.obj
 0001:00051024       ??0__crt_scoped_get_last_error_reset@@QEAA@XZ 0000000140052024 f i libucrt:per_thread_data.obj
 0001:00051044       ??1?$__crt_unique_heap_ptr@U__acrt_ptd@@U__crt_internal_free_policy@@@@QEAA@XZ 0000000140052044 f i libucrt:per_thread_data.obj
 0001:00051068       ??1__crt_scoped_get_last_error_reset@@QEAA@XZ 0000000140052068 f i libucrt:per_thread_data.obj
 0001:00051074       ??B?$__crt_unique_heap_ptr@U__acrt_ptd@@U__crt_internal_free_policy@@@@QEBA_NXZ 0000000140052074 f i libucrt:per_thread_data.obj
 0001:00051344       ?dangerous_get_state_array@?$dual_state_global@PEAU__crt_locale_data@@@__crt_state_management@@QEAAPEAPEAU__crt_locale_data@@XZ 0000000140052344 f i libucrt:per_thread_data.obj
 0001:000515d8       ?detach@?$__crt_unique_heap_ptr@U__acrt_ptd@@U__crt_internal_free_policy@@@@QEAAPEAU__acrt_ptd@@XZ 00000001400525d8 f i libucrt:per_thread_data.obj
 0001:000515e4       ?get@?$__crt_unique_heap_ptr@U__acrt_ptd@@U__crt_internal_free_policy@@@@QEBAPEAU__acrt_ptd@@XZ 00000001400525e4 f i libucrt:per_thread_data.obj
 0001:000515e8       ?get_current_state_index@__crt_state_management@@YA_KAEBV__crt_scoped_get_last_error_reset@@@Z 00000001400525e8 f i libucrt:per_thread_data.obj
 0001:000517b0       ?is_valid@?$__crt_unique_heap_ptr@U__acrt_ptd@@U__crt_internal_free_policy@@@@QEBA_NXZ 00000001400527b0 f i libucrt:per_thread_data.obj
 0001:000517bc       ?release@?$__crt_unique_heap_ptr@U__acrt_ptd@@U__crt_internal_free_policy@@@@QEAAXXZ 00000001400527bc f i libucrt:per_thread_data.obj
 0001:00051888       __acrt_freeptd             0000000140052888 f   libucrt:per_thread_data.obj
 0001:000518dc       __acrt_getptd              00000001400528dc f   libucrt:per_thread_data.obj
 0001:000519e8       __acrt_getptd_head         00000001400529e8 f   libucrt:per_thread_data.obj
 0001:00051ab8       __acrt_getptd_noexit       0000000140052ab8 f   libucrt:per_thread_data.obj
 0001:00051bb8       __acrt_initialize_ptd      0000000140052bb8 f   libucrt:per_thread_data.obj
 0001:00051c00       __acrt_uninitialize_ptd    0000000140052c00 f   libucrt:per_thread_data.obj
 0001:00051c2c       __threadhandle             0000000140052c2c f   libucrt:per_thread_data.obj
 0001:00051c34       __threadid                 0000000140052c34 f   libucrt:per_thread_data.obj
 0001:00051c3c       ?value@?$dual_state_global@PEAU__crt_multibyte_data@@@__crt_state_management@@QEAAAEAPEAU__crt_multibyte_data@@XZ 0000000140052c3c f i libucrt:locale_update.obj
 0001:00051c40       __acrt_should_sync_with_global_locale 0000000140052c40 f i libucrt:locale_update.obj
 0001:00051c54       __acrt_update_locale_info  0000000140052c54 f   libucrt:locale_update.obj
 0001:00051c94       __acrt_update_multibyte_info 0000000140052c94 f   libucrt:locale_update.obj
 0001:00051cd4       ?__acrt_fp_classify@@YA?AW4__acrt_fp_class@@AEBN@Z 0000000140052cd4 f i libucrt:cvt.obj
 0001:00051d48       ?__acrt_fp_is_negative@@YA_NAEBN@Z 0000000140052d48 f i libucrt:cvt.obj
 0001:00052c64       ?strrchr@@YAPEADQEADH@Z    0000000140053c64 f i libucrt:cvt.obj
 0001:00052c6c       __acrt_fp_format           0000000140053c6c f   libucrt:cvt.obj
 0001:00053094       _fputwc_nolock             0000000140054094 f   libucrt:fputwc.obj
 0001:00053270       _fputwchar                 0000000140054270 f   libucrt:fputwc.obj
 0001:0005329c       _putwc_nolock              000000014005429c f   libucrt:fputwc.obj
 0001:000532a4       fputwc                     00000001400542a4 f   libucrt:fputwc.obj
 0001:0005331c       putwc                      000000014005431c f   libucrt:fputwc.obj
 0001:00053324       putwchar                   0000000140054324 f   libucrt:fputwc.obj
 0001:0005332c       ?lowio_handle@__crt_stdio_stream@@QEBAHXZ 000000014005432c f i libucrt:fileno.obj
 0001:00053334       _fileno                    0000000140054334 f   libucrt:fileno.obj
 0001:00053364       ??$?RPEAU__crt_stdio_stream_data@@@__crt_internal_free_policy@@QEBAXQEBQEAU__crt_stdio_stream_data@@@Z 0000000140054364 f i libucrt:_file.obj
 0001:00053370       ??0?$__crt_unique_heap_ptr@PEAU__crt_stdio_stream_data@@U__crt_internal_free_policy@@@@QEAA@QEAPEAU__crt_stdio_stream_data@@@Z 0000000140054370 f i libucrt:_file.obj
 0001:00053378       ??1?$__crt_unique_heap_ptr@PEAU__crt_stdio_stream_data@@U__crt_internal_free_policy@@@@QEAA@XZ 0000000140054378 f i libucrt:_file.obj
 0001:0005339c       ?detach@?$__crt_unique_heap_ptr@PEAU__crt_stdio_stream_data@@U__crt_internal_free_policy@@@@QEAAPEAPEAU__crt_stdio_stream_data@@XZ 000000014005439c f i libucrt:_file.obj
 0001:000533a8       ?release@?$__crt_unique_heap_ptr@PEAU__crt_stdio_stream_data@@U__crt_internal_free_policy@@@@QEAAXXZ 00000001400543a8 f i libucrt:_file.obj
 0001:000533cc       __acrt_initialize_stdio    00000001400543cc f   libucrt:_file.obj
 0001:00053534       __acrt_iob_func            0000000140054534 f   libucrt:_file.obj
 0001:0005354c       __acrt_uninitialize_stdio  000000014005454c f   libucrt:_file.obj
 0001:000535c0       _get_stream_buffer_pointers 00000001400545c0 f   libucrt:_file.obj
 0001:00053618       _lock_file                 0000000140054618 f   libucrt:_file.obj
 0001:00053628       _unlock_file               0000000140054628 f   libucrt:_file.obj
 0001:00053638       _fputc_nolock              0000000140054638 f   libucrt:fputc.obj
 0001:00053654       _fputchar                  0000000140054654 f   libucrt:fputc.obj
 0001:00053680       _putc_nolock               0000000140054680 f   libucrt:fputc.obj
 0001:0005369c       fputc                      000000014005469c f   libucrt:fputc.obj
 0001:0005380c       putc                       000000014005480c f   libucrt:fputc.obj
 0001:00053814       putchar                    0000000140054814 f   libucrt:fputc.obj
 0001:0005381c       _get_printf_count_output   000000014005481c f   libucrt:printf_count_output.obj
 0001:0005383c       _set_printf_count_output   000000014005483c f   libucrt:printf_count_output.obj
 0001:0005386c       ?has_any_buffer@__crt_stdio_stream@@QEBA_NXZ 000000014005486c f i libucrt:_sftbuf.obj
 0001:00053880       ?has_any_of@__crt_stdio_stream@@QEBA_NJ@Z 0000000140054880 f i libucrt:_sftbuf.obj
 0001:00053890       ?has_temporary_buffer@__crt_stdio_stream@@QEBA_NXZ 0000000140054890 f i libucrt:_sftbuf.obj
 0001:000538a0       ?set_flags@__crt_stdio_stream@@QEBA_NJ@Z 00000001400548a0 f i libucrt:_sftbuf.obj
 0001:000538c8       ?unset_flags@__crt_stdio_stream@@QEBA_NJ@Z 00000001400548c8 f i libucrt:_sftbuf.obj
 0001:000538f8       __acrt_should_use_temporary_buffer 00000001400548f8 f   libucrt:_sftbuf.obj
 0001:00053950       __acrt_stdio_begin_temporary_buffering_nolock 0000000140054950 f   libucrt:_sftbuf.obj
 0001:00053a4c       __acrt_stdio_end_temporary_buffering_nolock 0000000140054a4c f   libucrt:_sftbuf.obj
 0001:00053a94       __p___mb_cur_max           0000000140054a94 f   libucrt:nlsdata.obj
 0001:00053d6c       __acrt_initialize_lowio    0000000140054d6c f   libucrt:ioinit.obj
 0001:00053db8       __acrt_uninitialize_lowio  0000000140054db8 f   libucrt:ioinit.obj
 0001:00053f70       _handle_error              0000000140054f70 f   libucrt:libm_error.obj
 0001:000540e0       _handle_errorf             00000001400550e0 f   libucrt:libm_error.obj
 0001:00054260       _handle_nan                0000000140055260 f   libucrt:libm_error.obj
 0001:00054280       _handle_nanf               0000000140055280 f   libucrt:libm_error.obj
 0001:00054294       _set_error_mode            0000000140055294 f   libucrt:set_error_mode.obj
 0001:0005438c       wcscat_s                   000000014005538c f   libucrt:wcscat_s.obj
 0001:000544b4       wcscpy_s                   00000001400554b4 f   libucrt:wcscpy_s.obj
 0001:00054648       wcsncpy_s                  0000000140055648 f   libucrt:wcsncpy_s.obj
 0001:00054904       ??$message_box@$$TAEBQEBDAEBQEBDK@?$__crt_char_traits@D@@SAH$$QEA$$TAEBQEBD1$$QEAK@Z 0000000140055904 f i libucrt:crtmbox.obj
 0001:0005491c       ??$message_box@$$TAEBQEB_WAEBQEB_WK@?$__crt_char_traits@_W@@SAH$$QEA$$TAEBQEB_W1$$QEAK@Z 000000014005591c f i libucrt:crtmbox.obj
 0001:00054934       ??$message_box@PEAUHWND__@@AEBQEBDAEBQEBDAEBI@?$__crt_char_traits@D@@SAH$$QEAPEAUHWND__@@AEBQEBD1AEBI@Z 0000000140055934 f i libucrt:crtmbox.obj
 0001:0005494c       ??$message_box@PEAUHWND__@@AEBQEB_WAEBQEB_WAEBI@?$__crt_char_traits@_W@@SAH$$QEAPEAUHWND__@@AEBQEB_W1AEBI@Z 000000014005594c f i libucrt:crtmbox.obj
 0001:00054964       ??$output_debug_string@AEBQEBD@?$__crt_char_traits@D@@SAXAEBQEBD@Z 0000000140055964 f i libucrt:crtmbox.obj
 0001:00054970       ??$output_debug_string@AEBQEB_W@?$__crt_char_traits@_W@@SAXAEBQEB_W@Z 0000000140055970 f i libucrt:crtmbox.obj
 0001:0005497c       __acrt_show_narrow_message_box 000000014005597c f   libucrt:crtmbox.obj
 0001:00054a48       __acrt_show_wide_message_box 0000000140055a48 f   libucrt:crtmbox.obj
 0001:00054b18       _calloc_base               0000000140055b18 f   libucrt:calloc_base.obj
 0001:00054fa4       ??$__acrt_mbs_to_wcs_cp@U__crt_win32_buffer_internal_dynamic_resizing@@@@YAHQEBDAEAV?$__crt_win32_buffer@_WU__crt_win32_buffer_internal_dynamic_resizing@@@@I@Z 0000000140055fa4 f i libucrt:argv_wildcards.obj
 0001:00055178       ??$__acrt_wcs_to_mbs_cp@U__crt_win32_buffer_internal_dynamic_resizing@@@@YAHQEB_WAEAV?$__crt_win32_buffer@DU__crt_win32_buffer_internal_dynamic_resizing@@@@I@Z 0000000140056178 f i libucrt:argv_wildcards.obj
 0001:00056458       ??$tcslen@AEBQEBD@?$__crt_char_traits@D@@SA_KAEBQEBD@Z 0000000140057458 f i libucrt:argv_wildcards.obj
 0001:00056470       ??$tcslen@AEBQEB_W@?$__crt_char_traits@_W@@SA_KAEBQEB_W@Z 0000000140057470 f i libucrt:argv_wildcards.obj
 0001:00056488       ??$tcsncpy_s@AEAPEAD_KAEAPEADAEB_K@?$__crt_char_traits@D@@SAHAEAPEAD$$QEA_K0AEB_K@Z 0000000140057488 f i libucrt:argv_wildcards.obj
 0001:000564a0       ??$tcsncpy_s@AEAPEA_W_KAEAPEA_WAEB_K@?$__crt_char_traits@_W@@SAHAEAPEA_W$$QEA_K0AEB_K@Z 00000001400574a0 f i libucrt:argv_wildcards.obj
 0001:000564b8       ??$tcsncpy_s@PEADAEB_KAEBQEBDAEB_K@?$__crt_char_traits@D@@SAH$$QEAPEADAEB_KAEBQEBD1@Z 00000001400574b8 f i libucrt:argv_wildcards.obj
 0001:000564d0       ??$tcsncpy_s@PEAD_KAEBQEBDAEB_K@?$__crt_char_traits@D@@SAH$$QEAPEAD$$QEA_KAEBQEBDAEB_K@Z 00000001400574d0 f i libucrt:argv_wildcards.obj
 0001:000564e8       ??$tcsncpy_s@PEA_WAEB_KAEBQEB_WAEB_K@?$__crt_char_traits@_W@@SAH$$QEAPEA_WAEB_KAEBQEB_W1@Z 00000001400574e8 f i libucrt:argv_wildcards.obj
 0001:00056500       ??$tcsncpy_s@PEA_W_KAEBQEB_WAEB_K@?$__crt_char_traits@_W@@SAH$$QEAPEA_W$$QEA_KAEBQEB_WAEB_K@Z 0000000140057500 f i libucrt:argv_wildcards.obj
 0001:00056518       ??$tcspbrk@AEAPEADAEAY02$$CBD@?$__crt_char_traits@D@@SAPEADAEAPEADAEAY02$$CBD@Z 0000000140057518 f i libucrt:argv_wildcards.obj
 0001:00056524       ??$tcspbrk@AEAPEA_WAEAY02$$CB_W@?$__crt_char_traits@_W@@SAPEA_WAEAPEA_WAEAY02$$CB_W@Z 0000000140057524 f i libucrt:argv_wildcards.obj
 0001:00056530       ??0?$__crt_unique_handle_t@U__crt_findfile_traits@@@@QEAA@QEAX@Z 0000000140057530 f i libucrt:argv_wildcards.obj
 0001:00056538       ??0?$__crt_win32_buffer@DU__crt_win32_buffer_internal_dynamic_resizing@@@@QEAA@XZ 0000000140057538 f i libucrt:argv_wildcards.obj
 0001:0005655c       ??0?$__crt_win32_buffer@_WU__crt_win32_buffer_internal_dynamic_resizing@@@@QEAA@XZ 000000014005755c f i libucrt:argv_wildcards.obj
 0001:000565b0       ??1?$__crt_unique_handle_t@U__crt_findfile_traits@@@@QEAA@XZ 00000001400575b0 f i libucrt:argv_wildcards.obj
 0001:000565dc       ??1?$__crt_win32_buffer@DU__crt_win32_buffer_internal_dynamic_resizing@@@@QEAA@XZ 00000001400575dc f i libucrt:argv_wildcards.obj
 0001:00056608       ??1?$__crt_win32_buffer@_WU__crt_win32_buffer_internal_dynamic_resizing@@@@QEAA@XZ 0000000140057608 f i libucrt:argv_wildcards.obj
 0001:000567d0       ?__acrt_get_utf8_acp_compatibility_codepage@@YAIXZ 00000001400577d0 f i libucrt:argv_wildcards.obj
 0001:0005682c       ?_deallocate@?$__crt_win32_buffer@DU__crt_win32_buffer_internal_dynamic_resizing@@@@AEAAXXZ 000000014005782c f i libucrt:argv_wildcards.obj
 0001:00056858       ?_deallocate@?$__crt_win32_buffer@_WU__crt_win32_buffer_internal_dynamic_resizing@@@@AEAAXXZ 0000000140057858 f i libucrt:argv_wildcards.obj
 0001:00056884       ?allocate@?$__crt_win32_buffer@DU__crt_win32_buffer_internal_dynamic_resizing@@@@QEAAH_K@Z 0000000140057884 f i libucrt:argv_wildcards.obj
 0001:000568f8       ?allocate@?$__crt_win32_buffer@_WU__crt_win32_buffer_internal_dynamic_resizing@@@@QEAAH_K@Z 00000001400578f8 f i libucrt:argv_wildcards.obj
 0001:0005696c       ?allocate@__crt_win32_buffer_internal_dynamic_resizing@@SAHQEAPEAX_KAEBV__crt_win32_buffer_empty_debug_info@@@Z 000000014005796c f i libucrt:argv_wildcards.obj
 0001:00056bd4       ?capacity@?$__crt_win32_buffer@DU__crt_win32_buffer_internal_dynamic_resizing@@@@QEBA_KXZ 0000000140057bd4 f i libucrt:argv_wildcards.obj
 0001:00056bdc       ?capacity@?$__crt_win32_buffer@_WU__crt_win32_buffer_internal_dynamic_resizing@@@@QEBA_KXZ 0000000140057bdc f i libucrt:argv_wildcards.obj
 0001:00056be4       ?close@?$__crt_unique_handle_t@U__crt_findfile_traits@@@@QEAAXXZ 0000000140057be4 f i libucrt:argv_wildcards.obj
 0001:00056c10       ?close@__crt_findfile_traits@@SA_NPEAX@Z 0000000140057c10 f i libucrt:argv_wildcards.obj
 0001:00056c2c       ?data@?$__crt_win32_buffer@DU__crt_win32_buffer_internal_dynamic_resizing@@@@QEAAPEADXZ 0000000140057c2c f i libucrt:argv_wildcards.obj
 0001:00056c34       ?data@?$__crt_win32_buffer@_WU__crt_win32_buffer_internal_dynamic_resizing@@@@QEAAPEA_WXZ 0000000140057c34 f i libucrt:argv_wildcards.obj
 0001:00056c3c       ?deallocate@__crt_win32_buffer_internal_dynamic_resizing@@SAXQEAXAEBV__crt_win32_buffer_empty_debug_info@@@Z 0000000140057c3c f i libucrt:argv_wildcards.obj
 0001:00056c44       ?debug_info@?$__crt_win32_buffer@DU__crt_win32_buffer_internal_dynamic_resizing@@@@QEBAAEBV__crt_win32_buffer_empty_debug_info@@XZ 0000000140057c44 f i libucrt:argv_wildcards.obj
 0001:00056c48       ?debug_info@?$__crt_win32_buffer@_WU__crt_win32_buffer_internal_dynamic_resizing@@@@QEBAAEBV__crt_win32_buffer_empty_debug_info@@XZ 0000000140057c48 f i libucrt:argv_wildcards.obj
 0001:00056e4c       ?get@?$__crt_unique_handle_t@U__crt_findfile_traits@@@@QEBAPEAXXZ 0000000140057e4c f i libucrt:argv_wildcards.obj
 0001:00056f18       ?get_invalid_value@__crt_findfile_traits@@SAPEAXXZ 0000000140057f18 f i libucrt:argv_wildcards.obj
 0001:00056ff8       ?set_to_nullptr@?$__crt_win32_buffer@DU__crt_win32_buffer_internal_dynamic_resizing@@@@QEAAXXZ 0000000140057ff8 f i libucrt:argv_wildcards.obj
 0001:00057038       ?set_to_nullptr@?$__crt_win32_buffer@_WU__crt_win32_buffer_internal_dynamic_resizing@@@@QEAAXXZ 0000000140058038 f i libucrt:argv_wildcards.obj
 0001:00057078       ?size@?$__crt_win32_buffer@DU__crt_win32_buffer_internal_dynamic_resizing@@@@QEAAX_K@Z 0000000140058078 f i libucrt:argv_wildcards.obj
 0001:00057080       ?size@?$__crt_win32_buffer@_WU__crt_win32_buffer_internal_dynamic_resizing@@@@QEAAX_K@Z 0000000140058080 f i libucrt:argv_wildcards.obj
 0001:000570a8       ?strpbrk@@YAPEADQEADQEBD@Z 00000001400580a8 f i libucrt:argv_wildcards.obj
 0001:000570b0       ?wcspbrk@@YAPEA_WPEA_WPEB_W@Z 00000001400580b0 f i libucrt:argv_wildcards.obj
 0001:000570b8       __acrt_expand_narrow_argv_wildcards 00000001400580b8 f   libucrt:argv_wildcards.obj
 0001:000570c0       __acrt_expand_wide_argv_wildcards 00000001400580c0 f   libucrt:argv_wildcards.obj
 0001:00057228       ??$__acrt_wcs_to_mbs_cp@U__crt_win32_buffer_no_resizing@@@@YAHQEB_WAEAV?$__crt_win32_buffer@DU__crt_win32_buffer_no_resizing@@@@I@Z 0000000140058228 f i libucrt:getmodulefilenamea.obj
 0001:00057380       ??0?$__crt_win32_buffer@DU__crt_win32_buffer_no_resizing@@@@QEAA@QEAD_K@Z 0000000140058380 f i libucrt:getmodulefilenamea.obj
 0001:000573a4       ??1?$__crt_win32_buffer@DU__crt_win32_buffer_no_resizing@@@@QEAA@XZ 00000001400583a4 f i libucrt:getmodulefilenamea.obj
 0001:000573f0       ?_deallocate@?$__crt_win32_buffer@DU__crt_win32_buffer_no_resizing@@@@AEAAXXZ 00000001400583f0 f i libucrt:getmodulefilenamea.obj
 0001:00057400       ?allocate@?$__crt_win32_buffer@DU__crt_win32_buffer_no_resizing@@@@QEAAH_K@Z 0000000140058400 f i libucrt:getmodulefilenamea.obj
 0001:0005743c       ?allocate@__crt_win32_buffer_no_resizing@@SAHQEAPEAX_KAEBV__crt_win32_buffer_empty_debug_info@@@Z 000000014005843c f i libucrt:getmodulefilenamea.obj
 0001:00057458       ?capacity@?$__crt_win32_buffer@DU__crt_win32_buffer_no_resizing@@@@QEBA_KXZ 0000000140058458 f i libucrt:getmodulefilenamea.obj
 0001:00057460       ?data@?$__crt_win32_buffer@DU__crt_win32_buffer_no_resizing@@@@QEAAPEADXZ 0000000140058460 f i libucrt:getmodulefilenamea.obj
 0001:00057468       ?deallocate@__crt_win32_buffer_no_resizing@@SAXQEAXAEBV__crt_win32_buffer_empty_debug_info@@@Z 0000000140058468 f i libucrt:getmodulefilenamea.obj
 0001:0005746c       ?debug_info@?$__crt_win32_buffer@DU__crt_win32_buffer_no_resizing@@@@QEBAAEBV__crt_win32_buffer_empty_debug_info@@XZ 000000014005846c f i libucrt:getmodulefilenamea.obj
 0001:00057470       ?set_to_nullptr@?$__crt_win32_buffer@DU__crt_win32_buffer_no_resizing@@@@QEAAXXZ 0000000140058470 f i libucrt:getmodulefilenamea.obj
 0001:0005748c       ?size@?$__crt_win32_buffer@DU__crt_win32_buffer_no_resizing@@@@QEAAX_K@Z 000000014005848c f i libucrt:getmodulefilenamea.obj
 0001:00057494       ?size@?$__crt_win32_buffer@DU__crt_win32_buffer_no_resizing@@@@QEBA_KXZ 0000000140058494 f i libucrt:getmodulefilenamea.obj
 0001:0005749c       __acrt_GetModuleFileNameA  000000014005849c f   libucrt:getmodulefilenamea.obj
 0001:0005785c       ??$initialize_from_array@$$BY10BAA@E@?$dual_state_global@PEAE@__crt_state_management@@QEAAXAEAY10BAA@E@Z 000000014005885c f i libucrt:mbctype.obj
 0001:00057860       ??$initialize_from_array@$$BY10BAB@E@?$dual_state_global@PEAE@__crt_state_management@@QEAAXAEAY10BAB@E@Z 0000000140058860 f i libucrt:mbctype.obj
 0001:00057aec       ?dangerous_get_state_array@?$dual_state_global@PEAE@__crt_state_management@@QEAAPEAPEAEXZ 0000000140058aec f i libucrt:mbctype.obj
 0001:00057af0       ?dangerous_get_state_array@?$dual_state_global@PEAU__crt_multibyte_data@@@__crt_state_management@@QEAAPEAPEAU__crt_multibyte_data@@XZ 0000000140058af0 f i libucrt:mbctype.obj
 0001:00057b90       ?initialize@?$dual_state_global@PEAU__crt_multibyte_data@@@__crt_state_management@@QEAAXQEAU__crt_multibyte_data@@@Z 0000000140058b90 f i libucrt:mbctype.obj
 0001:000581e8       ?value@?$dual_state_global@PEAE@__crt_state_management@@QEAAAEAPEAEXZ 00000001400591e8 f i libucrt:mbctype.obj
 0001:000581ec       __acrt_initialize_multibyte 00000001400591ec f   libucrt:mbctype.obj
 0001:00058264       __acrt_update_thread_multibyte_data 0000000140059264 f   libucrt:mbctype.obj
 0001:00058288       __p__mbcasemap             0000000140059288 f   libucrt:mbctype.obj
 0001:00058294       __p__mbctype               0000000140059294 f   libucrt:mbctype.obj
 0001:000582a0       _getmbcp                   00000001400592a0 f   libucrt:mbctype.obj
 0001:000582e8       _setmbcp                   00000001400592e8 f   libucrt:mbctype.obj
 0001:00058318       _setmbcp_nolock            0000000140059318 f   libucrt:mbctype.obj
 0001:000587bc       _ismbbalnum                00000001400597bc f   libucrt:ismbbyte.obj
 0001:000587d8       _ismbbalnum_l              00000001400597d8 f   libucrt:ismbbyte.obj
 0001:000587f8       _ismbbalpha                00000001400597f8 f   libucrt:ismbbyte.obj
 0001:00058814       _ismbbalpha_l              0000000140059814 f   libucrt:ismbbyte.obj
 0001:00058834       _ismbbblank                0000000140059834 f   libucrt:ismbbyte.obj
 0001:00058858       _ismbbblank_l              0000000140059858 f   libucrt:ismbbyte.obj
 0001:00058880       _ismbbgraph                0000000140059880 f   libucrt:ismbbyte.obj
 0001:0005889c       _ismbbgraph_l              000000014005989c f   libucrt:ismbbyte.obj
 0001:000588bc       _ismbbkalnum               00000001400598bc f   libucrt:ismbbyte.obj
 0001:000588d4       _ismbbkalnum_l             00000001400598d4 f   libucrt:ismbbyte.obj
 0001:000588f0       _ismbbkana                 00000001400598f0 f   libucrt:ismbbyte.obj
 0001:000588f8       _ismbbkana_l               00000001400598f8 f   libucrt:ismbbyte.obj
 0001:00058978       _ismbbkprint               0000000140059978 f   libucrt:ismbbyte.obj
 0001:00058990       _ismbbkprint_l             0000000140059990 f   libucrt:ismbbyte.obj
 0001:000589ac       _ismbbkpunct               00000001400599ac f   libucrt:ismbbyte.obj
 0001:000589c4       _ismbbkpunct_l             00000001400599c4 f   libucrt:ismbbyte.obj
 0001:000589e0       _ismbblead                 00000001400599e0 f   libucrt:ismbbyte.obj
 0001:000589f8       _ismbblead_l               00000001400599f8 f   libucrt:ismbbyte.obj
 0001:00058a14       _ismbbprint                0000000140059a14 f   libucrt:ismbbyte.obj
 0001:00058a30       _ismbbprint_l              0000000140059a30 f   libucrt:ismbbyte.obj
 0001:00058a50       _ismbbpunct                0000000140059a50 f   libucrt:ismbbyte.obj
 0001:00058a68       _ismbbpunct_l              0000000140059a68 f   libucrt:ismbbyte.obj
 0001:00058a84       _ismbbtrail                0000000140059a84 f   libucrt:ismbbyte.obj
 0001:00058a9c       _ismbbtrail_l              0000000140059a9c f   libucrt:ismbbyte.obj
 0001:00058b24       __acrt_MultiByteToWideChar 0000000140059b24 f   libucrt:multibytetowidechar.obj
 0001:00058bec       __acrt_WideCharToMultiByte 0000000140059bec f   libucrt:widechartomultibyte.obj
 0001:00058d88       __dcrt_get_narrow_environment_from_os 0000000140059d88 f   libucrt:get_environment_from_os.obj
 0001:00058ecc       __dcrt_get_wide_environment_from_os 0000000140059ecc f   libucrt:get_environment_from_os.obj
 0001:00059b70       ??$get_or_create_environment_nolock@$$V@?$__crt_char_traits@D@@SAPEAPEADXZ 000000014005ab70 f i libucrt:setenv.obj
 0001:00059b78       ??$get_or_create_environment_nolock@$$V@?$__crt_char_traits@_W@@SAPEAPEA_WXZ 000000014005ab78 f i libucrt:setenv.obj
 0001:00059b80       ??$set_environment_variable@AEBQEADQEAD@?$__crt_char_traits@D@@SAHAEBQEAD$$QEBQEAD@Z 000000014005ab80 f i libucrt:setenv.obj
 0001:00059b90       ??$set_environment_variable@AEBQEA_WQEA_W@?$__crt_char_traits@_W@@SAHAEBQEA_W$$QEBQEA_W@Z 000000014005ab90 f i libucrt:setenv.obj
 0001:00059ba0       ??$tcschr@AEBQEADD@?$__crt_char_traits@D@@SAPEADAEBQEAD$$QEAD@Z 000000014005aba0 f i libucrt:setenv.obj
 0001:00059bb0       ??$tcschr@AEBQEA_WD@?$__crt_char_traits@_W@@SAPEA_WAEBQEA_W$$QEAD@Z 000000014005abb0 f i libucrt:setenv.obj
 0001:00059bc0       ??$tcscpy_s@AEAPEADAEB_KAEAPEAD@?$__crt_char_traits@D@@SAHAEAPEADAEB_K0@Z 000000014005abc0 f i libucrt:setenv.obj
 0001:00059bd4       ??$tcscpy_s@AEAPEA_WAEB_KAEAPEA_W@?$__crt_char_traits@_W@@SAHAEAPEA_WAEB_K0@Z 000000014005abd4 f i libucrt:setenv.obj
 0001:00059be8       ??$tcscpy_s@AEBQEADAEB_KAEBQEAD@?$__crt_char_traits@D@@SAHAEBQEADAEB_K0@Z 000000014005abe8 f i libucrt:setenv.obj
 0001:00059bfc       ??$tcscpy_s@AEBQEA_WAEB_KAEBQEA_W@?$__crt_char_traits@_W@@SAHAEBQEA_WAEB_K0@Z 000000014005abfc f i libucrt:setenv.obj
 0001:00059c10       ??$tcslen@AEBQEAD@?$__crt_char_traits@D@@SA_KAEBQEAD@Z 000000014005ac10 f i libucrt:setenv.obj
 0001:00059c28       ??$tcslen@AEBQEA_W@?$__crt_char_traits@_W@@SA_KAEBQEA_W@Z 000000014005ac28 f i libucrt:setenv.obj
 0001:00059c40       ??$tcsnicoll@AEBQEBDAEAPEADAEB_K@?$__crt_char_traits@D@@SAHAEBQEBDAEAPEADAEB_K@Z 000000014005ac40 f i libucrt:setenv.obj
 0001:00059c54       ??$tcsnicoll@AEBQEB_WAEAPEA_WAEB_K@?$__crt_char_traits@_W@@SAHAEBQEB_WAEAPEA_WAEB_K@Z 000000014005ac54 f i libucrt:setenv.obj
 0001:00059cb0       ?strchr@@YAPEADQEADH@Z     000000014005acb0 f i libucrt:setenv.obj
 0001:00059cb8       ?wcschr@@YAPEA_WPEA_W_W@Z  000000014005acb8 f i libucrt:setenv.obj
 0001:00059cc0       __dcrt_set_variable_in_narrow_environment_nolock 000000014005acc0 f   libucrt:setenv.obj
 0001:00059cc8       __dcrt_set_variable_in_wide_environment_nolock 000000014005acc8 f   libucrt:setenv.obj
 0001:00059cd0       __acrt_initialize_locks    000000014005acd0 f   libucrt:locks.obj
 0001:00059d2c       __acrt_lock                000000014005ad2c f   libucrt:locks.obj
 0001:00059d4c       __acrt_uninitialize_locks  000000014005ad4c f   libucrt:locks.obj
 0001:00059d90       __acrt_unlock              000000014005ad90 f   libucrt:locks.obj
 0001:00059db0       _lock_locales              000000014005adb0 f   libucrt:locks.obj
 0001:00059dd4       _unlock_locales            000000014005add4 f   libucrt:locks.obj
 0001:00059ff0       __acrt_get_begin_thread_init_policy 000000014005aff0 f   libucrt:win_policies.obj
 0001:0005a058       __acrt_get_developer_information_policy 000000014005b058 f   libucrt:win_policies.obj
 0001:0005a0c0       __acrt_get_process_end_policy 000000014005b0c0 f   libucrt:win_policies.obj
 0001:0005a10c       __acrt_get_windowing_model_policy 000000014005b10c f   libucrt:win_policies.obj
 0001:0005a194       ??$?RU__crt_lowio_handle_data@@@__crt_internal_free_policy@@QEBAXQEBU__crt_lowio_handle_data@@@Z 000000014005b194 f i libucrt:osfinfo.obj
 0001:0005a1a0       ??0?$__crt_unique_heap_ptr@U__crt_lowio_handle_data@@U__crt_internal_free_policy@@@@QEAA@QEAU__crt_lowio_handle_data@@@Z 000000014005b1a0 f i libucrt:osfinfo.obj
 0001:0005a1a8       ??1?$__crt_unique_heap_ptr@U__crt_lowio_handle_data@@U__crt_internal_free_policy@@@@QEAA@XZ 000000014005b1a8 f i libucrt:osfinfo.obj
 0001:0005a1cc       ??B?$__crt_unique_heap_ptr@U__crt_lowio_handle_data@@U__crt_internal_free_policy@@@@QEBA_NXZ 000000014005b1cc f i libucrt:osfinfo.obj
 0001:0005a1d8       ?detach@?$__crt_unique_heap_ptr@U__crt_lowio_handle_data@@U__crt_internal_free_policy@@@@QEAAPEAU__crt_lowio_handle_data@@XZ 000000014005b1d8 f i libucrt:osfinfo.obj
 0001:0005a1e4       ?get@?$__crt_unique_heap_ptr@U__crt_lowio_handle_data@@U__crt_internal_free_policy@@@@QEBAPEAU__crt_lowio_handle_data@@XZ 000000014005b1e4 f i libucrt:osfinfo.obj
 0001:0005a1e8       ?is_valid@?$__crt_unique_heap_ptr@U__crt_lowio_handle_data@@U__crt_internal_free_policy@@@@QEBA_NXZ 000000014005b1e8 f i libucrt:osfinfo.obj
 0001:0005a1f4       ?release@?$__crt_unique_heap_ptr@U__crt_lowio_handle_data@@U__crt_internal_free_policy@@@@QEAAXXZ 000000014005b1f4 f i libucrt:osfinfo.obj
 0001:0005a218       __acrt_lowio_create_handle_array 000000014005b218 f   libucrt:osfinfo.obj
 0001:0005a2e8       __acrt_lowio_destroy_handle_array 000000014005b2e8 f   libucrt:osfinfo.obj
 0001:0005a34c       __acrt_lowio_ensure_fh_exists 000000014005b34c f   libucrt:osfinfo.obj
 0001:0005a420       __acrt_lowio_lock_fh       000000014005b420 f   libucrt:osfinfo.obj
 0001:0005a450       __acrt_lowio_set_os_handle 000000014005b450 f   libucrt:osfinfo.obj
 0001:0005a540       __acrt_lowio_unlock_fh     000000014005b540 f   libucrt:osfinfo.obj
 0001:0005a570       _alloc_osfhnd              000000014005b570 f   libucrt:osfinfo.obj
 0001:0005a700       _free_osfhnd               000000014005b700 f   libucrt:osfinfo.obj
 0001:0005a7e8       _get_osfhandle             000000014005b7e8 f   libucrt:osfinfo.obj
 0001:0005a87c       _open_osfhandle            000000014005b87c f   libucrt:osfinfo.obj
 0001:0005a9c0       ?dangerous_get_state_array@?$dual_state_global@H@__crt_state_management@@QEAAPEAHXZ 000000014005b9c0 f i libucrt:txtmode.obj
 0001:0005a9c4       __acrt_initialize_fmode    000000014005b9c4 f   libucrt:txtmode.obj
 0001:0005a9e4       __p__fmode                 000000014005b9e4 f   libucrt:txtmode.obj
 0001:0005a9f0       ??$?RG@__crt_internal_free_policy@@QEBAXQEBG@Z 000000014005b9f0 f i libucrt:initctype.obj
 0001:0005a9fc       ??$?RJ@__crt_internal_free_policy@@QEBAXQEBJ@Z 000000014005b9fc f i libucrt:initctype.obj
 0001:0005aa08       ??0?$__crt_unique_heap_ptr@GU__crt_internal_free_policy@@@@QEAA@QEAG@Z 000000014005ba08 f i libucrt:initctype.obj
 0001:0005aa10       ??0?$__crt_unique_heap_ptr@JU__crt_internal_free_policy@@@@QEAA@QEAJ@Z 000000014005ba10 f i libucrt:initctype.obj
 0001:0005aa18       ??1?$__crt_unique_heap_ptr@GU__crt_internal_free_policy@@@@QEAA@XZ 000000014005ba18 f i libucrt:initctype.obj
 0001:0005aa3c       ??1?$__crt_unique_heap_ptr@JU__crt_internal_free_policy@@@@QEAA@XZ 000000014005ba3c f i libucrt:initctype.obj
 0001:0005aa60       ?detach@?$__crt_unique_heap_ptr@GU__crt_internal_free_policy@@@@QEAAPEAGXZ 000000014005ba60 f i libucrt:initctype.obj
 0001:0005aa6c       ?detach@?$__crt_unique_heap_ptr@JU__crt_internal_free_policy@@@@QEAAPEAJXZ 000000014005ba6c f i libucrt:initctype.obj
 0001:0005aa78       ?release@?$__crt_unique_heap_ptr@GU__crt_internal_free_policy@@@@QEAAXXZ 000000014005ba78 f i libucrt:initctype.obj
 0001:0005aa9c       ?release@?$__crt_unique_heap_ptr@JU__crt_internal_free_policy@@@@QEAAXXZ 000000014005ba9c f i libucrt:initctype.obj
 0001:0005aac0       ___lc_codepage_func        000000014005bac0 f   libucrt:initctype.obj
 0001:0005aafc       ___lc_collate_cp_func      000000014005bafc f   libucrt:initctype.obj
 0001:0005ab38       ___lc_locale_name_func     000000014005bb38 f   libucrt:initctype.obj
 0001:0005ab78       ___mb_cur_max_func         000000014005bb78 f   libucrt:initctype.obj
 0001:0005abb4       ___mb_cur_max_l_func       000000014005bbb4 f   libucrt:initctype.obj
 0001:0005abc8       __acrt_locale_initialize_ctype 000000014005bbc8 f   libucrt:initctype.obj
 0001:0005b3c4       ??$?RUlconv@@@__crt_internal_free_policy@@QEBAXQEBUlconv@@@Z 000000014005c3c4 f i libucrt:initmon.obj
 0001:0005b3d0       ??0?$__crt_unique_heap_ptr@Ulconv@@U__crt_internal_free_policy@@@@QEAA@QEAUlconv@@@Z 000000014005c3d0 f i libucrt:initmon.obj
 0001:0005b3d8       ??1?$__crt_unique_heap_ptr@Ulconv@@U__crt_internal_free_policy@@@@QEAA@XZ 000000014005c3d8 f i libucrt:initmon.obj
 0001:0005b3fc       ?detach@?$__crt_unique_heap_ptr@Ulconv@@U__crt_internal_free_policy@@@@QEAAPEAUlconv@@XZ 000000014005c3fc f i libucrt:initmon.obj
 0001:0005b408       ?release@?$__crt_unique_heap_ptr@Ulconv@@U__crt_internal_free_policy@@@@QEAAXXZ 000000014005c408 f i libucrt:initmon.obj
 0001:0005b42c       __acrt_locale_free_monetary 000000014005c42c f   libucrt:initmon.obj
 0001:0005b578       __acrt_locale_initialize_monetary 000000014005c578 f   libucrt:initmon.obj
 0001:0005bc38       __acrt_locale_free_numeric 000000014005cc38 f   libucrt:initnum.obj
 0001:0005bcc0       __acrt_locale_initialize_numeric 000000014005ccc0 f   libucrt:initnum.obj
 0001:0005c0a0       ??$?RU__crt_lc_time_data@@@__crt_internal_free_policy@@QEBAXQEBU__crt_lc_time_data@@@Z 000000014005d0a0 f i libucrt:inittime.obj
 0001:0005c0f4       ??0?$__crt_unique_heap_ptr@U__crt_lc_time_data@@U__crt_internal_free_policy@@@@QEAA@QEAU__crt_lc_time_data@@@Z 000000014005d0f4 f i libucrt:inittime.obj
 0001:0005c0fc       ??1?$__crt_unique_heap_ptr@U__crt_lc_time_data@@U__crt_internal_free_policy@@@@QEAA@XZ 000000014005d0fc f i libucrt:inittime.obj
 0001:0005c120       ??B?$__crt_unique_heap_ptr@U__crt_lc_time_data@@U__crt_internal_free_policy@@@@QEBA_NXZ 000000014005d120 f i libucrt:inittime.obj
 0001:0005c12c       ?detach@?$__crt_unique_heap_ptr@U__crt_lc_time_data@@U__crt_internal_free_policy@@@@QEAAPEAU__crt_lc_time_data@@XZ 000000014005d12c f i libucrt:inittime.obj
 0001:0005c1a8       ?get@?$__crt_unique_heap_ptr@U__crt_lc_time_data@@U__crt_internal_free_policy@@@@QEBAPEAU__crt_lc_time_data@@XZ 000000014005d1a8 f i libucrt:inittime.obj
 0001:0005c650       ?is_valid@?$__crt_unique_heap_ptr@U__crt_lc_time_data@@U__crt_internal_free_policy@@@@QEBA_NXZ 000000014005d650 f i libucrt:inittime.obj
 0001:0005c65c       ?release@?$__crt_unique_heap_ptr@U__crt_lc_time_data@@U__crt_internal_free_policy@@@@QEAAXXZ 000000014005d65c f i libucrt:inittime.obj
 0001:0005c680       __acrt_locale_free_time    000000014005d680 f   libucrt:inittime.obj
 0001:0005c7cc       __acrt_locale_initialize_time 000000014005d7cc f   libucrt:inittime.obj
 0001:0005c890       __pctype_func              000000014005d890 f   libucrt:ctype.obj
 0001:0005c8cc       __pwctype_func             000000014005d8cc f   libucrt:ctype.obj
 0001:0005ca0c       wcsncat_s                  000000014005da0c f   libucrt:wcsncat_s.obj
 0001:0005cb48       wcscspn                    000000014005db48 f   libucrt:wcscspn.obj
 0001:0005cb98       wcspbrk                    000000014005db98 f   libucrt:wcspbrk.obj
 0001:0005cbdc       ??0?$__crt_scoped_stack_ptr@_W@@QEAA@U?$__crt_scoped_stack_ptr_tag@_W@@@Z 000000014005dbdc f i libucrt:getstringtypea.obj
 0001:0005cbe4       ??0?$__crt_scoped_stack_ptr_tag@_W@@QEAA@QEA_W@Z 000000014005dbe4 f i libucrt:getstringtypea.obj
 0001:0005cbec       ??1?$__crt_scoped_stack_ptr@_W@@QEAA@XZ 000000014005dbec f i libucrt:getstringtypea.obj
 0001:0005cc18       ?get@?$__crt_scoped_stack_ptr@_W@@QEBAPEA_WXZ 000000014005dc18 f i libucrt:getstringtypea.obj
 0001:0005cc1c       _MallocaComputeSize        000000014005dc1c f i libucrt:getstringtypea.obj
 0001:0005cc30       _MarkAllocaS               000000014005dc30 f i libucrt:getstringtypea.obj
 0001:0005cc44       __acrt_GetStringTypeA      000000014005dc44 f   libucrt:getstringtypea.obj
 0001:0005ce34       _freea_crt                 000000014005de34 f i libucrt:getstringtypea.obj
 0001:0005ce5c       __acrt_add_locale_ref      000000014005de5c f   libucrt:locale_refcounting.obj
 0001:0005cf0c       __acrt_free_locale         000000014005df0c f   libucrt:locale_refcounting.obj
 0001:0005d0e0       __acrt_locale_add_lc_time_reference 000000014005e0e0 f   libucrt:locale_refcounting.obj
 0001:0005d110       __acrt_locale_free_lc_time_if_unreferenced 000000014005e110 f   libucrt:locale_refcounting.obj
 0001:0005d154       __acrt_locale_release_lc_time_reference 000000014005e154 f   libucrt:locale_refcounting.obj
 0001:0005d184       __acrt_release_locale_ref  000000014005e184 f   libucrt:locale_refcounting.obj
 0001:0005d258       __acrt_update_thread_locale_data 000000014005e258 f   libucrt:locale_refcounting.obj
 0001:0005d2e4       _updatetlocinfoEx_nolock   000000014005e2e4 f   libucrt:locale_refcounting.obj
 0001:0005ddc8       __acrt_get_qualified_locale 000000014005edc8 f   libucrt:get_qualified_locale.obj
 0001:0005eb88       __acrt_get_qualified_locale_downlevel 000000014005fb88 f   libucrt:getqloc_downlevel.obj
 0001:0005eedc       ??$?B$$A6AHPEA_WK_J@Z@__crt_fast_encoded_nullptr_t@@QEBAP6AHPEA_WK_J@ZXZ 000000014005fedc f i libucrt:winapi_thunks.obj
 0001:0005efb0       ??$__crt_fast_decode_pointer@P6AHPEA_WK_J@Z@@YAP6AHPEA_WK_J@ZQ6AH0K1@Z@Z 000000014005ffb0 f i libucrt:winapi_thunks.obj
 0001:0005efcc       ??$__crt_fast_decode_pointer@PEAX@@YAPEAXQEAX@Z 000000014005ffcc f i libucrt:winapi_thunks.obj
 0001:0005efe8       ??$__crt_fast_encode_pointer@P6AHPEA_WK_J@Z@@YAP6AHPEA_WK_J@ZQ6AH0K1@Z@Z 000000014005ffe8 f i libucrt:winapi_thunks.obj
 0001:0005fd9c       GetCurrentThreadEffectiveToken 0000000140060d9c f i libucrt:winapi_thunks.obj
 0001:0005fda8       __acrt_AppPolicyGetProcessTerminationMethodInternal 0000000140060da8 f   libucrt:winapi_thunks.obj
 0001:0005fe0c       __acrt_AppPolicyGetShowDeveloperDiagnosticInternal 0000000140060e0c f   libucrt:winapi_thunks.obj
 0001:0005fe70       __acrt_AppPolicyGetThreadInitializationTypeInternal 0000000140060e70 f   libucrt:winapi_thunks.obj
 0001:0005fed4       __acrt_AppPolicyGetWindowingModelInternal 0000000140060ed4 f   libucrt:winapi_thunks.obj
 0001:0005ff38       __acrt_AreFileApisANSI     0000000140060f38 f   libucrt:winapi_thunks.obj
 0001:0005ff80       __acrt_CompareStringEx     0000000140060f80 f   libucrt:winapi_thunks.obj
 0001:00060094       __acrt_EnumSystemLocalesEx 0000000140061094 f   libucrt:winapi_thunks.obj
 0001:00060150       __acrt_FlsAlloc            0000000140061150 f   libucrt:winapi_thunks.obj
 0001:000601ac       __acrt_FlsFree             00000001400611ac f   libucrt:winapi_thunks.obj
 0001:00060204       __acrt_FlsGetValue         0000000140061204 f   libucrt:winapi_thunks.obj
 0001:0006025c       __acrt_FlsSetValue         000000014006125c f   libucrt:winapi_thunks.obj
 0001:000602c4       __acrt_GetDateFormatEx     00000001400612c4 f   libucrt:winapi_thunks.obj
 0001:000603a8       __acrt_GetEnabledXStateFeatures 00000001400613a8 f   libucrt:winapi_thunks.obj
 0001:000603f0       __acrt_GetLocaleInfoEx     00000001400613f0 f   libucrt:winapi_thunks.obj
 0001:00060494       __acrt_GetSystemTimePreciseAsFileTime 0000000140061494 f   libucrt:winapi_thunks.obj
 0001:000604f0       __acrt_GetTimeFormatEx     00000001400614f0 f   libucrt:winapi_thunks.obj
 0001:000605c8       __acrt_GetUserDefaultLocaleName 00000001400615c8 f   libucrt:winapi_thunks.obj
 0001:00060644       __acrt_GetXStateFeaturesMask 0000000140061644 f   libucrt:winapi_thunks.obj
 0001:000606ac       __acrt_InitializeCriticalSectionEx 00000001400616ac f   libucrt:winapi_thunks.obj
 0001:00060728       __acrt_IsValidLocaleName   0000000140061728 f   libucrt:winapi_thunks.obj
 0001:00060794       __acrt_LCIDToLocaleName    0000000140061794 f   libucrt:winapi_thunks.obj
 0001:00060820       __acrt_LCMapStringEx       0000000140061820 f   libucrt:winapi_thunks.obj
 0001:00060934       __acrt_LocaleNameToLCID    0000000140061934 f   libucrt:winapi_thunks.obj
 0001:00060998       __acrt_LocateXStateFeature 0000000140061998 f   libucrt:winapi_thunks.obj
 0001:00060a10       __acrt_MessageBoxA         0000000140061a10 f   libucrt:winapi_thunks.obj
 0001:00060aa0       __acrt_MessageBoxW         0000000140061aa0 f   libucrt:winapi_thunks.obj
 0001:00060b30       __acrt_RoInitialize        0000000140061b30 f   libucrt:winapi_thunks.obj
 0001:00060b80       __acrt_RoUninitialize      0000000140061b80 f   libucrt:winapi_thunks.obj
 0001:00060bc0       __acrt_RtlGenRandom        0000000140061bc0 f   libucrt:winapi_thunks.obj
 0001:00060c24       __acrt_SetThreadStackGuarantee 0000000140061c24 f   libucrt:winapi_thunks.obj
 0001:00060c78       __acrt_can_show_message_box 0000000140061c78 f   libucrt:winapi_thunks.obj
 0001:00060d00       __acrt_can_use_vista_locale_apis 0000000140061d00 f   libucrt:winapi_thunks.obj
 0001:00060d3c       __acrt_can_use_xstate_apis 0000000140061d3c f   libucrt:winapi_thunks.obj
 0001:00060d78       __acrt_eagerly_load_locale_apis 0000000140061d78 f   libucrt:winapi_thunks.obj
 0001:00060f28       __acrt_get_parent_window   0000000140061f28 f   libucrt:winapi_thunks.obj
 0001:00060fc0       __acrt_initialize_winapi_thunks 0000000140061fc0 f   libucrt:winapi_thunks.obj
 0001:00061000       __acrt_is_interactive      0000000140062000 f   libucrt:winapi_thunks.obj
 0001:000610f8       __acrt_uninitialize_winapi_thunks 00000001400620f8 f   libucrt:winapi_thunks.obj
 0001:0006114c       localeconv                 000000014006214c f   libucrt:localeconv.obj
 0001:0006118c       _recalloc                  000000014006218c f   libucrt:recalloc.obj
 0001:00061194       _recalloc_base             0000000140062194 f   libucrt:recalloc.obj
 0001:00061250       __acrt_getheap             0000000140062250 f   libucrt:heap_handle.obj
 0001:0006125c       __acrt_initialize_heap     000000014006225c f   libucrt:heap_handle.obj
 0001:00061280       __acrt_uninitialize_heap   0000000140062280 f   libucrt:heap_handle.obj
 0001:00061290       _get_heap_handle           0000000140062290 f   libucrt:heap_handle.obj
 0001:0006129c       __acrt_execute_initializers 000000014006229c f   libucrt:shared_initialization.obj
 0001:0006133c       __acrt_execute_uninitializers 000000014006233c f   libucrt:shared_initialization.obj
 0001:00061388       ??$?B$$A6AH_K@Z@__crt_fast_encoded_nullptr_t@@QEBAP6AH_K@ZXZ 0000000140062388 f i libucrt:new_handler.obj
 0001:00061394       ??$__crt_fast_decode_pointer@P6AH_K@Z@@YAP6AH_K@ZQ6AH0@Z@Z 0000000140062394 f i libucrt:new_handler.obj
 0001:000613b0       ??$__crt_fast_encode_pointer@P6AH_K@Z@@YAP6AH_K@ZQ6AH0@Z@Z 00000001400623b0 f i libucrt:new_handler.obj
 0001:000613d8       ?_set_new_handler@@YAP6AH_K@ZH@Z 00000001400623d8 f   libucrt:new_handler.obj
 0001:000613e8       ?initialize@?$dual_state_global@P6AH_K@Z@__crt_state_management@@QEAAXQ6AH_K@Z@Z 00000001400623e8 f i libucrt:new_handler.obj
 0001:00061418       ?value@?$dual_state_global@P6AH_K@Z@__crt_state_management@@QEAAAEAP6AH_K@ZXZ 0000000140062418 f i libucrt:new_handler.obj
 0001:0006141c       __acrt_initialize_new_handler 000000014006241c f   libucrt:new_handler.obj
 0001:00061428       _callnewh                  0000000140062428 f   libucrt:new_handler.obj
 0001:00061464       _query_new_handler         0000000140062464 f   libucrt:new_handler.obj
 0001:000614a8       _set_new_handler           00000001400624a8 f   libucrt:new_handler.obj
 0001:00061518       ??$?B$$A6AXH@Z@__crt_fast_encoded_nullptr_t@@QEBAP6AXH@ZXZ 0000000140062518 f i libucrt:signal.obj
 0001:000615ac       ??$__crt_fast_decode_pointer@P6AXH@Z@@YAP6AXH@ZQ6AXH@Z@Z 00000001400625ac f i libucrt:signal.obj
 0001:000615c8       ??$__crt_fast_encode_pointer@P6AXH@Z@@YAP6AXH@ZQ6AXH@Z@Z 00000001400625c8 f i libucrt:signal.obj
 0001:00061738       ?initialize@?$dual_state_global@P6AXH@Z@__crt_state_management@@QEAAXQ6AXH@Z@Z 0000000140062738 f i libucrt:signal.obj
 0001:000617f4       ?value@?$dual_state_global@P6AXH@Z@__crt_state_management@@QEAAAEAP6AXH@ZXZ 00000001400627f4 f i libucrt:signal.obj
 0001:000617f8       __acrt_get_sigabrt_handler 00000001400627f8 f   libucrt:signal.obj
 0001:00061834       __acrt_initialize_signal_handlers 0000000140062834 f   libucrt:signal.obj
 0001:00061858       __fpecode                  0000000140062858 f   libucrt:signal.obj
 0001:00061870       __pxcptinfoptrs            0000000140062870 f   libucrt:signal.obj
 0001:00061888       raise                      0000000140062888 f   libucrt:signal.obj
 0001:00061b8c       signal                     0000000140062b8c f   libucrt:signal.obj
 0001:00062120       ??0__crt_stdio_stream@@QEAA@QEAU__crt_stdio_stream_data@@@Z 0000000140063120 f i libucrt:fflush.obj
 0001:000622ec       ?__acrt_stdio_reset_buffer@@YAXV__crt_stdio_stream@@@Z 00000001400632ec f i libucrt:fflush.obj
 0001:000623b0       ?has_all_of@__crt_stdio_stream@@QEBA_NJ@Z 00000001400633b0 f i libucrt:fflush.obj
 0001:00062408       __acrt_stdio_flush_nolock  0000000140063408 f   libucrt:fflush.obj
 0001:000624a0       _fflush_nolock             00000001400634a0 f   libucrt:fflush.obj
 0001:00062500       _flushall                  0000000140063500 f   libucrt:fflush.obj
 0001:00062508       fflush                     0000000140063508 f   libucrt:fflush.obj
 0001:00062588       _iswctype_l                0000000140063588 f   libucrt:iswctype.obj
 0001:00062590       iswctype                   0000000140063590 f   libucrt:iswctype.obj
 0001:00062618       _isctype                   0000000140063618 f   libucrt:isctype.obj
 0001:00062654       _isctype_l                 0000000140063654 f   libucrt:isctype.obj
 0001:000627a0       _isleadbyte_fast_internal  00000001400637a0 f i libucrt:isctype.obj
 0001:000627c0       __iswcsym                  00000001400637c0 f i libucrt:_wctype.obj
 0001:000627f8       __iswcsymf                 00000001400637f8 f i libucrt:_wctype.obj
 0001:00062830       _isleadbyte_l              0000000140063830 f i libucrt:_wctype.obj
 0001:00062890       _iswalnum_l                0000000140063890 f i libucrt:_wctype.obj
 0001:0006289c       _iswalpha_l                000000014006389c f i libucrt:_wctype.obj
 0001:000628a8       _iswblank_l                00000001400638a8 f i libucrt:_wctype.obj
 0001:000628c4       _iswcntrl_l                00000001400638c4 f i libucrt:_wctype.obj
 0001:000628d0       _iswcsym_l                 00000001400638d0 f i libucrt:_wctype.obj
 0001:00062908       _iswcsymf_l                0000000140063908 f i libucrt:_wctype.obj
 0001:00062940       _iswdigit_l                0000000140063940 f i libucrt:_wctype.obj
 0001:0006294c       _iswgraph_l                000000014006394c f i libucrt:_wctype.obj
 0001:00062958       _iswlower_l                0000000140063958 f i libucrt:_wctype.obj
 0001:00062964       _iswprint_l                0000000140063964 f i libucrt:_wctype.obj
 0001:00062970       _iswpunct_l                0000000140063970 f i libucrt:_wctype.obj
 0001:0006297c       _iswspace_l                000000014006397c f i libucrt:_wctype.obj
 0001:00062988       _iswupper_l                0000000140063988 f i libucrt:_wctype.obj
 0001:00062994       _iswxdigit_l               0000000140063994 f i libucrt:_wctype.obj
 0001:000629a0       isleadbyte                 00000001400639a0 f i libucrt:_wctype.obj
 0001:00062a00       iswalnum                   0000000140063a00 f i libucrt:_wctype.obj
 0001:00062a0c       iswalpha                   0000000140063a0c f i libucrt:_wctype.obj
 0001:00062a18       iswascii                   0000000140063a18 f i libucrt:_wctype.obj
 0001:00062a2c       iswblank                   0000000140063a2c f i libucrt:_wctype.obj
 0001:00062a48       iswcntrl                   0000000140063a48 f i libucrt:_wctype.obj
 0001:00062a54       iswdigit                   0000000140063a54 f i libucrt:_wctype.obj
 0001:00062a60       iswgraph                   0000000140063a60 f i libucrt:_wctype.obj
 0001:00062a6c       iswlower                   0000000140063a6c f i libucrt:_wctype.obj
 0001:00062a78       iswprint                   0000000140063a78 f i libucrt:_wctype.obj
 0001:00062a84       iswpunct                   0000000140063a84 f i libucrt:_wctype.obj
 0001:00062a90       iswspace                   0000000140063a90 f i libucrt:_wctype.obj
 0001:00062a9c       iswupper                   0000000140063a9c f i libucrt:_wctype.obj
 0001:00062aa8       iswxdigit                  0000000140063aa8 f i libucrt:_wctype.obj
 0001:00062ae4       ?__mbrtowc_utf8@__crt_mbstring@@YA_KPEA_WPEBD_KPEAU_Mbstatet@@@Z 0000000140063ae4 f   libucrt:mbrtowc.obj
 0001:00062b2c       ?__mbsrtowcs_utf8@__crt_mbstring@@YA_KPEA_WPEAPEBD_KPEAU_Mbstatet@@@Z 0000000140063b2c f   libucrt:mbrtowc.obj
 0001:000631a0       btowc                      00000001400641a0 f   libucrt:mbrtowc.obj
 0001:00063220       mbrlen                     0000000140064220 f   libucrt:mbrtowc.obj
 0001:00063270       mbrtowc                    0000000140064270 f   libucrt:mbrtowc.obj
 0001:000632e8       mbsrtowcs                  00000001400642e8 f   libucrt:mbrtowc.obj
 0001:000632f0       mbsrtowcs_s                00000001400642f0 f   libucrt:mbrtowc.obj
 0001:000633e8       ?__c32rtomb_utf8@__crt_mbstring@@YA_KPEAD_UPEAU_Mbstatet@@@Z 00000001400643e8 f   libucrt:c32rtomb.obj
 0001:000634c8       ?reset_and_return@__crt_mbstring@@YA_K_KPEAU_Mbstatet@@@Z 00000001400644c8 f i libucrt:c32rtomb.obj
 0001:000634d4       ?return_illegal_sequence@__crt_mbstring@@YA_KPEAU_Mbstatet@@@Z 00000001400644d4 f i libucrt:c32rtomb.obj
 0001:000634f8       c32rtomb                   00000001400644f8 f   libucrt:c32rtomb.obj
 0001:000635dc       __acrt_fp_strflt_to_string 00000001400645dc f   libucrt:_fptostr.obj
 0001:00064d40       ??0big_integer@__crt_strtox@@QEAA@AEBU01@@Z 0000000140065d40 f i libucrt:cfout.obj
 0001:00064d80       ??0big_integer@__crt_strtox@@QEAA@XZ 0000000140065d80 f i libucrt:cfout.obj
 0001:00064e00       ??4big_integer@__crt_strtox@@QEAAAEAU01@AEBU01@@Z 0000000140065e00 f i libucrt:cfout.obj
 0001:00064e40       ??8__crt_strtox@@YA_NAEBUbig_integer@0@0@Z 0000000140065e40 f i libucrt:cfout.obj
 0001:00064e80       ??9__crt_strtox@@YA_NAEBUbig_integer@0@0@Z 0000000140065e80 f i libucrt:cfout.obj
 0001:00064ed0       ?add_carry@__crt_strtox@@YAIAEAIII@Z 0000000140065ed0 f i libucrt:cfout.obj
 0001:00064ef0       ?add_multiply_carry@__crt_strtox@@YAIAEAIIII@Z 0000000140065ef0 f i libucrt:cfout.obj
 0001:00064f20       ?bit_scan_reverse@__crt_strtox@@YAII@Z 0000000140065f20 f i libucrt:cfout.obj
 0001:00064f40       ?count_sequential_high_zeroes@__crt_strtox@@YAII@Z 0000000140065f40 f i libucrt:cfout.obj
 0001:00064f60       ?divide@__crt_strtox@@YA_KAEAUbig_integer@1@AEBU21@@Z 0000000140065f60 f i libucrt:cfout.obj
 0001:000654a0       ?is_zero@__crt_strtox@@YA_NAEBUbig_integer@1@@Z 00000001400664a0 f i libucrt:cfout.obj
 0001:000654b0       ?make_big_integer@__crt_strtox@@YA?AUbig_integer@1@_K@Z 00000001400664b0 f i libucrt:cfout.obj
 0001:000654d0       ?make_big_integer_power_of_two@__crt_strtox@@YA?AUbig_integer@1@I@Z 00000001400664d0 f i libucrt:cfout.obj
 0001:00065550       ?multiply@__crt_strtox@@YA_NAEAUbig_integer@1@AEBU21@@Z 0000000140066550 f i libucrt:cfout.obj
 0001:000659f0       ?multiply@__crt_strtox@@YA_NAEAUbig_integer@1@I@Z 00000001400669f0 f i libucrt:cfout.obj
 0001:00065b20       ?multiply_64_32@__crt_strtox@@YA_K_KI@Z 0000000140066b20 f i libucrt:cfout.obj
 0001:00065b30       ?multiply_by_power_of_ten@__crt_strtox@@YA_NAEAUbig_integer@1@I@Z 0000000140066b30 f i libucrt:cfout.obj
 0001:00066250       ?multiply_core@__crt_strtox@@YAIQEAIII@Z 0000000140067250 f i libucrt:cfout.obj
 0001:000662b0       ?shift_left@__crt_strtox@@YA_NAEAUbig_integer@1@I@Z 00000001400672b0 f i libucrt:cfout.obj
 0001:0006648c       __acrt_fltout              000000014006748c f   libucrt:cfout.obj
 0001:00067c0c       __fpe_flt_rounds           0000000140068c0c f   libucrt:fegetround.obj
 0001:00067c64       fegetround                 0000000140068c64 f   libucrt:fegetround.obj
 0001:00068094       ?has_big_buffer@__crt_stdio_stream@@QEBA_NXZ 0000000140069094 f i libucrt:_flsbuf.obj
 0001:0006813c       __acrt_stdio_flush_and_write_narrow_nolock 000000014006913c f   libucrt:_flsbuf.obj
 0001:00068220       __acrt_stdio_flush_and_write_wide_nolock 0000000140069220 f   libucrt:_flsbuf.obj
 0001:0006830c       ?is_in_use@__crt_stdio_stream@@QEBA_NXZ 000000014006930c f i libucrt:closeall.obj
 0001:0006831c       _fcloseall                 000000014006931c f   libucrt:closeall.obj
 0001:000683fc       ?has_crt_buffer@__crt_stdio_stream@@QEBA_NXZ 00000001400693fc f i libucrt:_freebuf.obj
 0001:0006840c       __acrt_stdio_free_buffer_nolock 000000014006940c f   libucrt:_freebuf.obj
 0001:0006845c       _isatty                    000000014006945c f   libucrt:isatty.obj
 0001:000684d4       _errcode                   00000001400694d4 f   libucrt:fpexcept.obj
 0001:00068528       _except1                   0000000140069528 f   libucrt:fpexcept.obj
 0001:00068658       _except2                   0000000140069658 f   libucrt:fpexcept.obj
 0001:000687e0       _handle_exc                00000001400697e0 f   libucrt:fpexcept.obj
 0001:00068ae0       _handle_qnan2              0000000140069ae0 f   libucrt:fpexcept.obj
 0001:00068ae8       _raise_exc                 0000000140069ae8 f   libucrt:fpexcept.obj
 0001:00068b18       _raise_exc_ex              0000000140069b18 f   libucrt:fpexcept.obj
 0001:00068ee8       _raise_excf                0000000140069ee8 f   libucrt:fpexcept.obj
 0001:00068f1c       _set_errno_from_matherr    0000000140069f1c f   libucrt:fpexcept.obj
 0001:00068f58       _umatherr                  0000000140069f58 f   libucrt:fpexcept.obj
 0001:00069064       _clrfp                     000000014006a064 f   libucrt:fpctrl.obj
 0001:00069088       _ctrlfp                    000000014006a088 f   libucrt:fpctrl.obj
 0001:00069124       _set_statfp                000000014006a124 f   libucrt:fpctrl.obj
 0001:0006914c       _statfp                    000000014006a14c f   libucrt:fpctrl.obj
 0001:00069164       __acrt_OutputDebugStringA  000000014006a164 f   libucrt:outputdebugstringa.obj
 0001:00069360       qsort                      000000014006a360 f   libucrt:qsort.obj
 0001:000698dc       strncpy_s                  000000014006a8dc f   libucrt:strncpy_s.obj
 0001:00069ab0       strpbrk                    000000014006aab0 f   libucrt:strpbrk.obj
 0001:00069f6c       _mbsdec                    000000014006af6c f   libucrt:mbsdec.obj
 0001:00069f78       _mbsdec_l                  000000014006af78 f   libucrt:mbsdec.obj
 0001:0006a034       ??B?$__crt_scoped_stack_ptr@_W@@QEBA_NXZ 000000014006b034 f i libucrt:lcmapstringa.obj
 0001:0006a41c       __acrt_LCMapStringA        000000014006b41c f   libucrt:lcmapstringa.obj
 0001:0006a4f4       _wcsnicoll                 000000014006b4f4 f   libucrt:wcsnicol.obj
 0001:0006a558       _wcsnicoll_l               000000014006b558 f   libucrt:wcsnicol.obj
 0001:0006a684       _strnicoll                 000000014006b684 f   libucrt:strnicol.obj
 0001:0006a6a0       _strnicoll_l               000000014006b6a0 f   libucrt:strnicol.obj
 0001:0006a9e8       __acrt_SetEnvironmentVariableA 000000014006b9e8 f   libucrt:setenvironmentvariablea.obj
 0001:0006adbc       __acrt_GetLocaleInfoA      000000014006bdbc f   libucrt:getlocaleinfoa.obj
 0001:0006b614       _i64toa                    000000014006c614 f   libucrt:xtoa.obj
 0001:0006b654       _i64toa_s                  000000014006c654 f   libucrt:xtoa.obj
 0001:0006b680       _i64tow                    000000014006c680 f   libucrt:xtoa.obj
 0001:0006b6c0       _i64tow_s                  000000014006c6c0 f   libucrt:xtoa.obj
 0001:0006b6ec       _itoa                      000000014006c6ec f   libucrt:xtoa.obj
 0001:0006b728       _itoa_s                    000000014006c728 f   libucrt:xtoa.obj
 0001:0006b750       _itow                      000000014006c750 f   libucrt:xtoa.obj
 0001:0006b78c       _itow_s                    000000014006c78c f   libucrt:xtoa.obj
 0001:0006b7b4       _ltoa                      000000014006c7b4 f   libucrt:xtoa.obj
 0001:0006b7f0       _ltoa_s                    000000014006c7f0 f   libucrt:xtoa.obj
 0001:0006b818       _ltow                      000000014006c818 f   libucrt:xtoa.obj
 0001:0006b854       _ltow_s                    000000014006c854 f   libucrt:xtoa.obj
 0001:0006b87c       _ui64toa                   000000014006c87c f   libucrt:xtoa.obj
 0001:0006b8a8       _ui64toa_s                 000000014006c8a8 f   libucrt:xtoa.obj
 0001:0006b8c0       _ui64tow                   000000014006c8c0 f   libucrt:xtoa.obj
 0001:0006b8ec       _ui64tow_s                 000000014006c8ec f   libucrt:xtoa.obj
 0001:0006b904       _ultoa                     000000014006c904 f   libucrt:xtoa.obj
 0001:0006b930       _ultoa_s                   000000014006c930 f   libucrt:xtoa.obj
 0001:0006b948       _ultow                     000000014006c948 f   libucrt:xtoa.obj
 0001:0006b974       _ultow_s                   000000014006c974 f   libucrt:xtoa.obj
 0001:0006b98c       __ascii_wcsicmp            000000014006c98c f   libucrt:wcsicmp.obj
 0001:0006b9dc       _towlower_fast_internal    000000014006c9dc f i libucrt:wcsicmp.obj
 0001:0006ba0c       _towlower_internal         000000014006ca0c f i libucrt:wcsicmp.obj
 0001:0006ba50       _wcsicmp                   000000014006ca50 f   libucrt:wcsicmp.obj
 0001:0006baa8       _wcsicmp_l                 000000014006caa8 f   libucrt:wcsicmp.obj
 0001:0006bc18       __ascii_wcsnicmp           000000014006cc18 f   libucrt:wcsnicmp.obj
 0001:0006bc78       _wcsnicmp                  000000014006cc78 f   libucrt:wcsnicmp.obj
 0001:0006bcd0       _wcsnicmp_l                000000014006ccd0 f   libucrt:wcsnicmp.obj
 0001:0006be74       wcscmp                     000000014006ce74 f   libucrt:wcscmp.obj
 0001:0006bfc0       __acrt_DownlevelLCIDToLocaleName 000000014006cfc0 f   libucrt:lcidtoname_downlevel.obj
 0001:0006c0f4       __acrt_DownlevelLocaleNameToLCID 000000014006d0f4 f   libucrt:lcidtoname_downlevel.obj
 0001:0006c1d0       _msize                     000000014006d1d0 f   libucrt:msize.obj
 0001:0006c1d8       _msize_base                000000014006d1d8 f   libucrt:msize.obj
 0001:0006c220       _realloc_base              000000014006d220 f   libucrt:realloc_base.obj
 0001:0006c44c       _commit                    000000014006d44c f   libucrt:commit.obj
 0001:0006d194       _utf8_no_of_trailbytes     000000014006e194 f i libucrt:write.obj
 0001:0006d1a8       _write                     000000014006e1a8 f   libucrt:write.obj
 0001:0006d2d0       _write_nolock              000000014006e2d0 f   libucrt:write.obj
 0001:0006d66c       __acrt_GetStringTypeW      000000014006e66c f   libucrt:getstringtypew.obj
 0001:0006d674       ?__mbrtoc32_utf8@__crt_mbstring@@YA_KPEA_UPEBD_KPEAU_Mbstatet@@@Z 000000014006e674 f   libucrt:mbrtoc32.obj
 0001:0006d8c0       mbrtoc32                   000000014006e8c0 f   libucrt:mbrtoc32.obj
 0001:0006d8c8       _controlfp_s               000000014006e8c8 f   libucrt:contrlfp.obj
 0001:0006d944       fegetenv                   000000014006e944 f   libucrt:fegetenv.obj
 0001:0006d96c       fesetenv                   000000014006e96c f   libucrt:fesetenv.obj
 0001:0006d9cc       feholdexcept               000000014006e9cc f   libucrt:feholdexcept.obj
 0001:0006da30       ceil                       000000014006ea30 f   libucrt:ceil.obj
 0001:0006db30       log10                      000000014006eb30 f   libucrt:log10.obj
 0001:0006e248       ??$__acrt_fenv_shift_bits@W4__acrt_fenv_abstract_control@@@@YA?AW4__acrt_fenv_abstract_control@@W40@0I@Z 000000014006f248 f i libucrt:_fenvutils.obj
 0001:0006e254       ??$__acrt_fenv_shift_bits@W4__acrt_fenv_abstract_status@@@@YA?AW4__acrt_fenv_abstract_status@@W40@0I@Z 000000014006f254 f i libucrt:_fenvutils.obj
 0001:0006e260       ??$__acrt_fenv_translate_bit@W4__acrt_fenv_abstract_control@@W4__acrt_fenv_machine_sse_control@@@@YA?AW4__acrt_fenv_abstract_control@@W4__acrt_fenv_machine_sse_control@@0W40@1@Z 000000014006f260 f i libucrt:_fenvutils.obj
 0001:0006e270       ??$__acrt_fenv_translate_bit@W4__acrt_fenv_abstract_status@@W4__acrt_fenv_machine_sse_status@@@@YA?AW4__acrt_fenv_abstract_status@@W4__acrt_fenv_machine_sse_status@@0W40@1@Z 000000014006f270 f i libucrt:_fenvutils.obj
 0001:0006e27c       ??$__acrt_fenv_translate_bit@W4__acrt_fenv_machine_sse_control@@W4__acrt_fenv_abstract_control@@@@YA?AW4__acrt_fenv_machine_sse_control@@W4__acrt_fenv_abstract_control@@0W40@1@Z 000000014006f27c f i libucrt:_fenvutils.obj
 0001:0006e28c       ??$__acrt_fenv_translate_bit@W4__acrt_fenv_machine_sse_status@@W4__acrt_fenv_abstract_status@@@@YA?AW4__acrt_fenv_machine_sse_status@@W4__acrt_fenv_abstract_status@@0W40@1@Z 000000014006f28c f i libucrt:_fenvutils.obj
 0001:0006e298       ??$__acrt_fenv_unshift_bits@W4__acrt_fenv_abstract_control@@@@YA?AW4__acrt_fenv_abstract_control@@W40@0I@Z 000000014006f298 f i libucrt:_fenvutils.obj
 0001:0006e2a4       ??$__acrt_fenv_unshift_bits@W4__acrt_fenv_abstract_status@@@@YA?AW4__acrt_fenv_abstract_status@@W40@0I@Z 000000014006f2a4 f i libucrt:_fenvutils.obj
 0001:0006e580       ??I@YA?AW4__acrt_fenv_abstract_control@@W40@0@Z 000000014006f580 f i libucrt:_fenvutils.obj
 0001:0006e588       ??I@YA?AW4__acrt_fenv_abstract_status@@W40@0@Z 000000014006f588 f i libucrt:_fenvutils.obj
 0001:0006e590       ??I@YA?AW4__acrt_fenv_machine_sse_control@@W40@0@Z 000000014006f590 f i libucrt:_fenvutils.obj
 0001:0006e598       ??I@YA?AW4__acrt_fenv_machine_sse_status@@W40@0@Z 000000014006f598 f i libucrt:_fenvutils.obj
 0001:0006e5a0       ??U@YA?AW4__acrt_fenv_abstract_control@@W40@0@Z 000000014006f5a0 f i libucrt:_fenvutils.obj
 0001:0006e5a8       ??U@YA?AW4__acrt_fenv_abstract_status@@W40@0@Z 000000014006f5a8 f i libucrt:_fenvutils.obj
 0001:0006e5b0       ??U@YA?AW4__acrt_fenv_machine_sse_control@@W40@0@Z 000000014006f5b0 f i libucrt:_fenvutils.obj
 0001:0006e5b8       ??_5@YAAEAW4__acrt_fenv_abstract_control@@AEAW40@W40@@Z 000000014006f5b8 f i libucrt:_fenvutils.obj
 0001:0006e5c0       ??_5@YAAEAW4__acrt_fenv_abstract_status@@AEAW40@W40@@Z 000000014006f5c0 f i libucrt:_fenvutils.obj
 0001:0006e5c8       ??_5@YAAEAW4__acrt_fenv_machine_sse_control@@AEAW40@W40@@Z 000000014006f5c8 f i libucrt:_fenvutils.obj
 0001:0006e5d0       ??_5@YAAEAW4__acrt_fenv_machine_sse_status@@AEAW40@W40@@Z 000000014006f5d0 f i libucrt:_fenvutils.obj
 0001:0006e5d8       ?__acrt_fenv_shift_abstract_sse_control@@YA?AW4__acrt_fenv_abstract_control@@W41@@Z 000000014006f5d8 f i libucrt:_fenvutils.obj
 0001:0006e5f0       ?__acrt_fenv_shift_abstract_sse_status@@YA?AW4__acrt_fenv_abstract_status@@W41@@Z 000000014006f5f0 f i libucrt:_fenvutils.obj
 0001:0006e5fc       ?__acrt_fenv_unshift_abstract_sse_control@@YA?AW4__acrt_fenv_abstract_control@@W41@@Z 000000014006f5fc f i libucrt:_fenvutils.obj
 0001:0006e618       ?__acrt_fenv_unshift_abstract_sse_status@@YA?AW4__acrt_fenv_abstract_status@@W41@@Z 000000014006f618 f i libucrt:_fenvutils.obj
 0001:0006ea1c       __acrt_fenv_expand_round_control 000000014006fa1c f   libucrt:_fenvutils.obj
 0001:0006ea38       __acrt_fenv_get_common_round_control 000000014006fa38 f   libucrt:_fenvutils.obj
 0001:0006ea44       __acrt_fenv_get_control    000000014006fa44 f   libucrt:_fenvutils.obj
 0001:0006eb74       __acrt_fenv_get_fp_status_word_from_exception_mask 000000014006fb74 f   libucrt:_fenvutils.obj
 0001:0006eb84       __acrt_fenv_get_status     000000014006fb84 f   libucrt:_fenvutils.obj
 0001:0006ebec       __acrt_fenv_set_control    000000014006fbec f   libucrt:_fenvutils.obj
 0001:0006ed84       __acrt_fenv_set_status     000000014006fd84 f   libucrt:_fenvutils.obj
 0001:0006f374       _lseek                     0000000140070374 f   libucrt:lseek.obj
 0001:0006f37c       _lseek_nolock              000000014007037c f   libucrt:lseek.obj
 0001:0006f384       _lseeki64                  0000000140070384 f   libucrt:lseek.obj
 0001:0006f38c       _lseeki64_nolock           000000014007038c f   libucrt:lseek.obj
 0001:0006f394       __acrt_stdio_allocate_buffer_nolock 0000000140070394 f   libucrt:_getbuf.obj
 0001:0006f41c       _fclose_nolock             000000014007041c f   libucrt:fclose.obj
 0001:0006f4c0       fclose                     00000001400704c0 f   libucrt:fclose.obj
 0001:0006f53c       _add_exp                   000000014007053c f   libucrt:util.obj
 0001:0006f5a0       _decomp                    00000001400705a0 f   libucrt:util.obj
 0001:0006f71c       _get_exp                   000000014007071c f   libucrt:util.obj
 0001:0006f740       _set_bexp                  0000000140070740 f   libucrt:util.obj
 0001:0006f77c       _set_exp                   000000014007077c f   libucrt:util.obj
 0001:0006f7c4       _sptype                    00000001400707c4 f   libucrt:util.obj
 0001:0006f870       _get_fpsr                  0000000140070870 f   libucrt:fpsr.obj
 0001:0006f880       _set_fpsr                  0000000140070880 f   libucrt:fpsr.obj
 0001:0006f88a       _fclrf                     000000014007088a f   libucrt:fpsr.obj
 0001:0006f89e       _frnd                      000000014007089e f   libucrt:fpsr.obj
 0001:0006fb54       _mbstowcs_l                0000000140070b54 f   libucrt:mbstowcs.obj
 0001:0006fb5c       _mbstowcs_s_l              0000000140070b5c f   libucrt:mbstowcs.obj
 0001:0006fcdc       mbstowcs                   0000000140070cdc f   libucrt:mbstowcs.obj
 0001:0006fcfc       mbstowcs_s                 0000000140070cfc f   libucrt:mbstowcs.obj
 0001:0006fd24       __strncnt                  0000000140070d24 f   libucrt:strncnt.obj
 0001:0006fd40       __acrt_CompareStringW      0000000140070d40 f   libucrt:comparestringw.obj
 0001:0006fe2c       __ascii_strnicmp           0000000140070e2c f   libucrt:strnicmp.obj
 0001:0006fe88       _strnicmp                  0000000140070e88 f   libucrt:strnicmp.obj
 0001:0006feec       _strnicmp_l                0000000140070eec f   libucrt:strnicmp.obj
 0001:000703f8       __acrt_CompareStringA      00000001400713f8 f   libucrt:comparestringa.obj
 0001:000704a4       _towlower_l                00000001400714a4 f   libucrt:towlower.obj
 0001:00070590       towlower                   0000000140071590 f   libucrt:towlower.obj
 0001:00070658       _putwch                    0000000140071658 f   libucrt:putwch.obj
 0001:000706a4       _putwch_nolock             00000001400716a4 f   libucrt:putwch.obj
 0001:000710f4       _read                      00000001400720f4 f   libucrt:read.obj
 0001:00071254       _read_nolock               0000000140072254 f   libucrt:read.obj
 0001:0007192c       _clearfp                   000000014007292c f   libucrt:ieee.obj
 0001:000719b8       _control87                 00000001400729b8 f   libucrt:ieee.obj
 0001:000719c0       _controlfp                 00000001400729c0 f   libucrt:ieee.obj
 0001:000719cc       _fpreset                   00000001400729cc f   libucrt:ieee.obj
 0001:00071ac8       _set_controlfp             0000000140072ac8 f   libucrt:ieee.obj
 0001:00071b0c       _statusfp                  0000000140072b0c f   libucrt:ieee.obj
 0001:00071f00       __acrt_initialize_fma3     0000000140072f00 f   libucrt:fma3_available.obj
 0001:00071f8c       _get_FMA3_enable           0000000140072f8c f   libucrt:fma3_available.obj
 0001:00071f94       _set_FMA3_enable           0000000140072f94 f   libucrt:fma3_available.obj
 0001:00071fb0       _log10_special             0000000140072fb0 f   libucrt:log_special.obj
 0001:00071fd8       _log10f_special            0000000140072fd8 f   libucrt:log_special.obj
 0001:00072000       _log_special               0000000140073000 f   libucrt:log_special.obj
 0001:000720e4       _logf_special              00000001400730e4 f   libucrt:log_special.obj
 0001:000723bc       _close                     00000001400733bc f   libucrt:close.obj
 0001:00072488       _close_nolock              0000000140073488 f   libucrt:close.obj
 0001:00072574       ??$?RU__crt_stdio_stream_data@@@__crt_internal_free_policy@@QEBAXQEBU__crt_stdio_stream_data@@@Z 0000000140073574 f i libucrt:stream.obj
 0001:00072580       ??0?$__crt_unique_heap_ptr@U__crt_stdio_stream_data@@U__crt_internal_free_policy@@@@QEAA@QEAU__crt_stdio_stream_data@@@Z 0000000140073580 f i libucrt:stream.obj
 0001:00072588       ??0__crt_stdio_stream@@QEAA@XZ 0000000140073588 f i libucrt:stream.obj
 0001:00072594       ??1?$__crt_unique_heap_ptr@U__crt_stdio_stream_data@@U__crt_internal_free_policy@@@@QEAA@XZ 0000000140073594 f i libucrt:stream.obj
 0001:000725b8       ?__acrt_stdio_allocate_stream@@YA?AV__crt_stdio_stream@@XZ 00000001400735b8 f   libucrt:stream.obj
 0001:00072624       ?__acrt_stdio_free_stream@@YAXV__crt_stdio_stream@@@Z 0000000140073624 f   libucrt:stream.obj
 0001:00072648       ?deallocate@__crt_stdio_stream@@QEAAXXZ 0000000140073648 f i libucrt:stream.obj
 0001:00072654       ?detach@?$__crt_unique_heap_ptr@U__crt_stdio_stream_data@@U__crt_internal_free_policy@@@@QEAAPEAU__crt_stdio_stream_data@@XZ 0000000140073654 f i libucrt:stream.obj
 0001:00072784       ?lock@__crt_stdio_stream@@QEBAXXZ 0000000140073784 f i libucrt:stream.obj
 0001:00072790       ?release@?$__crt_unique_heap_ptr@U__crt_stdio_stream_data@@U__crt_internal_free_policy@@@@QEAAXXZ 0000000140073790 f i libucrt:stream.obj
 0001:000727b4       ?try_allocate@__crt_stdio_stream@@QEAA_NXZ 00000001400737b4 f i libucrt:stream.obj
 0001:000727dc       ?unlock@__crt_stdio_stream@@QEBAXXZ 00000001400737dc f i libucrt:stream.obj
 0001:000727e8       __acrt_LCMapStringW        00000001400737e8 f   libucrt:lcmapstringw.obj
 0001:000729fc       __dcrt_lowio_ensure_console_output_initialized 00000001400739fc f   libucrt:initcon.obj
 0001:00072a64       __dcrt_terminate_console_output 0000000140073a64 f   libucrt:initcon.obj
 0001:00072a88       __dcrt_write_console       0000000140073a88 f   libucrt:initcon.obj
 0001:00072b80       _FindPESection             0000000140073b80 f   LIBCMT:pesect.obj
 0001:00072be0       _IsNonwritableInCurrentImage 0000000140073be0 f   LIBCMT:pesect.obj
 0001:00072c40       _ValidateImageBase         0000000140073c40 f   LIBCMT:pesect.obj
 0001:00072c78       ??1type_info@@UEAA@XZ      0000000140073c78 f   LIBCMT:std_type_info_static.obj
 0001:00072c88       ??_Etype_info@@UEAAPEAXI@Z 0000000140073c88 f i LIBCMT:std_type_info_static.obj
 0001:00072c88       ??_Gtype_info@@UEAAPEAXI@Z 0000000140073c88 f i LIBCMT:std_type_info_static.obj
 0001:00072cc0       ??3@YAXPEAX_K@Z            0000000140073cc0 f   LIBCMT:delete_scalar_size.obj
 0001:00072cc8       __GSHandlerCheck_SEH       0000000140073cc8 f   LIBCMT:gshandlerseh.obj
 0001:00072d80       __chkstk                   0000000140073d80 f   LIBCMT:chkstk.obj
 0001:00072d80       _alloca_probe              0000000140073d80 f   LIBCMT:chkstk.obj
 0001:00072de8       ??3@YAXPEAX@Z              0000000140073de8 f   LIBCMT:delete_scalar.obj
 0001:00072ded       RtlUnwindEx                0000000140073ded f   kernel32:KERNEL32.dll
 0001:00072df3       InterlockedPushEntrySList  0000000140073df3 f   kernel32:KERNEL32.dll
 0001:00072df9       InterlockedFlushSList      0000000140073df9 f   kernel32:KERNEL32.dll
 0001:00072dff       GetLastError               0000000140073dff f   kernel32:KERNEL32.dll
 0001:00072e05       SetLastError               0000000140073e05 f   kernel32:KERNEL32.dll
 0001:00072e0b       EnterCriticalSection       0000000140073e0b f   kernel32:KERNEL32.dll
 0001:00072e11       LeaveCriticalSection       0000000140073e11 f   kernel32:KERNEL32.dll
 0001:00072e17       DeleteCriticalSection      0000000140073e17 f   kernel32:KERNEL32.dll
 0001:00072e1d       InitializeCriticalSectionAndSpinCount 0000000140073e1d f   kernel32:KERNEL32.dll
 0001:00072e23       TlsAlloc                   0000000140073e23 f   kernel32:KERNEL32.dll
 0001:00072e29       TlsGetValue                0000000140073e29 f   kernel32:KERNEL32.dll
 0001:00072e2f       TlsSetValue                0000000140073e2f f   kernel32:KERNEL32.dll
 0001:00072e35       TlsFree                    0000000140073e35 f   kernel32:KERNEL32.dll
 0001:00072e3b       FreeLibrary                0000000140073e3b f   kernel32:KERNEL32.dll
 0001:00072e41       GetProcAddress             0000000140073e41 f   kernel32:KERNEL32.dll
 0001:00072e47       LoadLibraryExW             0000000140073e47 f   kernel32:KERNEL32.dll
 0001:00072e4d       EncodePointer              0000000140073e4d f   kernel32:KERNEL32.dll
 0001:00072e53       RaiseException             0000000140073e53 f   kernel32:KERNEL32.dll
 0001:00072e59       RtlPcToFileHeader          0000000140073e59 f   kernel32:KERNEL32.dll
 0001:00072e5f       GetStdHandle               0000000140073e5f f   kernel32:KERNEL32.dll
 0001:00072e65       GetModuleFileNameW         0000000140073e65 f   kernel32:KERNEL32.dll
 0001:00072e6b       ExitProcess                0000000140073e6b f   kernel32:KERNEL32.dll
 0001:00072e71       GetModuleHandleExW         0000000140073e71 f   kernel32:KERNEL32.dll
 0001:00072e77       GetCommandLineA            0000000140073e77 f   kernel32:KERNEL32.dll
 0001:00072e7d       GetCommandLineW            0000000140073e7d f   kernel32:KERNEL32.dll
 0001:00072e83       HeapFree                   0000000140073e83 f   kernel32:KERNEL32.dll
 0001:00072e89       HeapAlloc                  0000000140073e89 f   kernel32:KERNEL32.dll
 0001:00072e8f       GetCurrentThread           0000000140073e8f f   kernel32:KERNEL32.dll
 0001:00072e95       GetFileType                0000000140073e95 f   kernel32:KERNEL32.dll
 0001:00072e9b       OutputDebugStringW         0000000140073e9b f   kernel32:KERNEL32.dll
 0001:00072ea1       FindFirstFileExW           0000000140073ea1 f   kernel32:KERNEL32.dll
 0001:00072ea7       FindNextFileW              0000000140073ea7 f   kernel32:KERNEL32.dll
 0001:00072ead       IsValidCodePage            0000000140073ead f   kernel32:KERNEL32.dll
 0001:00072eb3       GetACP                     0000000140073eb3 f   kernel32:KERNEL32.dll
 0001:00072eb9       GetOEMCP                   0000000140073eb9 f   kernel32:KERNEL32.dll
 0001:00072ebf       GetCPInfo                  0000000140073ebf f   kernel32:KERNEL32.dll
 0001:00072ec5       MultiByteToWideChar        0000000140073ec5 f   kernel32:KERNEL32.dll
 0001:00072ecb       WideCharToMultiByte        0000000140073ecb f   kernel32:KERNEL32.dll
 0001:00072ed1       GetEnvironmentStringsW     0000000140073ed1 f   kernel32:KERNEL32.dll
 0001:00072ed7       FreeEnvironmentStringsW    0000000140073ed7 f   kernel32:KERNEL32.dll
 0001:00072edd       SetEnvironmentVariableW    0000000140073edd f   kernel32:KERNEL32.dll
 0001:00072ee3       SetStdHandle               0000000140073ee3 f   kernel32:KERNEL32.dll
 0001:00072ee9       GetStringTypeW             0000000140073ee9 f   kernel32:KERNEL32.dll
 0001:00072eef       GetLocaleInfoW             0000000140073eef f   kernel32:KERNEL32.dll
 0001:00072ef5       IsValidLocale              0000000140073ef5 f   kernel32:KERNEL32.dll
 0001:00072efb       GetUserDefaultLCID         0000000140073efb f   kernel32:KERNEL32.dll
 0001:00072f01       EnumSystemLocalesW         0000000140073f01 f   kernel32:KERNEL32.dll
 0001:00072f07       GetDateFormatW             0000000140073f07 f   kernel32:KERNEL32.dll
 0001:00072f0d       GetTimeFormatW             0000000140073f0d f   kernel32:KERNEL32.dll
 0001:00072f13       CompareStringW             0000000140073f13 f   kernel32:KERNEL32.dll
 0001:00072f19       LCMapStringW               0000000140073f19 f   kernel32:KERNEL32.dll
 0001:00072f1f       GetProcessHeap             0000000140073f1f f   kernel32:KERNEL32.dll
 0001:00072f25       SetConsoleCtrlHandler      0000000140073f25 f   kernel32:KERNEL32.dll
 0001:00072f2b       SetFilePointerEx           0000000140073f2b f   kernel32:KERNEL32.dll
 0001:00072f31       HeapSize                   0000000140073f31 f   kernel32:KERNEL32.dll
 0001:00072f37       HeapReAlloc                0000000140073f37 f   kernel32:KERNEL32.dll
 0001:00072f3d       FlushFileBuffers           0000000140073f3d f   kernel32:KERNEL32.dll
 0001:00072f43       GetConsoleOutputCP         0000000140073f43 f   kernel32:KERNEL32.dll
 0001:00072f49       GetConsoleMode             0000000140073f49 f   kernel32:KERNEL32.dll
 0001:00072f4f       ReadConsoleW               0000000140073f4f f   kernel32:KERNEL32.dll
 0001:00072f55       CreateFileW                0000000140073f55 f   kernel32:KERNEL32.dll
 0001:00072f5b       WriteConsoleW              0000000140073f5b f   kernel32:KERNEL32.dll
 0001:00072f64       strrchr                    0000000140073f64 f   libvcruntime:strrchr.obj
 0001:000730f0       _local_unwind              00000001400740f0 f   libvcruntime:jmpuwind.obj
 0001:00073124       strchr                     0000000140074124 f   libvcruntime:strchr.obj
 0001:000731c0       wcschr                     00000001400741c0 f   libvcruntime:wcschr.obj
 0001:00073257       RtlUnwind                  0000000140074257 f   kernel32:KERNEL32.dll
 0001:00074e20       _guard_dispatch_icall_nop  0000000140075e20 f   LIBCMT:guard_dispatch.obj
 0001:00074e40       _guard_xfg_dispatch_icall_nop 0000000140075e40 f   LIBCMT:guard_xfg_dispatch.obj
 0002:00000000       __xc_a                     0000000140079000     LIBCMT:initializers.obj
 0002:00000340       __xc_z                     0000000140079340     LIBCMT:initializers.obj
 0002:00000450       __xi_a                     0000000140079450     LIBCMT:initializers.obj
 0002:00000780       __acrt_stdio_initializer   0000000140079780     libucrt:stdio_initializer.obj
 0002:00000790       __acrt_multibyte_initializer 0000000140079790     libucrt:multibyte_initializer.obj
 0002:000007a0       __acrt_fmode_initializer   00000001400797a0     libucrt:fmode_initializer.obj
 0002:000007b0       __acrt_tran_fma3_initializer 00000001400797b0     libucrt:fma3_initializer.obj
 0002:000008c0       __xi_z                     00000001400798c0     LIBCMT:initializers.obj
 0002:000009d0       __xp_a                     00000001400799d0     LIBCMT:initializers.obj
 0002:00000ae0       __acrt_locale_terminator   0000000140079ae0     libucrt:locale_initializer.obj
 0002:00000af0       __dcrt_console_output_terminator 0000000140079af0     libucrt:console_output_initializer.obj
 0002:00000c00       __acrt_stdio_terminator    0000000140079c00     libucrt:stdio_initializer.obj
 0002:00000d10       __xp_z                     0000000140079d10     LIBCMT:initializers.obj
 0002:00000e20       __xt_a                     0000000140079e20     LIBCMT:initializers.obj
 0002:00000f30       __xt_z                     0000000140079f30     LIBCMT:initializers.obj
 0002:000019c8       __real@3bb60b61            000000014007a9c8     site.obj
 0002:000019d0       __real@3f76c16c165fb017    000000014007a9d0     site.obj
 0002:000019dc       __real@3f800000            000000014007a9dc     site.obj
 0002:000019e0       __real@4066800000000000    000000014007a9e0     site.obj
 0002:000019f0       __real@4076800000000000    000000014007a9f0     site.obj
 0002:000019fc       __real@43340000            000000014007a9fc     site.obj
 0002:00001a00       __real@43b40000            000000014007aa00     site.obj
 0002:00001a04       __real@bf800000            000000014007aa04     site.obj
 0002:00001a20       __xmm@ffffffffffffffffffffffffffffffff 000000014007aa20     LIBCMT:utility.obj
 0002:00001a38       _pDestructExceptionObject  000000014007aa38     libvcruntime:ehhelpers.obj
 0002:000022d0       ??_C@_08EHJDFFNH@__based?$CI@ 000000014007b2d0     libvcruntime:undname.obj
 0002:000022e0       ??_C@_07KOLFKCDI@__cdecl@  000000014007b2e0     libvcruntime:undname.obj
 0002:000022f0       ??_C@_08GHMPAG@__pascal@   000000014007b2f0     libvcruntime:undname.obj
 0002:00002300       ??_C@_09IFJBGAPI@__stdcall@ 000000014007b300     libvcruntime:undname.obj
 0002:00002310       ??_C@_0L@NPHFGOKO@__thiscall@ 000000014007b310     libvcruntime:undname.obj
 0002:00002320       ??_C@_0L@JMKHOMEK@__fastcall@ 000000014007b320     libvcruntime:undname.obj
 0002:00002330       ??_C@_0N@BCKKPABJ@__vectorcall@ 000000014007b330     libvcruntime:undname.obj
 0002:00002340       ??_C@_09HIJEGCPM@__clrcall@ 000000014007b340     libvcruntime:undname.obj
 0002:0000234c       ??_C@_06GHPCKEAG@__eabi@   000000014007b34c     libvcruntime:undname.obj
 0002:00002358       ??_C@_09IOPIDJLG@__swift_1@ 000000014007b358     libvcruntime:undname.obj
 0002:00002368       ??_C@_09KFNFGKHF@__swift_2@ 000000014007b368     libvcruntime:undname.obj
 0002:00002378       ??_C@_09LMMOFLDE@__swift_3@ 000000014007b378     libvcruntime:undname.obj
 0002:00002388       ??_C@_07JOMMBBKO@__ptr64@  000000014007b388     libvcruntime:undname.obj
 0002:00002398       ??_C@_0L@PILCLIHE@__restrict@ 000000014007b398     libvcruntime:undname.obj
 0002:000023a8       ??_C@_0M@GFIIJFMG@__unaligned@ 000000014007b3a8     libvcruntime:undname.obj
 0002:000023b8       ??_C@_09DHDLOLLB@restrict?$CI@ 000000014007b3b8     libvcruntime:undname.obj
 0002:000023c4       ??_C@_00CNPNBAHC@@         000000014007b3c4     libvcruntime:undname.obj
 0002:000023c8       ??_C@_04NIHEBCM@?5new@     000000014007b3c8     libvcruntime:undname.obj
 0002:000023d0       ??_C@_07FPCDHGMM@?5delete@ 000000014007b3d0     libvcruntime:undname.obj
 0002:000023dc       ??_C@_01NEMOKFLO@?$DN@     000000014007b3dc     libvcruntime:undname.obj
 0002:000023e0       ??_C@_02GPIOPFAK@?$DO?$DO@ 000000014007b3e0     libvcruntime:undname.obj
 0002:000023e4       ??_C@_02FODMEDOG@?$DM?$DM@ 000000014007b3e4     libvcruntime:undname.obj
 0002:000023e8       ??_C@_01DCLJPIOD@?$CB@     000000014007b3e8     libvcruntime:undname.obj
 0002:000023ec       ??_C@_02EGOFBIJA@?$DN?$DN@ 000000014007b3ec     libvcruntime:undname.obj
 0002:000023f0       ??_C@_02FDNJECIE@?$CB?$DN@ 000000014007b3f0     libvcruntime:undname.obj
 0002:000023f4       ??_C@_02GPECMEKF@?$FL?$FN@ 000000014007b3f4     libvcruntime:undname.obj
 0002:000023f8       ??_C@_08LHJFAFGD@operator@ 000000014007b3f8     libvcruntime:undname.obj
 0002:00002404       ??_C@_02HBOOOICD@?9?$DO@   000000014007b404     libvcruntime:undname.obj
 0002:00002408       ??_C@_01NBENCBCI@?$CK@     000000014007b408     libvcruntime:undname.obj
 0002:0000240c       ??_C@_02ECNGHCIF@?$CL?$CL@ 000000014007b40c     libvcruntime:undname.obj
 0002:00002410       ??_C@_02BAABKJLB@?9?9@     000000014007b410     libvcruntime:undname.obj
 0002:00002414       ??_C@_01JOAMLHOP@?9@       000000014007b414     libvcruntime:undname.obj
 0002:00002418       ??_C@_01MIFGBAGJ@?$CL@     000000014007b418     libvcruntime:undname.obj
 0002:0000241c       ??_C@_01HNPIGOCE@?$CG@     000000014007b41c     libvcruntime:undname.obj
 0002:00002420       ??_C@_03MNHNFDLC@?9?$DO?$CK@ 000000014007b420     libvcruntime:undname.obj
 0002:00002424       ??_C@_01KMDKNFGN@?1@       000000014007b424     libvcruntime:undname.obj
 0002:00002428       ??_C@_01FGNFDNOH@?$CF@     000000014007b428     libvcruntime:undname.obj
 0002:0000242c       ??_C@_01MNNFJEPP@?$DM@     000000014007b42c     libvcruntime:undname.obj
 0002:00002430       ??_C@_02EHCHHCKH@?$DM?$DN@ 000000014007b430     libvcruntime:undname.obj
 0002:00002434       ??_C@_01PPODPGHN@?$DO@     000000014007b434     libvcruntime:undname.obj
 0002:00002438       ??_C@_02EEKDKGMJ@?$DO?$DN@ 000000014007b438     libvcruntime:undname.obj
 0002:0000243c       ??_C@_01IHBHIGKO@?0@       000000014007b43c     libvcruntime:undname.obj
 0002:00002440       ??_C@_02HCKGKOFO@?$CI?$CJ@ 000000014007b440     libvcruntime:undname.obj
 0002:00002444       ??_C@_01PJKLJHI@?$HO@      000000014007b444     libvcruntime:undname.obj
 0002:00002448       ??_C@_01JKBOJNNK@?$FO@     000000014007b448     libvcruntime:undname.obj
 0002:0000244c       ??_C@_01DNKMNLPK@?$HM@     000000014007b44c     libvcruntime:undname.obj
 0002:00002450       ??_C@_02PPKAJPJL@?$CG?$CG@ 000000014007b450     libvcruntime:undname.obj
 0002:00002454       ??_C@_02NONPIBCD@?$HM?$HM@ 000000014007b454     libvcruntime:undname.obj
 0002:00002458       ??_C@_02FPIMKNGF@?$CK?$DN@ 000000014007b458     libvcruntime:undname.obj
 0002:0000245c       ??_C@_02FOEOMHFC@?$CL?$DN@ 000000014007b45c     libvcruntime:undname.obj
 0002:00002460       ??_C@_02FKMDLLOA@?9?$DN@   000000014007b460     libvcruntime:undname.obj
 0002:00002464       ??_C@_02FJEHGPIO@?1?$DN@   000000014007b464     libvcruntime:undname.obj
 0002:00002468       ??_C@_02FENAOKFI@?$CF?$DN@ 000000014007b468     libvcruntime:undname.obj
 0002:0000246c       ??_C@_03IKFCCPFF@?$DO?$DO?$DN@ 000000014007b46c     libvcruntime:undname.obj
 0002:00002470       ??_C@_03CDNPDDLA@?$DM?$DM?$DN@ 000000014007b470     libvcruntime:undname.obj
 0002:00002474       ??_C@_02FGJGFEAB@?$CG?$DN@ 000000014007b474     libvcruntime:undname.obj
 0002:00002478       ??_C@_02DHLNPPGH@?$HM?$DN@ 000000014007b478     libvcruntime:undname.obj
 0002:0000247c       ??_C@_02MHEGNOJ@?$FO?$DN@  000000014007b47c     libvcruntime:undname.obj
 0002:00002480       ??_C@_09IFPLHPGF@?$GAvftable?8@ 000000014007b480     libvcruntime:undname.obj
 0002:00002490       ??_C@_09BLBHBJP@?$GAvbtable?8@ 000000014007b490     libvcruntime:undname.obj
 0002:000024a0       ??_C@_07FEEIOKP@?$GAvcall?8@ 000000014007b4a0     libvcruntime:undname.obj
 0002:000024b0       ??_C@_08LLFFHHDJ@?$GAtypeof?8@ 000000014007b4b0     libvcruntime:undname.obj
 0002:000024c0       ??_C@_0BF@KDPPACIK@?$GAlocal?5static?5guard?8@ 000000014007b4c0     libvcruntime:undname.obj
 0002:000024e0       ??_C@_08OBABFOLI@?$GAstring?8@ 000000014007b4e0     libvcruntime:undname.obj
 0002:000024f0       ??_C@_0BD@JDLKDPAB@?$GAvbase?5destructor?8@ 000000014007b4f0     libvcruntime:undname.obj
 0002:00002508       ??_C@_0BN@DEGPLNFK@?$GAvector?5deleting?5destructor?8@ 000000014007b508     libvcruntime:undname.obj
 0002:00002530       ??_C@_0BO@OBMKPJIG@?$GAdefault?5constructor?5closure?8@ 000000014007b530     libvcruntime:undname.obj
 0002:00002558       ??_C@_0BN@IMDCHIKM@?$GAscalar?5deleting?5destructor?8@ 000000014007b558     libvcruntime:undname.obj
 0002:00002580       ??_C@_0BO@PFGOCPJJ@?$GAvector?5constructor?5iterator?8@ 000000014007b580     libvcruntime:undname.obj
 0002:000025a8       ??_C@_0BN@LFPFMEDL@?$GAvector?5destructor?5iterator?8@ 000000014007b5a8     libvcruntime:undname.obj
 0002:000025d0       ??_C@_0CE@IKBNEHA@?$GAvector?5vbase?5constructor?5itera@ 000000014007b5d0     libvcruntime:undname.obj
 0002:00002600       ??_C@_0BL@NILFHHPC@?$GAvirtual?5displacement?5map?8@ 000000014007b600     libvcruntime:undname.obj
 0002:00002620       ??_C@_0CB@JONCMFFK@?$GAeh?5vector?5constructor?5iterator@ 000000014007b620     libvcruntime:undname.obj
 0002:00002648       ??_C@_0CA@GCEOPDGL@?$GAeh?5vector?5destructor?5iterator?8@ 000000014007b648     libvcruntime:undname.obj
 0002:00002670       ??_C@_0CH@OOJPLCPH@?$GAeh?5vector?5vbase?5constructor?5it@ 000000014007b670     libvcruntime:undname.obj
 0002:000026a0       ??_C@_0BL@LLKPOHJI@?$GAcopy?5constructor?5closure?8@ 000000014007b6a0     libvcruntime:undname.obj
 0002:000026c0       ??_C@_0BA@KBCDOMBN@?$GAudt?5returning?8@ 000000014007b6c0     libvcruntime:undname.obj
 0002:000026d4       ??_C@_03KLGMFNMG@?$GAEH@   000000014007b6d4     libvcruntime:undname.obj
 0002:000026d8       ??_C@_05KHLCHHI@?$GARTTI@  000000014007b6d8     libvcruntime:undname.obj
 0002:000026e0       ??_C@_0BA@KKLDJDLB@?$GAlocal?5vftable?8@ 000000014007b6e0     libvcruntime:undname.obj
 0002:000026f8       ??_C@_0CE@IIHCMGGL@?$GAlocal?5vftable?5constructor?5clos@ 000000014007b6f8     libvcruntime:undname.obj
 0002:00002724       ??_C@_06FHBGPFGH@?5new?$FL?$FN@ 000000014007b724     libvcruntime:undname.obj
 0002:00002730       ??_C@_09LBNFPBCA@?5delete?$FL?$FN@ 000000014007b730     libvcruntime:undname.obj
 0002:00002740       ??_C@_0P@HJKNJFNN@?$GAomni?5callsig?8@ 000000014007b740     libvcruntime:undname.obj
 0002:00002758       ??_C@_0BL@CNOONJFP@?$GAplacement?5delete?5closure?8@ 000000014007b758     libvcruntime:undname.obj
 0002:00002778       ??_C@_0BN@CKNJLHMB@?$GAplacement?5delete?$FL?$FN?5closure?8@ 000000014007b778     libvcruntime:undname.obj
 0002:000027a0       ??_C@_0CG@CFDHKGGD@?$GAmanaged?5vector?5constructor?5ite@ 000000014007b7a0     libvcruntime:undname.obj
 0002:000027d0       ??_C@_0CF@IMGKMJNO@?$GAmanaged?5vector?5destructor?5iter@ 000000014007b7d0     libvcruntime:undname.obj
 0002:00002800       ??_C@_0CG@HLDDJMAG@?$GAeh?5vector?5copy?5constructor?5ite@ 000000014007b800     libvcruntime:undname.obj
 0002:00002830       ??_C@_0CM@FCBBDIGB@?$GAeh?5vector?5vbase?5copy?5construct@ 000000014007b830     libvcruntime:undname.obj
 0002:00002868       ??_C@_0BL@CLIPGLGB@?$GAdynamic?5initializer?5for?5?8@ 000000014007b868     libvcruntime:undname.obj
 0002:00002888       ??_C@_0CB@PDBIFEP@?$GAdynamic?5atexit?5destructor?5for?5@ 000000014007b888     libvcruntime:undname.obj
 0002:000028b0       ??_C@_0CD@CGAJBKEJ@?$GAvector?5copy?5constructor?5iterat@ 000000014007b8b0     libvcruntime:undname.obj
 0002:000028e0       ??_C@_0CJ@GJELGAMM@?$GAvector?5vbase?5copy?5constructor?5@ 000000014007b8e0     libvcruntime:undname.obj
 0002:00002918       ??_C@_0CL@FGIJHLCE@?$GAmanaged?5vector?5copy?5constructo@ 000000014007b918     libvcruntime:undname.obj
 0002:00002950       ??_C@_0BM@PMGGMLDN@?$GAlocal?5static?5thread?5guard?8@ 000000014007b950     libvcruntime:undname.obj
 0002:00002978       ??_C@_0N@BDNMDMOL@operator?5?$CC?$CC?5@ 000000014007b978     libvcruntime:undname.obj
 0002:00002988       ??_C@_0BC@GGEBGALA@operator?5co_await@ 000000014007b988     libvcruntime:undname.obj
 0002:000029a0       ??_C@_0M@GAAIMMOH@operator?$DM?$DN?$DO@ 000000014007b9a0     libvcruntime:undname.obj
 0002:000029b0       ??_C@_0BC@DAFEJGAK@?5Type?5Descriptor?8@ 000000014007b9b0     libvcruntime:undname.obj
 0002:000029c8       ??_C@_0BM@LDKODKLH@?5Base?5Class?5Descriptor?5at?5?$CI@ 000000014007b9c8     libvcruntime:undname.obj
 0002:000029f0       ??_C@_0BD@LGICGFMM@?5Base?5Class?5Array?8@ 000000014007b9f0     libvcruntime:undname.obj
 0002:00002a08       ??_C@_0BN@MECKDCOJ@?5Class?5Hierarchy?5Descriptor?8@ 000000014007ba08     libvcruntime:undname.obj
 0002:00002a30       ??_C@_0BK@CFCOFLF@?5Complete?5Object?5Locator?8@ 000000014007ba30     libvcruntime:undname.obj
 0002:00002a50       ??_C@_0BG@JNJLAMPM@?$GAanonymous?5namespace?8@ 000000014007ba50     libvcruntime:undname.obj
 0002:00002a6c       ??_C@_04HEJADOOB@CV?3?5@   000000014007ba6c     libvcruntime:undname.obj
 0002:00002a74       ??_C@_02MOLJINC@?3?3@      000000014007ba74     libvcruntime:undname.obj
 0002:00002a78       ??_C@_0BE@JAEOCHPE@template?9parameter?9@ 000000014007ba78     libvcruntime:undname.obj
 0002:00002a90       ??_C@_0BF@LNLGBBNL@?$GAtemplate?9parameter?9@ 000000014007ba90     libvcruntime:undname.obj
 0002:00002ab0       ??_C@_0O@KHGCOMHP@generic?9type?9@ 000000014007bab0     libvcruntime:undname.obj
 0002:00002ac0       ??_C@_0P@ODDENDLM@?$GAgeneric?9type?9@ 000000014007bac0     libvcruntime:undname.obj
 0002:00002ad4       ??_C@_02OHHJMEON@?8?8@     000000014007bad4     libvcruntime:undname.obj
 0002:00002ad8       ??_C@_0BN@IBLMMFAP@?$GAnon?9type?9template?9parameter@ 000000014007bad8     libvcruntime:undname.obj
 0002:00002afc       ??_C@_03DLDNIBIK@?$CFlf@   000000014007bafc     libvcruntime:undname.obj
 0002:00002b00       ??_C@_04OFALKAJ@?$DP?$DP_C@ 000000014007bb00     libvcruntime:undname.obj
 0002:00002b08       ??_C@_03KHICJKCI@?4?4?4@   000000014007bb08     libvcruntime:undname.obj
 0002:00002b0c       ??_C@_04HIBGFPH@NULL@      000000014007bb0c     libvcruntime:undname.obj
 0002:00002b14       ??_C@_02DPKJAMEF@?$CFd@    000000014007bb14     libvcruntime:undname.obj
 0002:00002b18       ??_C@_0BK@IHCCFNEL@?$GAtemplate?9type?9parameter?9@ 000000014007bb18     libvcruntime:undname.obj
 0002:00002b38       ??_C@_0BK@OFCNNNKO@?$GAgeneric?9class?9parameter?9@ 000000014007bb38     libvcruntime:undname.obj
 0002:00002b58       ??_C@_0BL@NGJBLFIL@?$GAgeneric?9method?9parameter?9@ 000000014007bb58     libvcruntime:undname.obj
 0002:00002b78       ??_C@_07OHNGEDJK@nullptr@  000000014007bb78     libvcruntime:undname.obj
 0002:00002b84       ??_C@_06COJIGPIB@lambda@   000000014007bb84     libvcruntime:undname.obj
 0002:00002b8c       ??_C@_04GKJNKENE@void@     000000014007bb8c     libvcruntime:undname.obj
 0002:00002b98       ??_C@_0BE@EODMJLIF@?$GAtemplate?9parameter@ 000000014007bb98     libvcruntime:undname.obj
 0002:00002bb0       ??_C@_03OPGICMGF@?$HN?8?5@ 000000014007bbb0     libvcruntime:undname.obj
 0002:00002bb4       ??_C@_02IGFCGPIL@?$HN?8@   000000014007bbb4     libvcruntime:undname.obj
 0002:00002bb8       ??_C@_0N@CBHHHENL@?$GAvtordispex?$HL@ 000000014007bbb8     libvcruntime:undname.obj
 0002:00002bc8       ??_C@_0L@GHPFDFH@?$GAvtordisp?$HL@ 000000014007bbc8     libvcruntime:undname.obj
 0002:00002bd8       ??_C@_0L@HNGCOGAE@?$GAadjustor?$HL@ 000000014007bbd8     libvcruntime:undname.obj
 0002:00002be8       ??_C@_0CB@KJDOOODE@?$GAlocal?5static?5destructor?5helper@ 000000014007bbe8     libvcruntime:undname.obj
 0002:00002c10       ??_C@_0DB@ILEFOCIJ@?$GAtemplate?5static?5data?5member?5co@ 000000014007bc10     libvcruntime:undname.obj
 0002:00002c50       ??_C@_0DA@HGFJFBBE@?$GAtemplate?5static?5data?5member?5de@ 000000014007bc50     libvcruntime:undname.obj
 0002:00002c90       ??_C@_07PGOEDBHP@static?5@ 000000014007bc90     libvcruntime:undname.obj
 0002:00002ca0       ??_C@_08NIEOINHE@virtual?5@ 000000014007bca0     libvcruntime:undname.obj
 0002:00002cb0       ??_C@_09LAPHOOG@private?3?5@ 000000014007bcb0     libvcruntime:undname.obj
 0002:00002cc0       ??_C@_0M@GAIFPFIP@protected?3?5@ 000000014007bcc0     libvcruntime:undname.obj
 0002:00002cd0       ??_C@_08GPDDCMKI@public?3?5@ 000000014007bcd0     libvcruntime:undname.obj
 0002:00002ce0       ??_C@_08KJLFOPNE@?$FLthunk?$FN?3@ 000000014007bce0     libvcruntime:undname.obj
 0002:00002cf0       ??_C@_0M@DHNBOJMP@extern?5?$CCC?$CC?5@ 000000014007bcf0     libvcruntime:undname.obj
 0002:00002d00       ??_C@_02KCKGHPCA@?$CJ?5@   000000014007bd00     libvcruntime:undname.obj
 0002:00002d04       ??_C@_05CIHEBHNO@char?5@   000000014007bd04     libvcruntime:undname.obj
 0002:00002d0c       ??_C@_06EHJMALKF@short?5@  000000014007bd0c     libvcruntime:undname.obj
 0002:00002d14       ??_C@_04LAHKHJMA@int?5@    000000014007bd14     libvcruntime:undname.obj
 0002:00002d1c       ??_C@_05CJIMAING@long?5@   000000014007bd1c     libvcruntime:undname.obj
 0002:00002d28       ??_C@_09EBBEKKIH@unsigned?5@ 000000014007bd28     libvcruntime:undname.obj
 0002:00002d34       ??_C@_05BEFAKPML@void?5@   000000014007bd34     libvcruntime:undname.obj
 0002:00002d40       ??_C@_09GAIEOBLP@volatile?5@ 000000014007bd40     libvcruntime:undname.obj
 0002:00002d50       ??_C@_08PABEKFH@volatile@  000000014007bd50     libvcruntime:undname.obj
 0002:00002d60       ??_C@_0BA@LKIJLKPP@std?3?3nullptr_t?5@ 000000014007bd60     libvcruntime:undname.obj
 0002:00002d78       ??_C@_0P@GCOCNKDM@std?3?3nullptr_t@ 000000014007bd78     libvcruntime:undname.obj
 0002:00002d90       ??_C@_0L@EGPHHEKN@?$DMellipsis?$DO@ 000000014007bd90     libvcruntime:undname.obj
 0002:00002da0       ??_C@_04EENFHACM@?0?4?4?4@ 000000014007bda0     libvcruntime:undname.obj
 0002:00002da8       ??_C@_0M@ELJOJFFH@?0?$DMellipsis?$DO@ 000000014007bda8     libvcruntime:undname.obj
 0002:00002db8       ??_C@_09DNHFEOJI@?5noexcept@ 000000014007bdb8     libvcruntime:undname.obj
 0002:00002dc4       ??_C@_03PBJBJNON@cpu@      000000014007bdc4     libvcruntime:undname.obj
 0002:00002dc8       ??_C@_03DCBBJBAA@amp@      000000014007bdc8     libvcruntime:undname.obj
 0002:00002dcc       ??_C@_02KEGNLNML@?0?5@     000000014007bdcc     libvcruntime:undname.obj
 0002:00002dd0       ??_C@_04ENMBGAPA@char@     000000014007bdd0     libvcruntime:undname.obj
 0002:00002dd8       ??_C@_05BFKKPKCG@short@    000000014007bdd8     libvcruntime:undname.obj
 0002:00002de0       ??_C@_03JBIPMCLC@int@      000000014007bde0     libvcruntime:undname.obj
 0002:00002de4       ??_C@_04GOKPGOLB@long@     000000014007bde4     libvcruntime:undname.obj
 0002:00002dec       ??_C@_05KNFBNCOH@float@    000000014007bdec     libvcruntime:undname.obj
 0002:00002df4       ??_C@_06BNJCAIGJ@double@   000000014007bdf4     libvcruntime:undname.obj
 0002:00002dfc       ??_C@_04DDKJGDCM@bool@     000000014007bdfc     libvcruntime:undname.obj
 0002:00002e04       ??_C@_06EBGKOKIG@__int8@   000000014007be04     libvcruntime:undname.obj
 0002:00002e10       ??_C@_07ICFHOGAF@__int16@  000000014007be10     libvcruntime:undname.obj
 0002:00002e20       ??_C@_07OFLPPHGP@__int32@  000000014007be20     libvcruntime:undname.obj
 0002:00002e30       ??_C@_07LFCOJCAC@__int64@  000000014007be30     libvcruntime:undname.obj
 0002:00002e40       ??_C@_08GAHOLHEO@__int128@ 000000014007be40     libvcruntime:undname.obj
 0002:00002e50       ??_C@_09EEKGDCPH@?$DMunknown?$DO@ 000000014007be50     libvcruntime:undname.obj
 0002:00002e60       ??_C@_07CFHGOPCN@char8_t@  000000014007be60     libvcruntime:undname.obj
 0002:00002e70       ??_C@_08HBIPOFJB@char16_t@ 000000014007be70     libvcruntime:undname.obj
 0002:00002e80       ??_C@_08IECNCBKG@char32_t@ 000000014007be80     libvcruntime:undname.obj
 0002:00002e90       ??_C@_07CLGGIAMF@wchar_t@  000000014007be90     libvcruntime:undname.obj
 0002:00002e9c       ??_C@_04HAPDLBFF@auto@     000000014007be9c     libvcruntime:undname.obj
 0002:00002ea8       ??_C@_0P@LHCGKIGK@decltype?$CIauto?$CJ@ 000000014007bea8     libvcruntime:undname.obj
 0002:00002ebc       ??_C@_05PCNBGHCF@this?5@   000000014007bebc     libvcruntime:undname.obj
 0002:00002ec4       ??_C@_06GCICPBLB@__w64?5@  000000014007bec4     libvcruntime:undname.obj
 0002:00002ed0       ??_C@_07NFANNNEC@UNKNOWN@  000000014007bed0     libvcruntime:undname.obj
 0002:00002ee0       ??_C@_07EDHNAJHC@signed?5@ 000000014007bee0     libvcruntime:undname.obj
 0002:00002eec       ??_C@_05BNCCCJPP@const@    000000014007beec     libvcruntime:undname.obj
 0002:00002ef8       ??_C@_09EFNPDFFP@?5volatile@ 000000014007bef8     libvcruntime:undname.obj
 0002:00002f08       ??_C@_0P@GCIFDJCJ@?$GAunknown?5ecsu?8@ 000000014007bf08     libvcruntime:undname.obj
 0002:00002f1c       ??_C@_06MOJHIBMG@union?5@  000000014007bf1c     libvcruntime:undname.obj
 0002:00002f28       ??_C@_07DIBCDNGL@struct?5@ 000000014007bf28     libvcruntime:undname.obj
 0002:00002f34       ??_C@_06LJBABKPM@class?5@  000000014007bf34     libvcruntime:undname.obj
 0002:00002f40       ??_C@_08KOFANOFK@coclass?5@ 000000014007bf40     libvcruntime:undname.obj
 0002:00002f50       ??_C@_0N@DLIEFKNA@cointerface?5@ 000000014007bf50     libvcruntime:undname.obj
 0002:00002f60       ??_C@_05LJGMCFOG@enum?5@   000000014007bf60     libvcruntime:undname.obj
 0002:00002f68       ??_C@_06LIJLOJAG@const?5@  000000014007bf68     libvcruntime:undname.obj
 0002:00002f70       ??_C@_02KJPKDIBN@?$CG?5@   000000014007bf70     libvcruntime:undname.obj
 0002:00002f74       ??_C@_03PCKGMOPB@?$CG?$CG?5@ 000000014007bf74     libvcruntime:undname.obj
 0002:00002f78       ??_C@_0M@EALIELKG@cli?3?3array?$DM@ 000000014007bf78     libvcruntime:undname.obj
 0002:00002f88       ??_C@_0O@GKABPPIF@cli?3?3pin_ptr?$DM@ 000000014007bf88     libvcruntime:undname.obj
 0002:00002f98       ??_C@_02GOGNNPBN@?$CJ?$FL@ 000000014007bf98     libvcruntime:undname.obj
 0002:00002f9c       ??_C@_06EEGAIFAK@?$HLflat?$HN@ 000000014007bf9c     libvcruntime:undname.obj
 0002:00002fa4       ??_C@_05JIBOFOHK@?$HLfor?5@ 000000014007bfa4     libvcruntime:undname.obj
 0002:00002fac       ??_C@_02MDINNEEG@s?5@      000000014007bfac     libvcruntime:undname.obj
 0002:00002fb8       ??_7DNameNode@@6B@         000000014007bfb8     libvcruntime:undname.obj
 0002:00002fe8       ??_7charNode@@6B@          000000014007bfe8     libvcruntime:undname.obj
 0002:00003018       ??_7pcharNode@@6B@         000000014007c018     libvcruntime:undname.obj
 0002:00003048       ??_7pDNameNode@@6B@        000000014007c048     libvcruntime:undname.obj
 0002:00003078       ??_7DNameStatusNode@@6B@   000000014007c078     libvcruntime:undname.obj
 0002:000030a8       ??_7pairNode@@6B@          000000014007c0a8     libvcruntime:undname.obj
 0002:00003204       ??_C@_04OKOHEJBO@?5?$DP?$DP?5@ 000000014007c204     libvcruntime:undname.obj
 0002:00003210       ?nodes@?1??make@DNameStatusNode@@SAPEBV2@W4DNameStatus@@@Z@4QBV2@B 000000014007c210     libvcruntime:undname.obj
 0002:00003280       ??_C@_1DM@KHCHBNEB@?$AAa?$AAp?$AAi?$AA?9?$AAm?$AAs?$AA?9?$AAw?$AAi?$AAn?$AA?9?$AAc?$AAo?$AAr?$AAe@ 000000014007c280     libvcruntime:winapi_downlevel.obj
 0002:000032c8       ??_C@_1DK@LPPGFMPP@?$AAa?$AAp?$AAi?$AA?9?$AAm?$AAs?$AA?9?$AAw?$AAi?$AAn?$AA?9?$AAc?$AAo?$AAr?$AAe@ 000000014007c2c8     libvcruntime:winapi_downlevel.obj
 0002:00003310       ??_C@_1BC@GDMECMAK@?$AAk?$AAe?$AAr?$AAn?$AAe?$AAl?$AA3?$AA2@ 000000014007c310     libvcruntime:winapi_downlevel.obj
 0002:00003328       ??_C@_1BA@PFFKHIOG@?$AAa?$AAp?$AAi?$AA?9?$AAm?$AAs?$AA?9@ 000000014007c328     libvcruntime:winapi_downlevel.obj
 0002:00003350       ??_C@_08KNHFBNJ@FlsAlloc@  000000014007c350     libvcruntime:winapi_downlevel.obj
 0002:00003370       ??_C@_07PEJMOBNF@FlsFree@  000000014007c370     libvcruntime:winapi_downlevel.obj
 0002:00003390       ??_C@_0M@GDNOONDI@FlsGetValue@ 000000014007c390     libvcruntime:winapi_downlevel.obj
 0002:000033b0       ??_C@_0M@JCPCPOEF@FlsSetValue@ 000000014007c3b0     libvcruntime:winapi_downlevel.obj
 0002:000033d0       ??_C@_0BM@HCFOFFN@InitializeCriticalSectionEx@ 000000014007c3d0     libvcruntime:winapi_downlevel.obj
 0002:000033f8       ?s_negLengthTab@FH4@@3QBCB 000000014007c3f8     libvcruntime:risctrnsctrl.obj
 0002:00003410       ?s_shiftTab@FH4@@3QBEB     000000014007c410     libvcruntime:risctrnsctrl.obj
 0002:000035b0       ??_7exception@std@@6B@     000000014007c5b0     libvcruntime:frame.obj
 0002:000035c8       ??_C@_0BC@EOODALEL@Unknown?5exception@ 000000014007c5c8     libvcruntime:frame.obj
 0002:000035e8       ??_7bad_exception@std@@6B@ 000000014007c5e8     libvcruntime:frame.obj
 0002:00003600       ??_C@_0O@DPKOEFFH@bad?5exception@ 000000014007c600     libvcruntime:frame.obj
 0002:00003610       ?standard_lookup_table_spectre@__crt_stdio_output@@3V?$spectre_mitigated_lookup_table@Ustate_transition_pair@__crt_stdio_output@@$0IA@@1@B 000000014007c610     libucrt:output.obj
 0002:00003ae0       ?format_validation_lookup_table_spectre@__crt_stdio_output@@3V?$spectre_mitigated_lookup_table@Ustate_transition_pair@__crt_stdio_output@@$0IA@@1@B 000000014007cae0     libucrt:output.obj
 0002:00003fb0       ??_C@_1O@CEDCILHN@?$AA?$CI?$AAn?$AAu?$AAl?$AAl?$AA?$CJ@ 000000014007cfb0     libucrt:output.obj
 0002:00003fc0       ??_C@_06OJHGLDPL@?$CInull?$CJ@ 000000014007cfc0     libucrt:output.obj
 0002:0000406c       ??_C@_05OOAOEJGP@fmodf@    000000014007d06c     libucrt:fmodf.obj
 0002:00004080       __xmm@80000000000000008000000000000000 000000014007d080     libucrt:fmodf.obj
 0002:000040a0       __acrt_exception_action_table 000000014007d0a0     libucrt:exception_filter.obj
 0002:00004188       __acrt_signal_action_table_count 000000014007d188     libucrt:exception_filter.obj
 0002:00004198       __acrt_signal_action_table_size 000000014007d198     libucrt:exception_filter.obj
 0002:000041a8       __acrt_signal_action_first_fpe_index 000000014007d1a8     libucrt:exception_filter.obj
 0002:000041b8       __acrt_signal_action_fpe_count 000000014007d1b8     libucrt:exception_filter.obj
 0002:000041c8       ??_C@_1DE@JNGNBFGO@?$AAR?$AAu?$AAn?$AAt?$AAi?$AAm?$AAe?$AA?5?$AAE?$AAr?$AAr?$AAo?$AAr?$AA?$CB?$AA?6@ 000000014007d1c8     libucrt:report_runtime_error.obj
 0002:00004208       ??_C@_1CO@EAEJAADC@?$AA?$DM?$AAp?$AAr?$AAo?$AAg?$AAr?$AAa?$AAm?$AA?5?$AAn?$AAa?$AAm?$AAe?$AA?5?$AAu@ 000000014007d208     libucrt:report_runtime_error.obj
 0002:00004240       ??_C@_17LGKOMLJ@?$AA?4?$AA?4?$AA?4@ 000000014007d240     libucrt:report_runtime_error.obj
 0002:0000424c       ??_C@_15IABLJNFO@?$AA?6?$AA?6@ 000000014007d24c     libucrt:report_runtime_error.obj
 0002:00004260       ??_C@_1EK@MBDPDCGA@?$AAM?$AAi?$AAc?$AAr?$AAo?$AAs?$AAo?$AAf?$AAt?$AA?5?$AAV?$AAi?$AAs?$AAu?$AAa@ 000000014007d260     libucrt:report_runtime_error.obj
 0002:000042b8       RtlNtPathSeperatorString   000000014007d2b8     libucrt:exit.obj
 0002:000042cc       ??_C@_13FPGAJAPJ@?$AA?2@   000000014007d2cc     libucrt:exit.obj
 0002:000042d0       RtlDosPathSeperatorsString 000000014007d2d0     libucrt:exit.obj
 0002:000042e4       ??_C@_15MNCACJLI@?$AA?2?$AA?1@ 000000014007d2e4     libucrt:exit.obj
 0002:000042f0       RtlAlternateDosPathSeperatorString 000000014007d2f0     libucrt:exit.obj
 0002:00004304       ??_C@_13CGOKJPIL@?$AA?1@   000000014007d304     libucrt:exit.obj
 0002:00004308       ??_C@_1BI@BGOHAHKC@?$AAm?$AAs?$AAc?$AAo?$AAr?$AAe?$AAe?$AA?4?$AAd?$AAl?$AAl@ 000000014007d308     libucrt:exit.obj
 0002:00004328       ??_C@_0P@MIGLKIOC@CorExitProcess@ 000000014007d328     libucrt:exit.obj
 0002:000043e0       __lc_category              000000014007d3e0     libucrt:wsetlocale.obj
 0002:00004490       ??_C@_1O@GIFLHMA@?$AAL?$AAC?$AA_?$AAA?$AAL?$AAL@ 000000014007d490     libucrt:wsetlocale.obj
 0002:000044a0       ??_C@_1BG@PPOMIBNJ@?$AAL?$AAC?$AA_?$AAC?$AAO?$AAL?$AAL?$AAA?$AAT?$AAE@ 000000014007d4a0     libucrt:wsetlocale.obj
 0002:000044c0       ??_C@_1BC@FFJGAPJM@?$AAL?$AAC?$AA_?$AAC?$AAT?$AAY?$AAP?$AAE@ 000000014007d4c0     libucrt:wsetlocale.obj
 0002:000044d8       ??_C@_1BI@PCKFNJFB@?$AAL?$AAC?$AA_?$AAM?$AAO?$AAN?$AAE?$AAT?$AAA?$AAR?$AAY@ 000000014007d4d8     libucrt:wsetlocale.obj
 0002:000044f8       ??_C@_1BG@ENIEDKID@?$AAL?$AAC?$AA_?$AAN?$AAU?$AAM?$AAE?$AAR?$AAI?$AAC@ 000000014007d4f8     libucrt:wsetlocale.obj
 0002:00004518       ??_C@_1BA@HAAOMIIG@?$AAL?$AAC?$AA_?$AAT?$AAI?$AAM?$AAE@ 000000014007d518     libucrt:wsetlocale.obj
 0002:0000452c       ??_C@_15NBPDDFIP@?$AA?$DN?$AA?$DL@ 000000014007d52c     libucrt:wsetlocale.obj
 0002:00004534       ??_C@_13PJJBFPED@?$AA?$DL@ 000000014007d534     libucrt:wsetlocale.obj
 0002:00004538       ??_C@_13NMPKAAJP@?$AA?$DN@ 000000014007d538     libucrt:wsetlocale.obj
 0002:0000453c       ??_C@_13IMODFHAA@?$AA?9@   000000014007d53c     libucrt:wsetlocale.obj
 0002:00004540       ??_C@_17EFJLDFDO@?$AA?9?$AA_?$AA?4@ 000000014007d540     libucrt:wsetlocale.obj
 0002:0000454c       ??_C@_13FHBKNHDA@?$AAC@    000000014007d54c     libucrt:wsetlocale.obj
 0002:00004550       ??_C@_17MBJJLFDM@?$AA_?$AA?4?$AA?0@ 000000014007d550     libucrt:wsetlocale.obj
 0002:0000455c       ??_C@_13ENNFDPBH@?$AA_@    000000014007d55c     libucrt:wsetlocale.obj
 0002:00004560       ??_C@_13JOFGPIOO@?$AA?4@   000000014007d560     libucrt:wsetlocale.obj
 0002:000046a8       _Fenv1                     000000014007d6a8     libucrt:atox.obj
 0002:0000490c       ??_C@_03OEIAHPBN@INF@      000000014007d90c     libucrt:cvt.obj
 0002:00004910       ??_C@_03OJHLLCGB@inf@      000000014007d910     libucrt:cvt.obj
 0002:00004914       ??_C@_03LKNCIKJB@NAN@      000000014007d914     libucrt:cvt.obj
 0002:00004918       ??_C@_03LHCJEHON@nan@      000000014007d918     libucrt:cvt.obj
 0002:00004920       ??_C@_09OFJJIMPC@NAN?$CISNAN?$CJ@ 000000014007d920     libucrt:cvt.obj
 0002:00004930       ??_C@_09IPFBKMDL@nan?$CIsnan?$CJ@ 000000014007d930     libucrt:cvt.obj
 0002:00004940       ??_C@_08IKHNHAJ@NAN?$CIIND?$CJ@ 000000014007d940     libucrt:cvt.obj
 0002:00004950       ??_C@_08OFCDMILK@nan?$CIind?$CJ@ 000000014007d950     libucrt:cvt.obj
 0002:0000495c       ??_C@_05KLBDPFGC@e?$CL000@ 000000014007d95c     libucrt:cvt.obj
 0002:00004970       __lc_time_c                000000014007d970     libucrt:nlsdata.obj
 0002:00004cbc       ??_C@_03KOEHGMDN@Sun@      000000014007dcbc     libucrt:nlsdata.obj
 0002:00004cc0       ??_C@_03PDAGKDH@Mon@       000000014007dcc0     libucrt:nlsdata.obj
 0002:00004cc4       ??_C@_03NAGEINEP@Tue@      000000014007dcc4     libucrt:nlsdata.obj
 0002:00004cc8       ??_C@_03MHOMLAJA@Wed@      000000014007dcc8     libucrt:nlsdata.obj
 0002:00004ccc       ??_C@_03IOFIKPDN@Thu@      000000014007dccc     libucrt:nlsdata.obj
 0002:00004cd0       ??_C@_03IDIOELNC@Fri@      000000014007dcd0     libucrt:nlsdata.obj
 0002:00004cd4       ??_C@_03FEFJNEK@Sat@       000000014007dcd4     libucrt:nlsdata.obj
 0002:00004cd8       ??_C@_06OOPIFAJ@Sunday@    000000014007dcd8     libucrt:nlsdata.obj
 0002:00004ce0       ??_C@_06JLEDEDGH@Monday@   000000014007dce0     libucrt:nlsdata.obj
 0002:00004ce8       ??_C@_07BAAGCFCM@Tuesday@  000000014007dce8     libucrt:nlsdata.obj
 0002:00004cf8       ??_C@_09DLIGFAKA@Wednesday@ 000000014007dcf8     libucrt:nlsdata.obj
 0002:00004d08       ??_C@_08HACCIKIA@Thursday@ 000000014007dd08     libucrt:nlsdata.obj
 0002:00004d14       ??_C@_06JECMNKMI@Friday@   000000014007dd14     libucrt:nlsdata.obj
 0002:00004d20       ??_C@_08INBOOONO@Saturday@ 000000014007dd20     libucrt:nlsdata.obj
 0002:00004d2c       ??_C@_03JIHJHPIE@Jan@      000000014007dd2c     libucrt:nlsdata.obj
 0002:00004d30       ??_C@_03HJBDCHOM@Feb@      000000014007dd30     libucrt:nlsdata.obj
 0002:00004d34       ??_C@_03ODNJBKGA@Mar@      000000014007dd34     libucrt:nlsdata.obj
 0002:00004d38       ??_C@_03LEOLGMJP@Apr@      000000014007dd38     libucrt:nlsdata.obj
 0002:00004d3c       ??_C@_03CNMDKL@May@        000000014007dd3c     libucrt:nlsdata.obj
 0002:00004d40       ??_C@_03IDFGHECI@Jun@      000000014007dd40     libucrt:nlsdata.obj
 0002:00004d44       ??_C@_03LBGABGKK@Jul@      000000014007dd44     libucrt:nlsdata.obj
 0002:00004d48       ??_C@_03IFJFEIGA@Aug@      000000014007dd48     libucrt:nlsdata.obj
 0002:00004d4c       ??_C@_03GGCAPAJC@Sep@      000000014007dd4c     libucrt:nlsdata.obj
 0002:00004d50       ??_C@_03BMAOKBAD@Oct@      000000014007dd50     libucrt:nlsdata.obj
 0002:00004d54       ??_C@_03JPJOFNIA@Nov@      000000014007dd54     libucrt:nlsdata.obj
 0002:00004d58       ??_C@_03MKABNOCG@Dec@      000000014007dd58     libucrt:nlsdata.obj
 0002:00004d60       ??_C@_07CGJPFGJA@January@  000000014007dd60     libucrt:nlsdata.obj
 0002:00004d70       ??_C@_08GNJGEPFN@February@ 000000014007dd70     libucrt:nlsdata.obj
 0002:00004d7c       ??_C@_05HPCKOFNC@March@    000000014007dd7c     libucrt:nlsdata.obj
 0002:00004d84       ??_C@_05DMJDNLEJ@April@    000000014007dd84     libucrt:nlsdata.obj
 0002:00004d8c       ??_C@_04CNLMGBGM@June@     000000014007dd8c     libucrt:nlsdata.obj
 0002:00004d94       ??_C@_04MIEPOIFP@July@     000000014007dd94     libucrt:nlsdata.obj
 0002:00004d9c       ??_C@_06LBBHFDDG@August@   000000014007dd9c     libucrt:nlsdata.obj
 0002:00004da8       ??_C@_09BHHEALKD@September@ 000000014007dda8     libucrt:nlsdata.obj
 0002:00004db8       ??_C@_07JJNFCEND@October@  000000014007ddb8     libucrt:nlsdata.obj
 0002:00004dc8       ??_C@_08HCHEGEOA@November@ 000000014007ddc8     libucrt:nlsdata.obj
 0002:00004dd8       ??_C@_08EDHMEBNP@December@ 000000014007ddd8     libucrt:nlsdata.obj
 0002:00004de4       ??_C@_02DEDBPAFC@AM@       000000014007dde4     libucrt:nlsdata.obj
 0002:00004de8       ??_C@_02CJNFDJBF@PM@       000000014007dde8     libucrt:nlsdata.obj
 0002:00004df0       ??_C@_08BPBNCDIB@MM?1dd?1yy@ 000000014007ddf0     libucrt:nlsdata.obj
 0002:00004e00       ??_C@_0BE@CKGJFCPC@dddd?0?5MMMM?5dd?0?5yyyy@ 000000014007de00     libucrt:nlsdata.obj
 0002:00004e18       ??_C@_08JCCMCCIL@HH?3mm?3ss@ 000000014007de18     libucrt:nlsdata.obj
 0002:00004e28       ??_C@_17MBGCMIPB@?$AAS?$AAu?$AAn@ 000000014007de28     libucrt:nlsdata.obj
 0002:00004e38       ??_C@_17KBOMKBF@?$AAM?$AAo?$AAn@ 000000014007de38     libucrt:nlsdata.obj
 0002:00004e48       ??_C@_17BMKGEGOJ@?$AAT?$AAu?$AAe@ 000000014007de48     libucrt:nlsdata.obj
 0002:00004e58       ??_C@_17CJEDCEPE@?$AAW?$AAe?$AAd@ 000000014007de58     libucrt:nlsdata.obj
 0002:00004e68       ??_C@_17PDPHAADD@?$AAT?$AAh?$AAu@ 000000014007de68     libucrt:nlsdata.obj
 0002:00004e78       ??_C@_17HFOLPPLP@?$AAF?$AAr?$AAi@ 000000014007de78     libucrt:nlsdata.obj
 0002:00004e88       ??_C@_17GGIBDPIH@?$AAS?$AAa?$AAt@ 000000014007de88     libucrt:nlsdata.obj
 0002:00004e98       ??_C@_1O@IHNHDHPB@?$AAS?$AAu?$AAn?$AAd?$AAa?$AAy@ 000000014007de98     libucrt:nlsdata.obj
 0002:00004ea8       ??_C@_1O@MMNBFLIA@?$AAM?$AAo?$AAn?$AAd?$AAa?$AAy@ 000000014007dea8     libucrt:nlsdata.obj
 0002:00004eb8       ??_C@_1BA@ENFBFFEK@?$AAT?$AAu?$AAe?$AAs?$AAd?$AAa?$AAy@ 000000014007deb8     libucrt:nlsdata.obj
 0002:00004ed0       ??_C@_1BE@EBOGMDOH@?$AAW?$AAe?$AAd?$AAn?$AAe?$AAs?$AAd?$AAa?$AAy@ 000000014007ded0     libucrt:nlsdata.obj
 0002:00004ee8       ??_C@_1BC@HHMNLIHE@?$AAT?$AAh?$AAu?$AAr?$AAs?$AAd?$AAa?$AAy@ 000000014007dee8     libucrt:nlsdata.obj
 0002:00004f00       ??_C@_1O@PDICJHAG@?$AAF?$AAr?$AAi?$AAd?$AAa?$AAy@ 000000014007df00     libucrt:nlsdata.obj
 0002:00004f10       ??_C@_1BC@ENMNNPAJ@?$AAS?$AAa?$AAt?$AAu?$AAr?$AAd?$AAa?$AAy@ 000000014007df10     libucrt:nlsdata.obj
 0002:00004f28       ??_C@_17DKNBKCHM@?$AAJ?$AAa?$AAn@ 000000014007df28     libucrt:nlsdata.obj
 0002:00004f38       ??_C@_17LMDJEKJN@?$AAF?$AAe?$AAb@ 000000014007df38     libucrt:nlsdata.obj
 0002:00004f48       ??_C@_17CKNLEDEC@?$AAM?$AAa?$AAr@ 000000014007df48     libucrt:nlsdata.obj
 0002:00004f58       ??_C@_17LFPOIHDD@?$AAA?$AAp?$AAr@ 000000014007df58     libucrt:nlsdata.obj
 0002:00004f68       ??_C@_17PNNKMEED@?$AAM?$AAa?$AAy@ 000000014007df68     libucrt:nlsdata.obj
 0002:00004f78       ??_C@_17KCJGOCPB@?$AAJ?$AAu?$AAn@ 000000014007df78     libucrt:nlsdata.obj
 0002:00004f88       ??_C@_17IJPCKHK@?$AAJ?$AAu?$AAl@ 000000014007df88     libucrt:nlsdata.obj
 0002:00004f98       ??_C@_17ICPELBCN@?$AAA?$AAu?$AAg@ 000000014007df98     libucrt:nlsdata.obj
 0002:00004fa8       ??_C@_17HCHCOKMG@?$AAS?$AAe?$AAp@ 000000014007dfa8     libucrt:nlsdata.obj
 0002:00004fb8       ??_C@_17FNLKOI@?$AAO?$AAc?$AAt@ 000000014007dfb8     libucrt:nlsdata.obj
 0002:00004fc8       ??_C@_17BBDMLCIG@?$AAN?$AAo?$AAv@ 000000014007dfc8     libucrt:nlsdata.obj
 0002:00004fd8       ??_C@_17EGKACKIF@?$AAD?$AAe?$AAc@ 000000014007dfd8     libucrt:nlsdata.obj
 0002:00004fe8       ??_C@_1BA@EFMEIEBA@?$AAJ?$AAa?$AAn?$AAu?$AAa?$AAr?$AAy@ 000000014007dfe8     libucrt:nlsdata.obj
 0002:00005000       ??_C@_1BC@JGDDFFAM@?$AAF?$AAe?$AAb?$AAr?$AAu?$AAa?$AAr?$AAy@ 000000014007e000     libucrt:nlsdata.obj
 0002:00005018       ??_C@_1M@IKEENEDF@?$AAM?$AAa?$AAr?$AAc?$AAh@ 000000014007e018     libucrt:nlsdata.obj
 0002:00005028       ??_C@_1M@GJNLMHFD@?$AAA?$AAp?$AAr?$AAi?$AAl@ 000000014007e028     libucrt:nlsdata.obj
 0002:00005038       ??_C@_19EPFLPGAP@?$AAJ?$AAu?$AAn?$AAe@ 000000014007e038     libucrt:nlsdata.obj
 0002:00005048       ??_C@_19BIFMLPCD@?$AAJ?$AAu?$AAl?$AAy@ 000000014007e048     libucrt:nlsdata.obj
 0002:00005058       ??_C@_1O@PAHLKOAC@?$AAA?$AAu?$AAg?$AAu?$AAs?$AAt@ 000000014007e058     libucrt:nlsdata.obj
 0002:00005068       ??_C@_1BE@DKAAMBJL@?$AAS?$AAe?$AAp?$AAt?$AAe?$AAm?$AAb?$AAe?$AAr@ 000000014007e068     libucrt:nlsdata.obj
 0002:00005080       ??_C@_1BA@EPANDLNG@?$AAO?$AAc?$AAt?$AAo?$AAb?$AAe?$AAr@ 000000014007e080     libucrt:nlsdata.obj
 0002:00005098       ??_C@_1BC@BGLIFPF@?$AAN?$AAo?$AAv?$AAe?$AAm?$AAb?$AAe?$AAr@ 000000014007e098     libucrt:nlsdata.obj
 0002:000050b0       ??_C@_1BC@FEMKIFH@?$AAD?$AAe?$AAc?$AAe?$AAm?$AAb?$AAe?$AAr@ 000000014007e0b0     libucrt:nlsdata.obj
 0002:000050c8       ??_C@_15ODEHAHHF@?$AAA?$AAM@ 000000014007e0c8     libucrt:nlsdata.obj
 0002:000050d0       ??_C@_15CLMNNGEL@?$AAP?$AAM@ 000000014007e0d0     libucrt:nlsdata.obj
 0002:000050d8       ??_C@_1BC@IEBCMHCM@?$AAM?$AAM?$AA?1?$AAd?$AAd?$AA?1?$AAy?$AAy@ 000000014007e0d8     libucrt:nlsdata.obj
 0002:000050f0       ??_C@_1CI@KNAKOEBC@?$AAd?$AAd?$AAd?$AAd?$AA?0?$AA?5?$AAM?$AAM?$AAM?$AAM?$AA?5?$AAd?$AAd?$AA?0?$AA?5@ 000000014007e0f0     libucrt:nlsdata.obj
 0002:00005120       ??_C@_1BC@GDGBMEMK@?$AAH?$AAH?$AA?3?$AAm?$AAm?$AA?3?$AAs?$AAs@ 000000014007e120     libucrt:nlsdata.obj
 0002:00005138       ??_C@_1M@BMHNFIME@?$AAe?$AAn?$AA?9?$AAU?$AAS@ 000000014007e138     libucrt:nlsdata.obj
 0002:00005170       ??_C@_1M@HPNHIDJI@?$AAj?$AAa?$AA?9?$AAJ?$AAP@ 000000014007e170     libucrt:mbctype.obj
 0002:00005180       ??_C@_1M@BIBDDEMK@?$AAz?$AAh?$AA?9?$AAC?$AAN@ 000000014007e180     libucrt:mbctype.obj
 0002:00005190       ??_C@_1M@JLOOOEGK@?$AAk?$AAo?$AA?9?$AAK?$AAR@ 000000014007e190     libucrt:mbctype.obj
 0002:000051a0       ??_C@_1M@CLNBBOPM@?$AAz?$AAh?$AA?9?$AAT?$AAW@ 000000014007e1a0     libucrt:mbctype.obj
 0002:000051b0       __newctype                 000000014007e1b0     libucrt:ctype.obj
 0002:00005550       __newclmap                 000000014007e550     libucrt:ctype.obj
 0002:00005720       __newcumap                 000000014007e720     libucrt:ctype.obj
 0002:000058f0       _wctype                    000000014007e8f0     libucrt:ctype.obj
 0002:00005b60       __acrt_rg_language         000000014007eb60     libucrt:get_qualified_locale.obj
 0002:00006040       __acrt_rg_language_count   000000014007f040     libucrt:get_qualified_locale.obj
 0002:00006050       __acrt_rg_country          000000014007f050     libucrt:get_qualified_locale.obj
 0002:00006210       __acrt_rg_country_count    000000014007f210     libucrt:get_qualified_locale.obj
 0002:00006220       ??_C@_1BC@LLOKLNP@?$AAa?$AAm?$AAe?$AAr?$AAi?$AAc?$AAa?$AAn@ 000000014007f220     libucrt:get_qualified_locale.obj
 0002:00006238       ??_C@_1CC@HEIGCDGG@?$AAa?$AAm?$AAe?$AAr?$AAi?$AAc?$AAa?$AAn?$AA?5?$AAe?$AAn?$AAg?$AAl?$AAi?$AAs@ 000000014007f238     libucrt:get_qualified_locale.obj
 0002:00006260       ??_C@_1CC@IHCNOMIN@?$AAa?$AAm?$AAe?$AAr?$AAi?$AAc?$AAa?$AAn?$AA?9?$AAe?$AAn?$AAg?$AAl?$AAi?$AAs@ 000000014007f260     libucrt:get_qualified_locale.obj
 0002:00006288       ??_C@_1BG@GKAGPCGG@?$AAa?$AAu?$AAs?$AAt?$AAr?$AAa?$AAl?$AAi?$AAa?$AAn@ 000000014007f288     libucrt:get_qualified_locale.obj
 0002:000062a8       ??_C@_1BA@GMENCENF@?$AAb?$AAe?$AAl?$AAg?$AAi?$AAa?$AAn@ 000000014007f2a8     libucrt:get_qualified_locale.obj
 0002:000062c0       ??_C@_1BC@PJMIIAAN@?$AAc?$AAa?$AAn?$AAa?$AAd?$AAi?$AAa?$AAn@ 000000014007f2c0     libucrt:get_qualified_locale.obj
 0002:000062d8       ??_C@_17NOIMNFBF@?$AAc?$AAh?$AAh@ 000000014007f2d8     libucrt:get_qualified_locale.obj
 0002:000062e8       ??_C@_17GGDALCHA@?$AAc?$AAh?$AAi@ 000000014007f2e8     libucrt:get_qualified_locale.obj
 0002:000062f8       ??_C@_1BA@NPNJKIBL@?$AAc?$AAh?$AAi?$AAn?$AAe?$AAs?$AAe@ 000000014007f2f8     libucrt:get_qualified_locale.obj
 0002:00006310       ??_C@_1CC@DINBAMMJ@?$AAc?$AAh?$AAi?$AAn?$AAe?$AAs?$AAe?$AA?9?$AAh?$AAo?$AAn?$AAg?$AAk?$AAo?$AAn@ 000000014007f310     libucrt:get_qualified_locale.obj
 0002:00006338       ??_C@_1CG@IOBJPACO@?$AAc?$AAh?$AAi?$AAn?$AAe?$AAs?$AAe?$AA?9?$AAs?$AAi?$AAm?$AAp?$AAl?$AAi?$AAf@ 000000014007f338     libucrt:get_qualified_locale.obj
 0002:00006368       ??_C@_1CE@GAJNDCKG@?$AAc?$AAh?$AAi?$AAn?$AAe?$AAs?$AAe?$AA?9?$AAs?$AAi?$AAn?$AAg?$AAa?$AAp?$AAo@ 000000014007f368     libucrt:get_qualified_locale.obj
 0002:00006398       ??_C@_1CI@PAJPIOOD@?$AAc?$AAh?$AAi?$AAn?$AAe?$AAs?$AAe?$AA?9?$AAt?$AAr?$AAa?$AAd?$AAi?$AAt?$AAi@ 000000014007f398     libucrt:get_qualified_locale.obj
 0002:000063c8       ??_C@_1BM@NILJBMMD@?$AAd?$AAu?$AAt?$AAc?$AAh?$AA?9?$AAb?$AAe?$AAl?$AAg?$AAi?$AAa?$AAn@ 000000014007f3c8     libucrt:get_qualified_locale.obj
 0002:000063f0       ??_C@_1CC@OOJPJNEJ@?$AAe?$AAn?$AAg?$AAl?$AAi?$AAs?$AAh?$AA?9?$AAa?$AAm?$AAe?$AAr?$AAi?$AAc?$AAa@ 000000014007f3f0     libucrt:get_qualified_locale.obj
 0002:00006418       ??_C@_1BI@IOLFEEM@?$AAe?$AAn?$AAg?$AAl?$AAi?$AAs?$AAh?$AA?9?$AAa?$AAu?$AAs@ 000000014007f418     libucrt:get_qualified_locale.obj
 0002:00006438       ??_C@_1BO@HFFNLENJ@?$AAe?$AAn?$AAg?$AAl?$AAi?$AAs?$AAh?$AA?9?$AAb?$AAe?$AAl?$AAi?$AAz?$AAe@ 000000014007f438     libucrt:get_qualified_locale.obj
 0002:00006460       ??_C@_1BI@HAPKJMPO@?$AAe?$AAn?$AAg?$AAl?$AAi?$AAs?$AAh?$AA?9?$AAc?$AAa?$AAn@ 000000014007f460     libucrt:get_qualified_locale.obj
 0002:00006480       ??_C@_1CE@HLNDMIOJ@?$AAe?$AAn?$AAg?$AAl?$AAi?$AAs?$AAh?$AA?9?$AAc?$AAa?$AAr?$AAi?$AAb?$AAb?$AAe@ 000000014007f480     libucrt:get_qualified_locale.obj
 0002:000064b0       ??_C@_1BI@LDHJHHAC@?$AAe?$AAn?$AAg?$AAl?$AAi?$AAs?$AAh?$AA?9?$AAi?$AAr?$AAe@ 000000014007f4b0     libucrt:get_qualified_locale.obj
 0002:000064d0       ??_C@_1CA@NJMMCFOC@?$AAe?$AAn?$AAg?$AAl?$AAi?$AAs?$AAh?$AA?9?$AAj?$AAa?$AAm?$AAa?$AAi?$AAc?$AAa@ 000000014007f4d0     libucrt:get_qualified_locale.obj
 0002:000064f8       ??_C@_1BG@BHJEBBGG@?$AAe?$AAn?$AAg?$AAl?$AAi?$AAs?$AAh?$AA?9?$AAn?$AAz@ 000000014007f4f8     libucrt:get_qualified_locale.obj
 0002:00006518       ??_C@_1CK@FGOEJJCO@?$AAe?$AAn?$AAg?$AAl?$AAi?$AAs?$AAh?$AA?9?$AAs?$AAo?$AAu?$AAt?$AAh?$AA?5?$AAa@ 000000014007f518     libucrt:get_qualified_locale.obj
 0002:00006550       ??_C@_1DE@PDBJPCJ@?$AAe?$AAn?$AAg?$AAl?$AAi?$AAs?$AAh?$AA?9?$AAt?$AAr?$AAi?$AAn?$AAi?$AAd?$AAa@ 000000014007f550     libucrt:get_qualified_locale.obj
 0002:00006590       ??_C@_1BG@JGCANDME@?$AAe?$AAn?$AAg?$AAl?$AAi?$AAs?$AAh?$AA?9?$AAu?$AAk@ 000000014007f590     libucrt:get_qualified_locale.obj
 0002:000065b0       ??_C@_1BG@DINKMLE@?$AAe?$AAn?$AAg?$AAl?$AAi?$AAs?$AAh?$AA?9?$AAu?$AAs@ 000000014007f5b0     libucrt:get_qualified_locale.obj
 0002:000065d0       ??_C@_1BI@NMFDBHJE@?$AAe?$AAn?$AAg?$AAl?$AAi?$AAs?$AAh?$AA?9?$AAu?$AAs?$AAa@ 000000014007f5d0     libucrt:get_qualified_locale.obj
 0002:000065f0       ??_C@_1BO@OIHKJKII@?$AAf?$AAr?$AAe?$AAn?$AAc?$AAh?$AA?9?$AAb?$AAe?$AAl?$AAg?$AAi?$AAa?$AAn@ 000000014007f5f0     libucrt:get_qualified_locale.obj
 0002:00006618       ??_C@_1CA@NKAELJKI@?$AAf?$AAr?$AAe?$AAn?$AAc?$AAh?$AA?9?$AAc?$AAa?$AAn?$AAa?$AAd?$AAi?$AAa?$AAn@ 000000014007f618     libucrt:get_qualified_locale.obj
 0002:00006640       ??_C@_1CE@MGKCNLGN@?$AAf?$AAr?$AAe?$AAn?$AAc?$AAh?$AA?9?$AAl?$AAu?$AAx?$AAe?$AAm?$AAb?$AAo?$AAu@ 000000014007f640     libucrt:get_qualified_locale.obj
 0002:00006670       ??_C@_1BK@CEGEAILM@?$AAf?$AAr?$AAe?$AAn?$AAc?$AAh?$AA?9?$AAs?$AAw?$AAi?$AAs?$AAs@ 000000014007f670     libucrt:get_qualified_locale.obj
 0002:00006690       ??_C@_1CA@PAFKEOCC@?$AAg?$AAe?$AAr?$AAm?$AAa?$AAn?$AA?9?$AAa?$AAu?$AAs?$AAt?$AAr?$AAi?$AAa?$AAn@ 000000014007f690     libucrt:get_qualified_locale.obj
 0002:000066b8       ??_C@_1CI@HCFHGOFD@?$AAg?$AAe?$AAr?$AAm?$AAa?$AAn?$AA?9?$AAl?$AAi?$AAc?$AAh?$AAt?$AAe?$AAn?$AAs@ 000000014007f6b8     libucrt:get_qualified_locale.obj
 0002:000066e8       ??_C@_1CE@FEDDNPDG@?$AAg?$AAe?$AAr?$AAm?$AAa?$AAn?$AA?9?$AAl?$AAu?$AAx?$AAe?$AAm?$AAb?$AAo?$AAu@ 000000014007f6e8     libucrt:get_qualified_locale.obj
 0002:00006718       ??_C@_1BK@LIMINNMN@?$AAg?$AAe?$AAr?$AAm?$AAa?$AAn?$AA?9?$AAs?$AAw?$AAi?$AAs?$AAs@ 000000014007f718     libucrt:get_qualified_locale.obj
 0002:00006738       ??_C@_1BM@LGMDBEPD@?$AAi?$AAr?$AAi?$AAs?$AAh?$AA?9?$AAe?$AAn?$AAg?$AAl?$AAi?$AAs?$AAh@ 000000014007f738     libucrt:get_qualified_locale.obj
 0002:00006760       ??_C@_1BM@NNCFBAEE@?$AAi?$AAt?$AAa?$AAl?$AAi?$AAa?$AAn?$AA?9?$AAs?$AAw?$AAi?$AAs?$AAs@ 000000014007f760     libucrt:get_qualified_locale.obj
 0002:00006788       ??_C@_1BE@FEDJNPIB@?$AAn?$AAo?$AAr?$AAw?$AAe?$AAg?$AAi?$AAa?$AAn@ 000000014007f788     libucrt:get_qualified_locale.obj
 0002:000067a0       ??_C@_1CC@CILKDEIE@?$AAn?$AAo?$AAr?$AAw?$AAe?$AAg?$AAi?$AAa?$AAn?$AA?9?$AAb?$AAo?$AAk?$AAm?$AAa@ 000000014007f7a0     libucrt:get_qualified_locale.obj
 0002:000067c8       ??_C@_1CE@DHMMHEPL@?$AAn?$AAo?$AAr?$AAw?$AAe?$AAg?$AAi?$AAa?$AAn?$AA?9?$AAn?$AAy?$AAn?$AAo?$AAr@ 000000014007f7c8     libucrt:get_qualified_locale.obj
 0002:000067f8       ??_C@_1CK@OPNMHECD@?$AAp?$AAo?$AAr?$AAt?$AAu?$AAg?$AAu?$AAe?$AAs?$AAe?$AA?9?$AAb?$AAr?$AAa?$AAz@ 000000014007f7f8     libucrt:get_qualified_locale.obj
 0002:00006830       ??_C@_1CE@KEEHCDB@?$AAs?$AAp?$AAa?$AAn?$AAi?$AAs?$AAh?$AA?9?$AAa?$AAr?$AAg?$AAe?$AAn?$AAt?$AAi@ 000000014007f830     libucrt:get_qualified_locale.obj
 0002:00006860       ??_C@_1CA@GIAOLHJD@?$AAs?$AAp?$AAa?$AAn?$AAi?$AAs?$AAh?$AA?9?$AAb?$AAo?$AAl?$AAi?$AAv?$AAi?$AAa@ 000000014007f860     libucrt:get_qualified_locale.obj
 0002:00006888       ??_C@_1BM@OJNDFNPD@?$AAs?$AAp?$AAa?$AAn?$AAi?$AAs?$AAh?$AA?9?$AAc?$AAh?$AAi?$AAl?$AAe@ 000000014007f888     libucrt:get_qualified_locale.obj
 0002:000068b0       ??_C@_1CC@OCOLPALL@?$AAs?$AAp?$AAa?$AAn?$AAi?$AAs?$AAh?$AA?9?$AAc?$AAo?$AAl?$AAo?$AAm?$AAb?$AAi@ 000000014007f8b0     libucrt:get_qualified_locale.obj
 0002:000068d8       ??_C@_1CG@BPOFMKBB@?$AAs?$AAp?$AAa?$AAn?$AAi?$AAs?$AAh?$AA?9?$AAc?$AAo?$AAs?$AAt?$AAa?$AA?5?$AAr@ 000000014007f8d8     libucrt:get_qualified_locale.obj
 0002:00006908       ??_C@_1DG@IGOBAPBB@?$AAs?$AAp?$AAa?$AAn?$AAi?$AAs?$AAh?$AA?9?$AAd?$AAo?$AAm?$AAi?$AAn?$AAi?$AAc@ 000000014007f908     libucrt:get_qualified_locale.obj
 0002:00006948       ??_C@_1CA@JHAPGEGI@?$AAs?$AAp?$AAa?$AAn?$AAi?$AAs?$AAh?$AA?9?$AAe?$AAc?$AAu?$AAa?$AAd?$AAo?$AAr@ 000000014007f948     libucrt:get_qualified_locale.obj
 0002:00006970       ??_C@_1CI@LAPALJPP@?$AAs?$AAp?$AAa?$AAn?$AAi?$AAs?$AAh?$AA?9?$AAe?$AAl?$AA?5?$AAs?$AAa?$AAl?$AAv@ 000000014007f970     libucrt:get_qualified_locale.obj
 0002:000069a0       ??_C@_1CE@PDGBOFOM@?$AAs?$AAp?$AAa?$AAn?$AAi?$AAs?$AAh?$AA?9?$AAg?$AAu?$AAa?$AAt?$AAe?$AAm?$AAa@ 000000014007f9a0     libucrt:get_qualified_locale.obj
 0002:000069d0       ??_C@_1CC@NBEBAODI@?$AAs?$AAp?$AAa?$AAn?$AAi?$AAs?$AAh?$AA?9?$AAh?$AAo?$AAn?$AAd?$AAu?$AAr?$AAa@ 000000014007f9d0     libucrt:get_qualified_locale.obj
 0002:000069f8       ??_C@_1CA@LLKGHBMF@?$AAs?$AAp?$AAa?$AAn?$AAi?$AAs?$AAh?$AA?9?$AAm?$AAe?$AAx?$AAi?$AAc?$AAa?$AAn@ 000000014007f9f8     libucrt:get_qualified_locale.obj
 0002:00006a20       ??_C@_1BO@LKNDOIGD@?$AAs?$AAp?$AAa?$AAn?$AAi?$AAs?$AAh?$AA?9?$AAm?$AAo?$AAd?$AAe?$AAr?$AAn@ 000000014007fa20     libucrt:get_qualified_locale.obj
 0002:00006a48       ??_C@_1CE@NMDMOEEB@?$AAs?$AAp?$AAa?$AAn?$AAi?$AAs?$AAh?$AA?9?$AAn?$AAi?$AAc?$AAa?$AAr?$AAa?$AAg@ 000000014007fa48     libucrt:get_qualified_locale.obj
 0002:00006a78       ??_C@_1BO@LLCBEJGB@?$AAs?$AAp?$AAa?$AAn?$AAi?$AAs?$AAh?$AA?9?$AAp?$AAa?$AAn?$AAa?$AAm?$AAa@ 000000014007fa78     libucrt:get_qualified_locale.obj
 0002:00006aa0       ??_C@_1CC@FKPGGIHO@?$AAs?$AAp?$AAa?$AAn?$AAi?$AAs?$AAh?$AA?9?$AAp?$AAa?$AAr?$AAa?$AAg?$AAu?$AAa@ 000000014007faa0     libucrt:get_qualified_locale.obj
 0002:00006ac8       ??_C@_1BK@CDEIHOOP@?$AAs?$AAp?$AAa?$AAn?$AAi?$AAs?$AAh?$AA?9?$AAp?$AAe?$AAr?$AAu@ 000000014007fac8     libucrt:get_qualified_locale.obj
 0002:00006ae8       ??_C@_1CI@GAHAKKGP@?$AAs?$AAp?$AAa?$AAn?$AAi?$AAs?$AAh?$AA?9?$AAp?$AAu?$AAe?$AAr?$AAt?$AAo?$AA?5@ 000000014007fae8     libucrt:get_qualified_locale.obj
 0002:00006b18       ??_C@_1CA@NKJBCAGP@?$AAs?$AAp?$AAa?$AAn?$AAi?$AAs?$AAh?$AA?9?$AAu?$AAr?$AAu?$AAg?$AAu?$AAa?$AAy@ 000000014007fb18     libucrt:get_qualified_locale.obj
 0002:00006b40       ??_C@_1CE@ODILCONM@?$AAs?$AAp?$AAa?$AAn?$AAi?$AAs?$AAh?$AA?9?$AAv?$AAe?$AAn?$AAe?$AAz?$AAu?$AAe@ 000000014007fb40     libucrt:get_qualified_locale.obj
 0002:00006b70       ??_C@_1CA@OBNMCGFO@?$AAs?$AAw?$AAe?$AAd?$AAi?$AAs?$AAh?$AA?9?$AAf?$AAi?$AAn?$AAl?$AAa?$AAn?$AAd@ 000000014007fb70     libucrt:get_qualified_locale.obj
 0002:00006b98       ??_C@_1M@PIPDDPPI@?$AAs?$AAw?$AAi?$AAs?$AAs@ 000000014007fb98     libucrt:get_qualified_locale.obj
 0002:00006ba8       ??_C@_15PJPFLCCM@?$AAu?$AAk@ 000000014007fba8     libucrt:get_qualified_locale.obj
 0002:00006bb0       ??_C@_15GMFIMNFM@?$AAu?$AAs@ 000000014007fbb0     libucrt:get_qualified_locale.obj
 0002:00006bb8       ??_C@_17HAEBFAGL@?$AAu?$AAs?$AAa@ 000000014007fbb8     libucrt:get_qualified_locale.obj
 0002:00006bc8       ??_C@_1BA@DPFJEPHB@?$AAa?$AAm?$AAe?$AAr?$AAi?$AAc?$AAa@ 000000014007fbc8     libucrt:get_qualified_locale.obj
 0002:00006be0       ??_C@_1BA@ELOGGFK@?$AAb?$AAr?$AAi?$AAt?$AAa?$AAi?$AAn@ 000000014007fbe0     libucrt:get_qualified_locale.obj
 0002:00006bf8       ??_C@_1M@GHBGIGDA@?$AAc?$AAh?$AAi?$AAn?$AAa@ 000000014007fbf8     libucrt:get_qualified_locale.obj
 0002:00006c08       ??_C@_1M@NCHEJOPO@?$AAc?$AAz?$AAe?$AAc?$AAh@ 000000014007fc08     libucrt:get_qualified_locale.obj
 0002:00006c18       ??_C@_1BA@BKPAPBLA@?$AAe?$AAn?$AAg?$AAl?$AAa?$AAn?$AAd@ 000000014007fc18     libucrt:get_qualified_locale.obj
 0002:00006c30       ??_C@_1BM@HKBCKIPC@?$AAg?$AAr?$AAe?$AAa?$AAt?$AA?5?$AAb?$AAr?$AAi?$AAt?$AAa?$AAi?$AAn@ 000000014007fc30     libucrt:get_qualified_locale.obj
 0002:00006c58       ??_C@_1BA@PPCHPGJB@?$AAh?$AAo?$AAl?$AAl?$AAa?$AAn?$AAd@ 000000014007fc58     libucrt:get_qualified_locale.obj
 0002:00006c70       ??_C@_1BE@JBMPEGDG@?$AAh?$AAo?$AAn?$AAg?$AA?9?$AAk?$AAo?$AAn?$AAg@ 000000014007fc70     libucrt:get_qualified_locale.obj
 0002:00006c88       ??_C@_1BI@KOELBBPJ@?$AAn?$AAe?$AAw?$AA?9?$AAz?$AAe?$AAa?$AAl?$AAa?$AAn?$AAd@ 000000014007fc88     libucrt:get_qualified_locale.obj
 0002:00006ca4       ??_C@_15HIEBHAIO@?$AAn?$AAz@ 000000014007fca4     libucrt:get_qualified_locale.obj
 0002:00006cb0       ??_C@_1BC@CHBCPFPI@?$AAp?$AAr?$AA?5?$AAc?$AAh?$AAi?$AAn?$AAa@ 000000014007fcb0     libucrt:get_qualified_locale.obj
 0002:00006cc8       ??_C@_1BC@JAOIIFKD@?$AAp?$AAr?$AA?9?$AAc?$AAh?$AAi?$AAn?$AAa@ 000000014007fcc8     libucrt:get_qualified_locale.obj
 0002:00006ce0       ??_C@_1BI@BEHPPHKC@?$AAp?$AAu?$AAe?$AAr?$AAt?$AAo?$AA?9?$AAr?$AAi?$AAc?$AAo@ 000000014007fce0     libucrt:get_qualified_locale.obj
 0002:00006d00       ??_C@_1O@PAEOFKDI@?$AAs?$AAl?$AAo?$AAv?$AAa?$AAk@ 000000014007fd00     libucrt:get_qualified_locale.obj
 0002:00006d10       ??_C@_1BK@FIHMCKAM@?$AAs?$AAo?$AAu?$AAt?$AAh?$AA?5?$AAa?$AAf?$AAr?$AAi?$AAc?$AAa@ 000000014007fd10     libucrt:get_qualified_locale.obj
 0002:00006d30       ??_C@_1BI@NAEOODKB@?$AAs?$AAo?$AAu?$AAt?$AAh?$AA?5?$AAk?$AAo?$AAr?$AAe?$AAa@ 000000014007fd30     libucrt:get_qualified_locale.obj
 0002:00006d50       ??_C@_1BK@FBDGGIFF@?$AAs?$AAo?$AAu?$AAt?$AAh?$AA?9?$AAa?$AAf?$AAr?$AAi?$AAc?$AAa@ 000000014007fd50     libucrt:get_qualified_locale.obj
 0002:00006d70       ??_C@_1BI@GHLEJDPK@?$AAs?$AAo?$AAu?$AAt?$AAh?$AA?9?$AAk?$AAo?$AAr?$AAe?$AAa@ 000000014007fd70     libucrt:get_qualified_locale.obj
 0002:00006d90       ??_C@_1CE@PLHLOMJF@?$AAt?$AAr?$AAi?$AAn?$AAi?$AAd?$AAa?$AAd?$AA?5?$AA?$CG?$AA?5?$AAt?$AAo?$AAb?$AAa@ 000000014007fd90     libucrt:get_qualified_locale.obj
 0002:00006dc0       ??_C@_1BO@MODIMHHI@?$AAu?$AAn?$AAi?$AAt?$AAe?$AAd?$AA?9?$AAk?$AAi?$AAn?$AAg?$AAd?$AAo?$AAm@ 000000014007fdc0     libucrt:get_qualified_locale.obj
 0002:00006de8       ??_C@_1BM@FFHJONBJ@?$AAu?$AAn?$AAi?$AAt?$AAe?$AAd?$AA?9?$AAs?$AAt?$AAa?$AAt?$AAe?$AAs@ 000000014007fde8     libucrt:get_qualified_locale.obj
 0002:00006e10       ??_C@_19MPDNHKDG@?$AAu?$AAt?$AAf?$AA8@ 000000014007fe10     libucrt:get_qualified_locale.obj
 0002:00006e20       ??_C@_17DNCLJFIF@?$AAA?$AAC?$AAP@ 000000014007fe20     libucrt:get_qualified_locale.obj
 0002:00006e30       ??_C@_1M@FPEIIFAM@?$AAu?$AAt?$AAf?$AA?9?$AA8@ 000000014007fe30     libucrt:get_qualified_locale.obj
 0002:00006e40       ??_C@_17CIKBIHLH@?$AAO?$AAC?$AAP@ 000000014007fe40     libucrt:get_qualified_locale.obj
 0002:00006e50       __rglangidNotDefault       000000014007fe50     libucrt:getqloc_downlevel.obj
 0002:00006f30       ??_C@_1EA@JGEFHKEI@?$AAa?$AAp?$AAi?$AA?9?$AAm?$AAs?$AA?9?$AAw?$AAi?$AAn?$AA?9?$AAc?$AAo?$AAr?$AAe@ 000000014007ff30     libucrt:winapi_thunks.obj
 0002:00006f80       ??_C@_1DI@IJCEHOCB@?$AAa?$AAp?$AAi?$AA?9?$AAm?$AAs?$AA?9?$AAw?$AAi?$AAn?$AA?9?$AAc?$AAo?$AAr?$AAe@ 000000014007ff80     libucrt:winapi_thunks.obj
 0002:00006fd0       ??_C@_1EI@MPIAOHOC@?$AAa?$AAp?$AAi?$AA?9?$AAm?$AAs?$AA?9?$AAw?$AAi?$AAn?$AA?9?$AAc?$AAo?$AAr?$AAe@ 000000014007ffd0     libucrt:winapi_thunks.obj
 0002:00007030       ??_C@_1FK@FPHCKFIE@?$AAa?$AAp?$AAi?$AA?9?$AAm?$AAs?$AA?9?$AAw?$AAi?$AAn?$AA?9?$AAc?$AAo?$AAr?$AAe@ 0000000140080030     libucrt:winapi_thunks.obj
 0002:000070a0       ??_C@_1EM@DILCGIIO@?$AAa?$AAp?$AAi?$AA?9?$AAm?$AAs?$AA?9?$AAw?$AAi?$AAn?$AA?9?$AAc?$AAo?$AAr?$AAe@ 00000001400800a0     libucrt:winapi_thunks.obj
 0002:00007100       ??_C@_1DM@LNCGDDPN@?$AAa?$AAp?$AAi?$AA?9?$AAm?$AAs?$AA?9?$AAw?$AAi?$AAn?$AA?9?$AAc?$AAo?$AAr?$AAe@ 0000000140080100     libucrt:winapi_thunks.obj
 0002:00007148       ??_C@_1DO@FPAPJEMD@?$AAa?$AAp?$AAi?$AA?9?$AAm?$AAs?$AA?9?$AAw?$AAi?$AAn?$AA?9?$AAc?$AAo?$AAr?$AAe@ 0000000140080148     libucrt:winapi_thunks.obj
 0002:00007198       ??_C@_1DK@NDHNAHIO@?$AAa?$AAp?$AAi?$AA?9?$AAm?$AAs?$AA?9?$AAw?$AAi?$AAn?$AA?9?$AAc?$AAo?$AAr?$AAe@ 0000000140080198     libucrt:winapi_thunks.obj
 0002:000071e0       ??_C@_1DM@KGHDGBCM@?$AAa?$AAp?$AAi?$AA?9?$AAm?$AAs?$AA?9?$AAw?$AAi?$AAn?$AA?9?$AAc?$AAo?$AAr?$AAe@ 00000001400801e0     libucrt:winapi_thunks.obj
 0002:00007230       ??_C@_1EO@IJIOEFOH@?$AAa?$AAp?$AAi?$AA?9?$AAm?$AAs?$AA?9?$AAw?$AAi?$AAn?$AA?9?$AAr?$AAt?$AAc?$AAo@ 0000000140080230     libucrt:winapi_thunks.obj
 0002:00007290       ??_C@_1FG@HHGEKANL@?$AAa?$AAp?$AAi?$AA?9?$AAm?$AAs?$AA?9?$AAw?$AAi?$AAn?$AA?9?$AAs?$AAe?$AAc?$AAu@ 0000000140080290     libucrt:winapi_thunks.obj
 0002:00007300       ??_C@_1EG@DBIOJECG@?$AAe?$AAx?$AAt?$AA?9?$AAm?$AAs?$AA?9?$AAw?$AAi?$AAn?$AA?9?$AAn?$AAt?$AAu?$AAs@ 0000000140080300     libucrt:winapi_thunks.obj
 0002:00007360       ??_C@_1EO@FIHMJCLF@?$AAe?$AAx?$AAt?$AA?9?$AAm?$AAs?$AA?9?$AAw?$AAi?$AAn?$AA?9?$AAn?$AAt?$AAu?$AAs@ 0000000140080360     libucrt:winapi_thunks.obj
 0002:000073c0       ??_C@_1BC@DNHGCMLG@?$AAa?$AAd?$AAv?$AAa?$AAp?$AAi?$AA3?$AA2@ 00000001400803c0     libucrt:winapi_thunks.obj
 0002:000073d8       ??_C@_1M@OAIMIKLP@?$AAn?$AAt?$AAd?$AAl?$AAl@ 00000001400803d8     libucrt:winapi_thunks.obj
 0002:000073f0       ??_C@_1EG@DPGNFKGC@?$AAa?$AAp?$AAi?$AA?9?$AAm?$AAs?$AA?9?$AAw?$AAi?$AAn?$AA?9?$AAa?$AAp?$AAp?$AAm@ 00000001400803f0     libucrt:winapi_thunks.obj
 0002:00007448       ??_C@_1O@BCCLBEOE@?$AAu?$AAs?$AAe?$AAr?$AA3?$AA2@ 0000000140080448     libucrt:winapi_thunks.obj
 0002:00007458       ??_C@_1BA@IAIFMGEF@?$AAe?$AAx?$AAt?$AA?9?$AAm?$AAs?$AA?9@ 0000000140080458     libucrt:winapi_thunks.obj
 0002:00007470       ??_C@_0BA@FHFNEAED@AreFileApisANSI@ 0000000140080470     libucrt:winapi_thunks.obj
 0002:00007498       ??_C@_0BA@IHGNDAEB@CompareStringEx@ 0000000140080498     libucrt:winapi_thunks.obj
 0002:000074c0       ??_C@_0BE@LJANKFHF@EnumSystemLocalesEx@ 00000001400804c0     libucrt:winapi_thunks.obj
 0002:00007528       ??_C@_0BA@HNOPNCHB@GetActiveWindow@ 0000000140080528     libucrt:winapi_thunks.obj
 0002:00007550       ??_C@_0BA@EPCJIIPD@GetDateFormatEx@ 0000000140080550     libucrt:winapi_thunks.obj
 0002:00007578       ??_C@_0BJ@DIBIJBHA@GetEnabledXStateFeatures@ 0000000140080578     libucrt:winapi_thunks.obj
 0002:000075a8       ??_C@_0BD@HHGDFDBJ@GetLastActivePopup@ 00000001400805a8     libucrt:winapi_thunks.obj
 0002:000075d0       ??_C@_0BA@ONOKGCMP@GetLocaleInfoEx@ 00000001400805d0     libucrt:winapi_thunks.obj
 0002:000075f8       ??_C@_0BI@DFKBFLJE@GetProcessWindowStation@ 00000001400805f8     libucrt:winapi_thunks.obj
 0002:00007618       ??_C@_0BP@FPNJPEJC@GetSystemTimePreciseAsFileTime@ 0000000140080618     libucrt:winapi_thunks.obj
 0002:00007650       ??_C@_0BA@CIJJKCJJ@GetTimeFormatEx@ 0000000140080650     libucrt:winapi_thunks.obj
 0002:00007678       ??_C@_0BJ@PBCCBIPI@GetUserDefaultLocaleName@ 0000000140080678     libucrt:winapi_thunks.obj
 0002:000076a8       ??_C@_0BK@DEKFELLI@GetUserObjectInformationW@ 00000001400806a8     libucrt:winapi_thunks.obj
 0002:000076d8       ??_C@_0BG@IKLDMBLM@GetXStateFeaturesMask@ 00000001400806d8     libucrt:winapi_thunks.obj
 0002:00007718       ??_C@_0BC@CELBKLLA@IsValidLocaleName@ 0000000140080718     libucrt:winapi_thunks.obj
 0002:00007740       ??_C@_0O@KKBNKAPF@LCMapStringEx@ 0000000140080740     libucrt:winapi_thunks.obj
 0002:00007760       ??_C@_0BB@CDHDDLLP@LCIDToLocaleName@ 0000000140080760     libucrt:winapi_thunks.obj
 0002:00007788       ??_C@_0BB@HBDEELFH@LocaleNameToLCID@ 0000000140080788     libucrt:winapi_thunks.obj
 0002:000077b0       ??_C@_0BE@KINNKFDA@LocateXStateFeature@ 00000001400807b0     libucrt:winapi_thunks.obj
 0002:000077d8       ??_C@_0M@CHKKJDAI@MessageBoxA@ 00000001400807d8     libucrt:winapi_thunks.obj
 0002:000077f8       ??_C@_0M@DLDCCGNP@MessageBoxW@ 00000001400807f8     libucrt:winapi_thunks.obj
 0002:00007810       ??_C@_0N@PPOMPGGK@RoInitialize@ 0000000140080810     libucrt:winapi_thunks.obj
 0002:00007828       ??_C@_0P@LLFHBIJD@RoUninitialize@ 0000000140080828     libucrt:winapi_thunks.obj
 0002:00007840       ??_C@_0CF@OJOFEIGO@AppPolicyGetProcessTerminationM@ 0000000140080840     libucrt:winapi_thunks.obj
 0002:00007870       ??_C@_0CF@NNDFDCOC@AppPolicyGetThreadInitializatio@ 0000000140080870     libucrt:winapi_thunks.obj
 0002:000078a0       ??_C@_0CE@OICFMIKE@AppPolicyGetShowDeveloperDiagno@ 00000001400808a0     libucrt:winapi_thunks.obj
 0002:000078d0       ??_C@_0BL@ODDJNEDA@AppPolicyGetWindowingModel@ 00000001400808d0     libucrt:winapi_thunks.obj
 0002:00007900       ??_C@_0BI@BKLFFAPO@SetThreadStackGuarantee@ 0000000140080900     libucrt:winapi_thunks.obj
 0002:00007930       ??_C@_0BC@JEAENNKH@SystemFunction036@ 0000000140080930     libucrt:winapi_thunks.obj
 0002:00007950       ?large_power_data@?1??multiply_by_power_of_ten@__crt_strtox@@YA_NAEAUbig_integer@2@I@Z@4QBIB 0000000140080950     libucrt:cfout.obj
 0002:00008430       ?large_power_indices@?1??multiply_by_power_of_ten@__crt_strtox@@YA_NAEAUbig_integer@2@I@Z@4QBUunpack_index@?1??12@YA_N0I@Z@B 0000000140081430     libucrt:cfout.obj
 0002:000084e8       ?small_powers_of_ten@?1??multiply_by_power_of_ten@__crt_strtox@@YA_NAEAUbig_integer@2@I@Z@4QBIB 00000001400814e8     libucrt:cfout.obj
 0002:00008514       ??_C@_01GBGANLPD@0@        0000000140081514     libucrt:cfout.obj
 0002:00008518       ??_C@_05DNEBIAHO@1?$CDINF@ 0000000140081518     libucrt:cfout.obj
 0002:00008520       ??_C@_06IMKFLFPG@1?$CDQNAN@ 0000000140081520     libucrt:cfout.obj
 0002:00008528       ??_C@_06PGGFOGJG@1?$CDSNAN@ 0000000140081528     libucrt:cfout.obj
 0002:00008530       ??_C@_05PHHOCPM@1?$CDIND@  0000000140081530     libucrt:cfout.obj
 0002:0000876c       ??_C@_03KHJOGHMM@exp@      000000014008176c     libucrt:fpexcept.obj
 0002:00008770       ??_C@_03JGHBODFD@pow@      0000000140081770     libucrt:fpexcept.obj
 0002:00008774       ??_C@_03MGHMBJCF@log@      0000000140081774     libucrt:fpexcept.obj
 0002:00008778       ??_C@_05HGHHAHAP@log10@    0000000140081778     libucrt:fpexcept.obj
 0002:00008780       ??_C@_04COOMCNPB@sinh@     0000000140081780     libucrt:fpexcept.obj
 0002:00008788       ??_C@_04HPJJNFIM@cosh@     0000000140081788     libucrt:fpexcept.obj
 0002:00008790       ??_C@_04FJHINJAO@tanh@     0000000140081790     libucrt:fpexcept.obj
 0002:00008798       ??_C@_04FIHNOPOL@asin@     0000000140081798     libucrt:fpexcept.obj
 0002:000087a0       ??_C@_04PDIFKINK@acos@     00000001400817a0     libucrt:fpexcept.obj
 0002:000087a8       ??_C@_04MLLJIGOK@atan@     00000001400817a8     libucrt:fpexcept.obj
 0002:000087b0       ??_C@_05KNGEOGJB@atan2@    00000001400817b0     libucrt:fpexcept.obj
 0002:000087b8       ??_C@_04EIAKFFMI@sqrt@     00000001400817b8     libucrt:fpexcept.obj
 0002:000087c0       ??_C@_03BLEJJJBH@sin@      00000001400817c0     libucrt:fpexcept.obj
 0002:000087c4       ??_C@_03LALBNOCG@cos@      00000001400817c4     libucrt:fpexcept.obj
 0002:000087c8       ??_C@_03IIINPABG@tan@      00000001400817c8     libucrt:fpexcept.obj
 0002:000087cc       ??_C@_04GFPJNGEK@ceil@     00000001400817cc     libucrt:fpexcept.obj
 0002:000087d4       ??_C@_05PBJFFIGL@floor@    00000001400817d4     libucrt:fpexcept.obj
 0002:000087dc       ??_C@_04ODHECPBC@fabs@     00000001400817dc     libucrt:fpexcept.obj
 0002:000087e4       ??_C@_04EHEDPDJG@modf@     00000001400817e4     libucrt:fpexcept.obj
 0002:000087ec       ??_C@_05CEJMAHNP@ldexp@    00000001400817ec     libucrt:fpexcept.obj
 0002:000087f4       ??_C@_05KBKMEMPO@_cabs@    00000001400817f4     libucrt:fpexcept.obj
 0002:000087fc       ??_C@_06MEIMCGCF@_hypot@   00000001400817fc     libucrt:fpexcept.obj
 0002:00008804       ??_C@_04KEPJIHGP@fmod@     0000000140081804     libucrt:fpexcept.obj
 0002:0000880c       ??_C@_05GKKHEGJL@frexp@    000000014008180c     libucrt:fpexcept.obj
 0002:00008814       ??_C@_03MJLDFKDL@_y0@      0000000140081814     libucrt:fpexcept.obj
 0002:00008818       ??_C@_03NAKIGLHK@_y1@      0000000140081818     libucrt:fpexcept.obj
 0002:0000881c       ??_C@_03ONILCKOB@_yn@      000000014008181c     libucrt:fpexcept.obj
 0002:00008820       ??_C@_05JGDBENOH@_logb@    0000000140081820     libucrt:fpexcept.obj
 0002:00008828       ??_C@_0L@KDOEJCKC@_nextafter@ 0000000140081828     libucrt:fpexcept.obj
 0002:00008838       __real@0000000000000000    0000000140081838     libucrt:fpexcept.obj
 0002:0000996c       ??_C@_15EMKDOKLE@?$AAa?$AAr@ 000000014008296c     libucrt:lcidtoname_downlevel.obj
 0002:00009974       ??_C@_15KNPADPLH@?$AAb?$AAg@ 0000000140082974     libucrt:lcidtoname_downlevel.obj
 0002:0000997c       ??_C@_15EDMHLDMO@?$AAc?$AAa@ 000000014008297c     libucrt:lcidtoname_downlevel.obj
 0002:00009988       ??_C@_1O@BPEAJADD@?$AAz?$AAh?$AA?9?$AAC?$AAH?$AAS@ 0000000140082988     libucrt:lcidtoname_downlevel.obj
 0002:00009998       ??_C@_15LJNHCMNK@?$AAc?$AAs@ 0000000140082998     libucrt:lcidtoname_downlevel.obj
 0002:000099a0       ??_C@_15FOMCIDHG@?$AAd?$AAa@ 00000001400829a0     libucrt:lcidtoname_downlevel.obj
 0002:000099a8       ??_C@_15NBKABECB@?$AAd?$AAe@ 00000001400829a8     libucrt:lcidtoname_downlevel.obj
 0002:000099b0       ??_C@_15GHPEIIAO@?$AAe?$AAl@ 00000001400829b0     libucrt:lcidtoname_downlevel.obj
 0002:000099b8       ??_C@_15MNPNEAIF@?$AAe?$AAn@ 00000001400829b8     libucrt:lcidtoname_downlevel.obj
 0002:000099c0       ??_C@_15GPIOMPMH@?$AAe?$AAs@ 00000001400829c0     libucrt:lcidtoname_downlevel.obj
 0002:000099c8       ??_C@_15NGLOAKJC@?$AAf?$AAi@ 00000001400829c8     libucrt:lcidtoname_downlevel.obj
 0002:000099d0       ??_C@_15FBKGNKAM@?$AAf?$AAr@ 00000001400829d0     libucrt:lcidtoname_downlevel.obj
 0002:000099d8       ??_C@_15KGGCNEFK@?$AAh?$AAe@ 00000001400829d8     libucrt:lcidtoname_downlevel.obj
 0002:000099e0       ??_C@_15PGHLIDMF@?$AAh?$AAu@ 00000001400829e0     libucrt:lcidtoname_downlevel.obj
 0002:000099e8       ??_C@_15BIEMAPLM@?$AAi?$AAs@ 00000001400829e8     libucrt:lcidtoname_downlevel.obj
 0002:000099f0       ??_C@_15IFJLDHAF@?$AAi?$AAt@ 00000001400829f0     libucrt:lcidtoname_downlevel.obj
 0002:000099f8       ??_C@_15GEMIOCAG@?$AAj?$AAa@ 00000001400829f8     libucrt:lcidtoname_downlevel.obj
 0002:00009a00       ??_C@_15EPELEGJA@?$AAk?$AAo@ 0000000140082a00     libucrt:lcidtoname_downlevel.obj
 0002:00009a08       ??_C@_15NDDHIMN@?$AAn?$AAl@ 0000000140082a08     libucrt:lcidtoname_downlevel.obj
 0002:00009a10       ??_C@_15BPIGNHCD@?$AAn?$AAo@ 0000000140082a10     libucrt:lcidtoname_downlevel.obj
 0002:00009a18       ??_C@_15DEOPBLCG@?$AAp?$AAl@ 0000000140082a18     libucrt:lcidtoname_downlevel.obj
 0002:00009a20       ??_C@_15KBECGEFG@?$AAp?$AAt@ 0000000140082a20     libucrt:lcidtoname_downlevel.obj
 0002:00009a28       ??_C@_15GLJCBFMD@?$AAr?$AAo@ 0000000140082a28     libucrt:lcidtoname_downlevel.obj
 0002:00009a30       ??_C@_15FEDGKCDI@?$AAr?$AAu@ 0000000140082a30     libucrt:lcidtoname_downlevel.obj
 0002:00009a38       ??_C@_15GLKMLLHM@?$AAh?$AAr@ 0000000140082a38     libucrt:lcidtoname_downlevel.obj
 0002:00009a40       ??_C@_15CPKMFBDB@?$AAs?$AAk@ 0000000140082a40     libucrt:lcidtoname_downlevel.obj
 0002:00009a48       ??_C@_15BAAIOGMK@?$AAs?$AAq@ 0000000140082a48     libucrt:lcidtoname_downlevel.obj
 0002:00009a50       ??_C@_15INNPNOHD@?$AAs?$AAv@ 0000000140082a50     libucrt:lcidtoname_downlevel.obj
 0002:00009a58       ??_C@_15CABMMOGH@?$AAt?$AAh@ 0000000140082a58     libucrt:lcidtoname_downlevel.obj
 0002:00009a60       ??_C@_15BPLIHJJM@?$AAt?$AAr@ 0000000140082a60     libucrt:lcidtoname_downlevel.obj
 0002:00009a68       ??_C@_15NEOEKKDJ@?$AAu?$AAr@ 0000000140082a68     libucrt:lcidtoname_downlevel.obj
 0002:00009a70       ??_C@_15NFICGAJK@?$AAi?$AAd@ 0000000140082a70     libucrt:lcidtoname_downlevel.obj
 0002:00009a78       ??_C@_15HPJPHDM@?$AAb?$AAe@ 0000000140082a78     libucrt:lcidtoname_downlevel.obj
 0002:00009a80       ??_C@_15LCHLGJII@?$AAs?$AAl@ 0000000140082a80     libucrt:lcidtoname_downlevel.obj
 0002:00009a88       ??_C@_15PCFJPHHO@?$AAe?$AAt@ 0000000140082a88     libucrt:lcidtoname_downlevel.obj
 0002:00009a90       ??_C@_15HPFPGODN@?$AAl?$AAv@ 0000000140082a90     libucrt:lcidtoname_downlevel.obj
 0002:00009a98       ??_C@_15NFFGKGLG@?$AAl?$AAt@ 0000000140082a98     libucrt:lcidtoname_downlevel.obj
 0002:00009aa0       ??_C@_15BDAKCCHN@?$AAf?$AAa@ 0000000140082aa0     libucrt:lcidtoname_downlevel.obj
 0002:00009aa8       ??_C@_15NFGIAIAJ@?$AAv?$AAi@ 0000000140082aa8     libucrt:lcidtoname_downlevel.obj
 0002:00009ab0       ??_C@_15LMKNDMHN@?$AAh?$AAy@ 0000000140082ab0     libucrt:lcidtoname_downlevel.obj
 0002:00009ab8       ??_C@_15IJBHMCFL@?$AAa?$AAz@ 0000000140082ab8     libucrt:lcidtoname_downlevel.obj
 0002:00009ac0       ??_C@_15EKOFJABL@?$AAe?$AAu@ 0000000140082ac0     libucrt:lcidtoname_downlevel.obj
 0002:00009ac8       ??_C@_15BGHADCNK@?$AAm?$AAk@ 0000000140082ac8     libucrt:lcidtoname_downlevel.obj
 0002:00009ad0       ??_C@_15JDNICKHM@?$AAa?$AAf@ 0000000140082ad0     libucrt:lcidtoname_downlevel.obj
 0002:00009ad8       ??_C@_15KPJEDBKD@?$AAk?$AAa@ 0000000140082ad8     libucrt:lcidtoname_downlevel.obj
 0002:00009ae0       ??_C@_15PDNFFFEO@?$AAf?$AAo@ 0000000140082ae0     libucrt:lcidtoname_downlevel.obj
 0002:00009ae8       ??_C@_15OMLEGLOC@?$AAh?$AAi@ 0000000140082ae8     libucrt:lcidtoname_downlevel.obj
 0002:00009af0       ??_C@_15IDNNENKK@?$AAm?$AAs@ 0000000140082af0     libucrt:lcidtoname_downlevel.obj
 0002:00009af8       ??_C@_15MACJNBMH@?$AAk?$AAk@ 0000000140082af8     libucrt:lcidtoname_downlevel.obj
 0002:00009b00       ??_C@_15DKDJEOND@?$AAk?$AAy@ 0000000140082b00     libucrt:lcidtoname_downlevel.obj
 0002:00009b08       ??_C@_15DFGDLJBG@?$AAs?$AAw@ 0000000140082b08     libucrt:lcidtoname_downlevel.obj
 0002:00009b10       ??_C@_15BBFAICNG@?$AAu?$AAz@ 0000000140082b10     libucrt:lcidtoname_downlevel.obj
 0002:00009b18       ??_C@_15DKNDCGEA@?$AAt?$AAt@ 0000000140082b18     libucrt:lcidtoname_downlevel.obj
 0002:00009b20       ??_C@_15MGIFMDPL@?$AAp?$AAa@ 0000000140082b20     libucrt:lcidtoname_downlevel.obj
 0002:00009b28       ??_C@_15HCNDBBA@?$AAg?$AAu@ 0000000140082b28     libucrt:lcidtoname_downlevel.obj
 0002:00009b30       ??_C@_15FNBEIBON@?$AAt?$AAa@ 0000000140082b30     libucrt:lcidtoname_downlevel.obj
 0002:00009b38       ??_C@_15NCHGBGLK@?$AAt?$AAe@ 0000000140082b38     libucrt:lcidtoname_downlevel.obj
 0002:00009b40       ??_C@_15PHPHCBPF@?$AAk?$AAn@ 0000000140082b40     libucrt:lcidtoname_downlevel.obj
 0002:00009b48       ??_C@_15DLGBCKMP@?$AAm?$AAr@ 0000000140082b48     libucrt:lcidtoname_downlevel.obj
 0002:00009b50       ??_C@_15EABBLBFF@?$AAs?$AAa@ 0000000140082b50     libucrt:lcidtoname_downlevel.obj
 0002:00009b58       ??_C@_15CBKOMCOI@?$AAm?$AAn@ 0000000140082b58     libucrt:lcidtoname_downlevel.obj
 0002:00009b60       ??_C@_15CKDMCJAF@?$AAg?$AAl@ 0000000140082b60     libucrt:lcidtoname_downlevel.obj
 0002:00009b68       ??_C@_17CNJFBPG@?$AAk?$AAo?$AAk@ 0000000140082b68     libucrt:lcidtoname_downlevel.obj
 0002:00009b78       ??_C@_17FFBJICPL@?$AAs?$AAy?$AAr@ 0000000140082b78     libucrt:lcidtoname_downlevel.obj
 0002:00009b88       ??_C@_17KPNDCPAF@?$AAd?$AAi?$AAv@ 0000000140082b88     libucrt:lcidtoname_downlevel.obj
 0002:00009b94       ??_C@_11LOCGONAA@@         0000000140082b94     libucrt:lcidtoname_downlevel.obj
 0002:00009b98       ??_C@_1M@OKAHONE@?$AAa?$AAr?$AA?9?$AAS?$AAA@ 0000000140082b98     libucrt:lcidtoname_downlevel.obj
 0002:00009ba8       ??_C@_1M@FFFIGIGK@?$AAb?$AAg?$AA?9?$AAB?$AAG@ 0000000140082ba8     libucrt:lcidtoname_downlevel.obj
 0002:00009bb8       ??_C@_1M@BJNKEDC@?$AAc?$AAa?$AA?9?$AAE?$AAS@ 0000000140082bb8     libucrt:lcidtoname_downlevel.obj
 0002:00009bc8       ??_C@_1M@IJJHFJHA@?$AAc?$AAs?$AA?9?$AAC?$AAZ@ 0000000140082bc8     libucrt:lcidtoname_downlevel.obj
 0002:00009bd8       ??_C@_1M@CLPEOBGI@?$AAd?$AAa?$AA?9?$AAD?$AAK@ 0000000140082bd8     libucrt:lcidtoname_downlevel.obj
 0002:00009be8       ??_C@_1M@MCMADGCB@?$AAd?$AAe?$AA?9?$AAD?$AAE@ 0000000140082be8     libucrt:lcidtoname_downlevel.obj
 0002:00009bf8       ??_C@_1M@OOCKEMAM@?$AAe?$AAl?$AA?9?$AAG?$AAR@ 0000000140082bf8     libucrt:lcidtoname_downlevel.obj
 0002:00009c08       ??_C@_1M@DDNJFGID@?$AAf?$AAi?$AA?9?$AAF?$AAI@ 0000000140082c08     libucrt:lcidtoname_downlevel.obj
 0002:00009c18       ??_C@_1M@GLIPPMAC@?$AAf?$AAr?$AA?9?$AAF?$AAR@ 0000000140082c18     libucrt:lcidtoname_downlevel.obj
 0002:00009c28       ??_C@_1M@GFMCHPE@?$AAh?$AAe?$AA?9?$AAI?$AAL@ 0000000140082c28     libucrt:lcidtoname_downlevel.obj
 0002:00009c38       ??_C@_1M@MHLPGNKM@?$AAh?$AAu?$AA?9?$AAH?$AAU@ 0000000140082c38     libucrt:lcidtoname_downlevel.obj
 0002:00009c48       ??_C@_1M@LPDDNNPN@?$AAi?$AAs?$AA?9?$AAI?$AAS@ 0000000140082c48     libucrt:lcidtoname_downlevel.obj
 0002:00009c58       ??_C@_1M@MADIPODN@?$AAi?$AAt?$AA?9?$AAI?$AAT@ 0000000140082c58     libucrt:lcidtoname_downlevel.obj
 0002:00009c68       ??_C@_1M@IHBJJGG@?$AAn?$AAl?$AA?9?$AAN?$AAL@ 0000000140082c68     libucrt:lcidtoname_downlevel.obj
 0002:00009c78       ??_C@_1M@EANAGDL@?$AAn?$AAb?$AA?9?$AAN?$AAO@ 0000000140082c78     libucrt:lcidtoname_downlevel.obj
 0002:00009c88       ??_C@_1M@NEIEMEGP@?$AAp?$AAl?$AA?9?$AAP?$AAL@ 0000000140082c88     libucrt:lcidtoname_downlevel.obj
 0002:00009c98       ??_C@_1M@BOCFIGEP@?$AAp?$AAt?$AA?9?$AAB?$AAR@ 0000000140082c98     libucrt:lcidtoname_downlevel.obj
 0002:00009ca8       ??_C@_1M@IMPFOPBG@?$AAr?$AAo?$AA?9?$AAR?$AAO@ 0000000140082ca8     libucrt:lcidtoname_downlevel.obj
 0002:00009cb8       ??_C@_1M@IDNNEJMM@?$AAr?$AAu?$AA?9?$AAR?$AAU@ 0000000140082cb8     libucrt:lcidtoname_downlevel.obj
 0002:00009cc8       ??_C@_1M@LILEEOGM@?$AAh?$AAr?$AA?9?$AAH?$AAR@ 0000000140082cc8     libucrt:lcidtoname_downlevel.obj
 0002:00009cd8       ??_C@_1M@FKIFEHPB@?$AAs?$AAk?$AA?9?$AAS?$AAK@ 0000000140082cd8     libucrt:lcidtoname_downlevel.obj
 0002:00009ce8       ??_C@_1M@LJMAMNPJ@?$AAs?$AAq?$AA?9?$AAA?$AAL@ 0000000140082ce8     libucrt:lcidtoname_downlevel.obj
 0002:00009cf8       ??_C@_1M@GIAKDKJK@?$AAs?$AAv?$AA?9?$AAS?$AAE@ 0000000140082cf8     libucrt:lcidtoname_downlevel.obj
 0002:00009d08       ??_C@_1M@MKJKIKCL@?$AAt?$AAh?$AA?9?$AAT?$AAH@ 0000000140082d08     libucrt:lcidtoname_downlevel.obj
 0002:00009d18       ??_C@_1M@MFLCCMPB@?$AAt?$AAr?$AA?9?$AAT?$AAR@ 0000000140082d18     libucrt:lcidtoname_downlevel.obj
 0002:00009d28       ??_C@_1M@OIJHDKJN@?$AAu?$AAr?$AA?9?$AAP?$AAK@ 0000000140082d28     libucrt:lcidtoname_downlevel.obj
 0002:00009d38       ??_C@_1M@LHIPCIEK@?$AAi?$AAd?$AA?9?$AAI?$AAD@ 0000000140082d38     libucrt:lcidtoname_downlevel.obj
 0002:00009d48       ??_C@_1M@MFMOBGI@?$AAu?$AAk?$AA?9?$AAU?$AAA@ 0000000140082d48     libucrt:lcidtoname_downlevel.obj
 0002:00009d58       ??_C@_1M@OBGLJIPL@?$AAb?$AAe?$AA?9?$AAB?$AAY@ 0000000140082d58     libucrt:lcidtoname_downlevel.obj
 0002:00009d68       ??_C@_1M@BCFAJEAD@?$AAs?$AAl?$AA?9?$AAS?$AAI@ 0000000140082d68     libucrt:lcidtoname_downlevel.obj
 0002:00009d78       ??_C@_1M@FKFFEDDN@?$AAe?$AAt?$AA?9?$AAE?$AAE@ 0000000140082d78     libucrt:lcidtoname_downlevel.obj
 0002:00009d88       ??_C@_1M@KGKKAACI@?$AAl?$AAv?$AA?9?$AAL?$AAV@ 0000000140082d88     libucrt:lcidtoname_downlevel.obj
 0002:00009d98       ??_C@_1M@IFGBIJO@?$AAl?$AAt?$AA?9?$AAL?$AAT@ 0000000140082d98     libucrt:lcidtoname_downlevel.obj
 0002:00009da8       ??_C@_1M@FGEAHEDM@?$AAf?$AAa?$AA?9?$AAI?$AAR@ 0000000140082da8     libucrt:lcidtoname_downlevel.obj
 0002:00009db8       ??_C@_1M@KBMAIBFN@?$AAv?$AAi?$AA?9?$AAV?$AAN@ 0000000140082db8     libucrt:lcidtoname_downlevel.obj
 0002:00009dc8       ??_C@_1M@GPCBKDJK@?$AAh?$AAy?$AA?9?$AAA?$AAM@ 0000000140082dc8     libucrt:lcidtoname_downlevel.obj
 0002:00009dd8       ??_C@_1BG@BECMDDJB@?$AAa?$AAz?$AA?9?$AAA?$AAZ?$AA?9?$AAL?$AAa?$AAt?$AAn@ 0000000140082dd8     libucrt:lcidtoname_downlevel.obj
 0002:00009df8       ??_C@_1M@MAOFCAEA@?$AAe?$AAu?$AA?9?$AAE?$AAS@ 0000000140082df8     libucrt:lcidtoname_downlevel.obj
 0002:00009e08       ??_C@_1M@IGHABKPI@?$AAm?$AAk?$AA?9?$AAM?$AAK@ 0000000140082e08     libucrt:lcidtoname_downlevel.obj
 0002:00009e18       ??_C@_1M@IAIGNEJG@?$AAt?$AAn?$AA?9?$AAZ?$AAA@ 0000000140082e18     libucrt:lcidtoname_downlevel.obj
 0002:00009e28       ??_C@_1M@IIJCOJFA@?$AAx?$AAh?$AA?9?$AAZ?$AAA@ 0000000140082e28     libucrt:lcidtoname_downlevel.obj
 0002:00009e38       ??_C@_1M@LGPJHNJH@?$AAz?$AAu?$AA?9?$AAZ?$AAA@ 0000000140082e38     libucrt:lcidtoname_downlevel.obj
 0002:00009e48       ??_C@_1M@HOKAOIO@?$AAa?$AAf?$AA?9?$AAZ?$AAA@ 0000000140082e48     libucrt:lcidtoname_downlevel.obj
 0002:00009e58       ??_C@_1M@DPCLHLIE@?$AAk?$AAa?$AA?9?$AAG?$AAE@ 0000000140082e58     libucrt:lcidtoname_downlevel.obj
 0002:00009e68       ??_C@_1M@BLKMHJBI@?$AAf?$AAo?$AA?9?$AAF?$AAO@ 0000000140082e68     libucrt:lcidtoname_downlevel.obj
 0002:00009e78       ??_C@_1M@LGGJAPPB@?$AAh?$AAi?$AA?9?$AAI?$AAN@ 0000000140082e78     libucrt:lcidtoname_downlevel.obj
 0002:00009e88       ??_C@_1M@FIKPIHFE@?$AAm?$AAt?$AA?9?$AAM?$AAT@ 0000000140082e88     libucrt:lcidtoname_downlevel.obj
 0002:00009e98       ??_C@_1M@HEGGPBFA@?$AAs?$AAe?$AA?9?$AAN?$AAO@ 0000000140082e98     libucrt:lcidtoname_downlevel.obj
 0002:00009ea8       ??_C@_1M@EIBJEEPA@?$AAm?$AAs?$AA?9?$AAM?$AAY@ 0000000140082ea8     libucrt:lcidtoname_downlevel.obj
 0002:00009eb8       ??_C@_1M@FHLBGMPP@?$AAk?$AAk?$AA?9?$AAK?$AAZ@ 0000000140082eb8     libucrt:lcidtoname_downlevel.obj
 0002:00009ec8       ??_C@_1M@NGJJLCGI@?$AAk?$AAy?$AA?9?$AAK?$AAG@ 0000000140082ec8     libucrt:lcidtoname_downlevel.obj
 0002:00009ed8       ??_C@_1M@GIENNBFC@?$AAs?$AAw?$AA?9?$AAK?$AAE@ 0000000140082ed8     libucrt:lcidtoname_downlevel.obj
 0002:00009ee8       ??_C@_1BG@NDGMJIMJ@?$AAu?$AAz?$AA?9?$AAU?$AAZ?$AA?9?$AAL?$AAa?$AAt?$AAn@ 0000000140082ee8     libucrt:lcidtoname_downlevel.obj
 0002:00009f08       ??_C@_1M@IDCCIHBC@?$AAt?$AAt?$AA?9?$AAR?$AAU@ 0000000140082f08     libucrt:lcidtoname_downlevel.obj
 0002:00009f18       ??_C@_1M@LOICPMOJ@?$AAb?$AAn?$AA?9?$AAI?$AAN@ 0000000140082f18     libucrt:lcidtoname_downlevel.obj
 0002:00009f28       ??_C@_1M@KPKKNEAH@?$AAp?$AAa?$AA?9?$AAI?$AAN@ 0000000140082f28     libucrt:lcidtoname_downlevel.obj
 0002:00009f38       ??_C@_1M@PJGPPBOG@?$AAg?$AAu?$AA?9?$AAI?$AAN@ 0000000140082f38     libucrt:lcidtoname_downlevel.obj
 0002:00009f48       ??_C@_1M@KMKMOPHI@?$AAt?$AAa?$AA?9?$AAI?$AAN@ 0000000140082f48     libucrt:lcidtoname_downlevel.obj
 0002:00009f58       ??_C@_1M@KFEHEPAC@?$AAt?$AAe?$AA?9?$AAI?$AAN@ 0000000140082f58     libucrt:lcidtoname_downlevel.obj
 0002:00009f68       ??_C@_1M@CDCLMGHI@?$AAk?$AAn?$AA?9?$AAI?$AAN@ 0000000140082f68     libucrt:lcidtoname_downlevel.obj
 0002:00009f78       ??_C@_1M@MIODLDKF@?$AAm?$AAl?$AA?9?$AAI?$AAN@ 0000000140082f78     libucrt:lcidtoname_downlevel.obj
 0002:00009f88       ??_C@_1M@PBIEACPO@?$AAm?$AAr?$AA?9?$AAI?$AAN@ 0000000140082f88     libucrt:lcidtoname_downlevel.obj
 0002:00009f98       ??_C@_1M@NIDEAGPH@?$AAs?$AAa?$AA?9?$AAI?$AAN@ 0000000140082f98     libucrt:lcidtoname_downlevel.obj
 0002:00009fa8       ??_C@_1M@FHIHCBIO@?$AAm?$AAn?$AA?9?$AAM?$AAN@ 0000000140082fa8     libucrt:lcidtoname_downlevel.obj
 0002:00009fb8       ??_C@_1M@JAIJPENP@?$AAc?$AAy?$AA?9?$AAG?$AAB@ 0000000140082fb8     libucrt:lcidtoname_downlevel.obj
 0002:00009fc8       ??_C@_1M@PHGFBEPN@?$AAg?$AAl?$AA?9?$AAE?$AAS@ 0000000140082fc8     libucrt:lcidtoname_downlevel.obj
 0002:00009fd8       ??_C@_1O@KPIPDNCP@?$AAk?$AAo?$AAk?$AA?9?$AAI?$AAN@ 0000000140082fd8     libucrt:lcidtoname_downlevel.obj
 0002:00009fe8       ??_C@_1O@KNHJLDJA@?$AAs?$AAy?$AAr?$AA?9?$AAS?$AAY@ 0000000140082fe8     libucrt:lcidtoname_downlevel.obj
 0002:00009ff8       ??_C@_1O@MKEKBLAH@?$AAd?$AAi?$AAv?$AA?9?$AAM?$AAV@ 0000000140082ff8     libucrt:lcidtoname_downlevel.obj
 0002:0000a008       ??_C@_1O@OHDCKDDF@?$AAq?$AAu?$AAz?$AA?9?$AAB?$AAO@ 0000000140083008     libucrt:lcidtoname_downlevel.obj
 0002:0000a018       ??_C@_1M@LEPJNLFD@?$AAn?$AAs?$AA?9?$AAZ?$AAA@ 0000000140083018     libucrt:lcidtoname_downlevel.obj
 0002:0000a028       ??_C@_1M@OMLEIIJB@?$AAm?$AAi?$AA?9?$AAN?$AAZ@ 0000000140083028     libucrt:lcidtoname_downlevel.obj
 0002:0000a038       ??_C@_1M@PMPEAILG@?$AAa?$AAr?$AA?9?$AAI?$AAQ@ 0000000140083038     libucrt:lcidtoname_downlevel.obj
 0002:0000a048       ??_C@_1M@CNKPNOEE@?$AAd?$AAe?$AA?9?$AAC?$AAH@ 0000000140083048     libucrt:lcidtoname_downlevel.obj
 0002:0000a058       ??_C@_1M@LKMGMLKO@?$AAe?$AAn?$AA?9?$AAG?$AAB@ 0000000140083058     libucrt:lcidtoname_downlevel.obj
 0002:0000a068       ??_C@_1M@PGKJFFGL@?$AAe?$AAs?$AA?9?$AAM?$AAX@ 0000000140083068     libucrt:lcidtoname_downlevel.obj
 0002:0000a078       ??_C@_1M@DNNANBDC@?$AAf?$AAr?$AA?9?$AAB?$AAE@ 0000000140083078     libucrt:lcidtoname_downlevel.obj
 0002:0000a088       ??_C@_1M@HLGMDFHM@?$AAi?$AAt?$AA?9?$AAC?$AAH@ 0000000140083088     libucrt:lcidtoname_downlevel.obj
 0002:0000a098       ??_C@_1M@CLLBGJH@?$AAn?$AAl?$AA?9?$AAB?$AAE@ 0000000140083098     libucrt:lcidtoname_downlevel.obj
 0002:0000a0a8       ??_C@_1M@BODBOGLF@?$AAn?$AAn?$AA?9?$AAN?$AAO@ 00000001400830a8     libucrt:lcidtoname_downlevel.obj
 0002:0000a0b8       ??_C@_1M@HFFAHKAD@?$AAp?$AAt?$AA?9?$AAP?$AAT@ 00000001400830b8     libucrt:lcidtoname_downlevel.obj
 0002:0000a0c8       ??_C@_1BG@LNOAKHIE@?$AAs?$AAr?$AA?9?$AAS?$AAP?$AA?9?$AAL?$AAa?$AAt?$AAn@ 00000001400830c8     libucrt:lcidtoname_downlevel.obj
 0002:0000a0e8       ??_C@_1M@HBMHBGAK@?$AAs?$AAv?$AA?9?$AAF?$AAI@ 00000001400830e8     libucrt:lcidtoname_downlevel.obj
 0002:0000a0f8       ??_C@_1BG@DGCJGJBE@?$AAa?$AAz?$AA?9?$AAA?$AAZ?$AA?9?$AAC?$AAy?$AAr?$AAl@ 00000001400830f8     libucrt:lcidtoname_downlevel.obj
 0002:0000a118       ??_C@_1M@KEJDAAHB@?$AAs?$AAe?$AA?9?$AAS?$AAE@ 0000000140083118     libucrt:lcidtoname_downlevel.obj
 0002:0000a128       ??_C@_1M@HEIBJJAD@?$AAm?$AAs?$AA?9?$AAB?$AAN@ 0000000140083128     libucrt:lcidtoname_downlevel.obj
 0002:0000a138       ??_C@_1BG@PBGJMCEM@?$AAu?$AAz?$AA?9?$AAU?$AAZ?$AA?9?$AAC?$AAy?$AAr?$AAl@ 0000000140083138     libucrt:lcidtoname_downlevel.obj
 0002:0000a158       ??_C@_1O@LAOBCMDF@?$AAq?$AAu?$AAz?$AA?9?$AAE?$AAC@ 0000000140083158     libucrt:lcidtoname_downlevel.obj
 0002:0000a168       ??_C@_1M@POEEMAIO@?$AAa?$AAr?$AA?9?$AAE?$AAG@ 0000000140083168     libucrt:lcidtoname_downlevel.obj
 0002:0000a178       ??_C@_1M@EFAKDEDL@?$AAz?$AAh?$AA?9?$AAH?$AAK@ 0000000140083178     libucrt:lcidtoname_downlevel.obj
 0002:0000a188       ??_C@_1M@HKKIJHGI@?$AAd?$AAe?$AA?9?$AAA?$AAT@ 0000000140083188     libucrt:lcidtoname_downlevel.obj
 0002:0000a198       ??_C@_1M@KBFBEHJF@?$AAe?$AAn?$AA?9?$AAA?$AAU@ 0000000140083198     libucrt:lcidtoname_downlevel.obj
 0002:0000a1a8       ??_C@_1M@MNPLFAAH@?$AAe?$AAs?$AA?9?$AAE?$AAS@ 00000001400831a8     libucrt:lcidtoname_downlevel.obj
 0002:0000a1b8       ??_C@_1M@HJOOJFMA@?$AAf?$AAr?$AA?9?$AAC?$AAA@ 00000001400831b8     libucrt:lcidtoname_downlevel.obj
 0002:0000a1c8       ??_C@_1BG@JPOFPNAB@?$AAs?$AAr?$AA?9?$AAS?$AAP?$AA?9?$AAC?$AAy?$AAr?$AAl@ 00000001400831c8     libucrt:lcidtoname_downlevel.obj
 0002:0000a1e8       ??_C@_1M@LNFOCMOB@?$AAs?$AAe?$AA?9?$AAF?$AAI@ 00000001400831e8     libucrt:lcidtoname_downlevel.obj
 0002:0000a1f8       ??_C@_1O@MGJBOAMB@?$AAq?$AAu?$AAz?$AA?9?$AAP?$AAE@ 00000001400831f8     libucrt:lcidtoname_downlevel.obj
 0002:0000a208       ??_C@_1M@GJINLBOK@?$AAa?$AAr?$AA?9?$AAL?$AAY@ 0000000140083208     libucrt:lcidtoname_downlevel.obj
 0002:0000a218       ??_C@_1M@GGMNHJNL@?$AAz?$AAh?$AA?9?$AAS?$AAG@ 0000000140083218     libucrt:lcidtoname_downlevel.obj
 0002:0000a228       ??_C@_1M@HOIKODND@?$AAd?$AAe?$AA?9?$AAL?$AAU@ 0000000140083228     libucrt:lcidtoname_downlevel.obj
 0002:0000a238       ??_C@_1M@DDOCCGFG@?$AAe?$AAn?$AA?9?$AAC?$AAA@ 0000000140083238     libucrt:lcidtoname_downlevel.obj
 0002:0000a248       ??_C@_1M@BNOEMJLF@?$AAe?$AAs?$AA?9?$AAG?$AAT@ 0000000140083248     libucrt:lcidtoname_downlevel.obj
 0002:0000a258       ??_C@_1M@EOGNKEK@?$AAf?$AAr?$AA?9?$AAC?$AAH@ 0000000140083258     libucrt:lcidtoname_downlevel.obj
 0002:0000a268       ??_C@_1M@FLIDJFHL@?$AAh?$AAr?$AA?9?$AAB?$AAA@ 0000000140083268     libucrt:lcidtoname_downlevel.obj
 0002:0000a278       ??_C@_1O@FMCELNAJ@?$AAs?$AAm?$AAj?$AA?9?$AAN?$AAO@ 0000000140083278     libucrt:lcidtoname_downlevel.obj
 0002:0000a288       ??_C@_1M@JHGLJMGJ@?$AAa?$AAr?$AA?9?$AAD?$AAZ@ 0000000140083288     libucrt:lcidtoname_downlevel.obj
 0002:0000a298       ??_C@_1M@JKKFDCNP@?$AAz?$AAh?$AA?9?$AAM?$AAO@ 0000000140083298     libucrt:lcidtoname_downlevel.obj
 0002:0000a2a8       ??_C@_1M@GEEFALPE@?$AAd?$AAe?$AA?9?$AAL?$AAI@ 00000001400832a8     libucrt:lcidtoname_downlevel.obj
 0002:0000a2b8       ??_C@_1M@IGEOFBG@?$AAe?$AAn?$AA?9?$AAN?$AAZ@ 00000001400832b8     libucrt:lcidtoname_downlevel.obj
 0002:0000a2c8       ??_C@_1M@KDBONEHP@?$AAe?$AAs?$AA?9?$AAC?$AAR@ 00000001400832c8     libucrt:lcidtoname_downlevel.obj
 0002:0000a2d8       ??_C@_1M@FHMDOHNN@?$AAf?$AAr?$AA?9?$AAL?$AAU@ 00000001400832d8     libucrt:lcidtoname_downlevel.obj
 0002:0000a2e8       ??_C@_1BG@NFKKMAFG@?$AAb?$AAs?$AA?9?$AAB?$AAA?$AA?9?$AAL?$AAa?$AAt?$AAn@ 00000001400832e8     libucrt:lcidtoname_downlevel.obj
 0002:0000a308       ??_C@_1O@IMNBEMCI@?$AAs?$AAm?$AAj?$AA?9?$AAS?$AAE@ 0000000140083308     libucrt:lcidtoname_downlevel.obj
 0002:0000a318       ??_C@_1M@DHHMBNDP@?$AAa?$AAr?$AA?9?$AAM?$AAA@ 0000000140083318     libucrt:lcidtoname_downlevel.obj
 0002:0000a328       ??_C@_1M@BNBLJCGH@?$AAe?$AAn?$AA?9?$AAI?$AAE@ 0000000140083328     libucrt:lcidtoname_downlevel.obj
 0002:0000a338       ??_C@_1M@GEPAFMDL@?$AAe?$AAs?$AA?9?$AAP?$AAA@ 0000000140083338     libucrt:lcidtoname_downlevel.obj
 0002:0000a348       ??_C@_1M@OJONDMDL@?$AAf?$AAr?$AA?9?$AAM?$AAC@ 0000000140083348     libucrt:lcidtoname_downlevel.obj
 0002:0000a358       ??_C@_1BG@OBCNFJB@?$AAs?$AAr?$AA?9?$AAB?$AAA?$AA?9?$AAL?$AAa?$AAt?$AAn@ 0000000140083358     libucrt:lcidtoname_downlevel.obj
 0002:0000a378       ??_C@_1O@KEMEEGPO@?$AAs?$AAm?$AAa?$AA?9?$AAN?$AAO@ 0000000140083378     libucrt:lcidtoname_downlevel.obj
 0002:0000a388       ??_C@_1M@ELMGFODK@?$AAa?$AAr?$AA?9?$AAT?$AAN@ 0000000140083388     libucrt:lcidtoname_downlevel.obj
 0002:0000a398       ??_C@_1M@BHDLHFAF@?$AAe?$AAn?$AA?9?$AAZ?$AAA@ 0000000140083398     libucrt:lcidtoname_downlevel.obj
 0002:0000a3a8       ??_C@_1M@BMGIGLIF@?$AAe?$AAs?$AA?9?$AAD?$AAO@ 00000001400833a8     libucrt:lcidtoname_downlevel.obj
 0002:0000a3b8       ??_C@_1BG@CMBHIPBE@?$AAs?$AAr?$AA?9?$AAB?$AAA?$AA?9?$AAC?$AAy?$AAr?$AAl@ 00000001400833b8     libucrt:lcidtoname_downlevel.obj
 0002:0000a3d8       ??_C@_1O@HEDBLHNP@?$AAs?$AAm?$AAa?$AA?9?$AAS?$AAE@ 00000001400833d8     libucrt:lcidtoname_downlevel.obj
 0002:0000a3e8       ??_C@_1M@DAGCADIM@?$AAa?$AAr?$AA?9?$AAO?$AAM@ 00000001400833e8     libucrt:lcidtoname_downlevel.obj
 0002:0000a3f8       ??_C@_1M@FODLMICG@?$AAe?$AAn?$AA?9?$AAJ?$AAM@ 00000001400833f8     libucrt:lcidtoname_downlevel.obj
 0002:0000a408       ??_C@_1M@DNMLCIHB@?$AAe?$AAs?$AA?9?$AAV?$AAE@ 0000000140083408     libucrt:lcidtoname_downlevel.obj
 0002:0000a418       ??_C@_1O@EOKHMKJK@?$AAs?$AAm?$AAs?$AA?9?$AAF?$AAI@ 0000000140083418     libucrt:lcidtoname_downlevel.obj
 0002:0000a428       ??_C@_1M@CAFJMKOF@?$AAa?$AAr?$AA?9?$AAY?$AAE@ 0000000140083428     libucrt:lcidtoname_downlevel.obj
 0002:0000a438       ??_C@_1M@CBFHIJLI@?$AAe?$AAn?$AA?9?$AAC?$AAB@ 0000000140083438     libucrt:lcidtoname_downlevel.obj
 0002:0000a448       ??_C@_1M@BGNFLDN@?$AAe?$AAs?$AA?9?$AAC?$AAO@ 0000000140083448     libucrt:lcidtoname_downlevel.obj
 0002:0000a458       ??_C@_1O@JMPHMAMC@?$AAs?$AAm?$AAn?$AA?9?$AAF?$AAI@ 0000000140083458     libucrt:lcidtoname_downlevel.obj
 0002:0000a468       ??_C@_1M@JLANABKE@?$AAa?$AAr?$AA?9?$AAS?$AAY@ 0000000140083468     libucrt:lcidtoname_downlevel.obj
 0002:0000a478       ??_C@_1M@HPKGCFGN@?$AAe?$AAn?$AA?9?$AAB?$AAZ@ 0000000140083478     libucrt:lcidtoname_downlevel.obj
 0002:0000a488       ??_C@_1M@OLJCMLGM@?$AAe?$AAs?$AA?9?$AAP?$AAE@ 0000000140083488     libucrt:lcidtoname_downlevel.obj
 0002:0000a498       ??_C@_1M@MKKGFKLE@?$AAa?$AAr?$AA?9?$AAJ?$AAO@ 0000000140083498     libucrt:lcidtoname_downlevel.obj
 0002:0000a4a8       ??_C@_1M@EKPGLDNI@?$AAe?$AAn?$AA?9?$AAT?$AAT@ 00000001400834a8     libucrt:lcidtoname_downlevel.obj
 0002:0000a4b8       ??_C@_1M@OONGHFHE@?$AAe?$AAs?$AA?9?$AAA?$AAR@ 00000001400834b8     libucrt:lcidtoname_downlevel.obj
 0002:0000a4c8       ??_C@_1M@OOJFGBHE@?$AAa?$AAr?$AA?9?$AAL?$AAB@ 00000001400834c8     libucrt:lcidtoname_downlevel.obj
 0002:0000a4d8       ??_C@_1M@GCEJHNEG@?$AAe?$AAn?$AA?9?$AAZ?$AAW@ 00000001400834d8     libucrt:lcidtoname_downlevel.obj
 0002:0000a4e8       ??_C@_1M@JNOCAHJI@?$AAe?$AAs?$AA?9?$AAE?$AAC@ 00000001400834e8     libucrt:lcidtoname_downlevel.obj
 0002:0000a4f8       ??_C@_1M@JEFHPGGB@?$AAa?$AAr?$AA?9?$AAK?$AAW@ 00000001400834f8     libucrt:lcidtoname_downlevel.obj
 0002:0000a508       ??_C@_1M@MLKIBJOJ@?$AAe?$AAn?$AA?9?$AAP?$AAH@ 0000000140083508     libucrt:lcidtoname_downlevel.obj
 0002:0000a518       ??_C@_1M@BDNIPEND@?$AAe?$AAs?$AA?9?$AAC?$AAL@ 0000000140083518     libucrt:lcidtoname_downlevel.obj
 0002:0000a528       ??_C@_1M@MPNMEKBD@?$AAa?$AAr?$AA?9?$AAA?$AAE@ 0000000140083528     libucrt:lcidtoname_downlevel.obj
 0002:0000a538       ??_C@_1M@KBJALCPI@?$AAe?$AAs?$AA?9?$AAU?$AAY@ 0000000140083538     libucrt:lcidtoname_downlevel.obj
 0002:0000a548       ??_C@_1M@LLCCOAGA@?$AAa?$AAr?$AA?9?$AAB?$AAH@ 0000000140083548     libucrt:lcidtoname_downlevel.obj
 0002:0000a558       ??_C@_1M@PBFNCDEL@?$AAe?$AAs?$AA?9?$AAP?$AAY@ 0000000140083558     libucrt:lcidtoname_downlevel.obj
 0002:0000a568       ??_C@_1M@EDGINPNP@?$AAa?$AAr?$AA?9?$AAQ?$AAA@ 0000000140083568     libucrt:lcidtoname_downlevel.obj
 0002:0000a578       ??_C@_1M@MKDBIIJI@?$AAe?$AAs?$AA?9?$AAB?$AAO@ 0000000140083578     libucrt:lcidtoname_downlevel.obj
 0002:0000a588       ??_C@_1M@CPKKEBLD@?$AAe?$AAs?$AA?9?$AAS?$AAV@ 0000000140083588     libucrt:lcidtoname_downlevel.obj
 0002:0000a598       ??_C@_1M@NDBGMMJL@?$AAe?$AAs?$AA?9?$AAH?$AAN@ 0000000140083598     libucrt:lcidtoname_downlevel.obj
 0002:0000a5a8       ??_C@_1M@JIJIBHDP@?$AAe?$AAs?$AA?9?$AAN?$AAI@ 00000001400835a8     libucrt:lcidtoname_downlevel.obj
 0002:0000a5b8       ??_C@_1M@CGFMKEEK@?$AAe?$AAs?$AA?9?$AAP?$AAR@ 00000001400835b8     libucrt:lcidtoname_downlevel.obj
 0002:0000a5c8       ??_C@_1O@ICJHKIIK@?$AAz?$AAh?$AA?9?$AAC?$AAH?$AAT@ 00000001400835c8     libucrt:lcidtoname_downlevel.obj
 0002:0000a5d8       ??_C@_15CLNEJCE@?$AAs?$AAr@ 00000001400835d8     libucrt:lcidtoname_downlevel.obj
 0002:0000b700       ??_C@_1M@KAHEKEIG@?$AAa?$AAf?$AA?9?$AAz?$AAa@ 0000000140084700     libucrt:lcidtoname_downlevel.obj
 0002:0000b710       ??_C@_1M@GIECOABL@?$AAa?$AAr?$AA?9?$AAa?$AAe@ 0000000140084710     libucrt:lcidtoname_downlevel.obj
 0002:0000b720       ??_C@_1M@BMLMEKGI@?$AAa?$AAr?$AA?9?$AAb?$AAh@ 0000000140084720     libucrt:lcidtoname_downlevel.obj
 0002:0000b730       ??_C@_1M@DAPFDGGB@?$AAa?$AAr?$AA?9?$AAd?$AAz@ 0000000140084730     libucrt:lcidtoname_downlevel.obj
 0002:0000b740       ??_C@_1M@FJNKGKIG@?$AAa?$AAr?$AA?9?$AAe?$AAg@ 0000000140084740     libucrt:lcidtoname_downlevel.obj
 0002:0000b750       ??_C@_1M@FLGKKCLO@?$AAa?$AAr?$AA?9?$AAi?$AAq@ 0000000140084750     libucrt:lcidtoname_downlevel.obj
 0002:0000b760       ??_C@_1M@GNDIPALM@?$AAa?$AAr?$AA?9?$AAj?$AAo@ 0000000140084760     libucrt:lcidtoname_downlevel.obj
 0002:0000b770       ??_C@_1M@DDMJFMGJ@?$AAa?$AAr?$AA?9?$AAk?$AAw@ 0000000140084770     libucrt:lcidtoname_downlevel.obj
 0002:0000b780       ??_C@_1M@EJALMLHM@?$AAa?$AAr?$AA?9?$AAl?$AAb@ 0000000140084780     libucrt:lcidtoname_downlevel.obj
 0002:0000b790       ??_C@_1M@MOBDBLOC@?$AAa?$AAr?$AA?9?$AAl?$AAy@ 0000000140084790     libucrt:lcidtoname_downlevel.obj
 0002:0000b7a0       ??_C@_1M@JAOCLHDH@?$AAa?$AAr?$AA?9?$AAm?$AAa@ 00000001400847a0     libucrt:lcidtoname_downlevel.obj
 0002:0000b7b0       ??_C@_1M@JHPMKJIE@?$AAa?$AAr?$AA?9?$AAo?$AAm@ 00000001400847b0     libucrt:lcidtoname_downlevel.obj
 0002:0000b7c0       ??_C@_1M@OEPGHFNH@?$AAa?$AAr?$AA?9?$AAq?$AAa@ 00000001400847c0     libucrt:lcidtoname_downlevel.obj
 0002:0000b7d0       ??_C@_1M@KJDONENM@?$AAa?$AAr?$AA?9?$AAs?$AAa@ 00000001400847d0     libucrt:lcidtoname_downlevel.obj
 0002:0000b7e0       ??_C@_1M@DMJDKLKM@?$AAa?$AAr?$AA?9?$AAs?$AAy@ 00000001400847e0     libucrt:lcidtoname_downlevel.obj
 0002:0000b7f0       ??_C@_1M@OMFIPEDC@?$AAa?$AAr?$AA?9?$AAt?$AAn@ 00000001400847f0     libucrt:lcidtoname_downlevel.obj
